scmain_3.xe: file format: xcore-xe

Loadable 1 for stdcore[0] (node "0", tile 0):

Disassembly of section .text (size: 292)

<main>:
<_start>:
             0x00010000: 00 68:       ldc (ru6)       r0, 0x0
             0x00010002: 40 68:       ldc (ru6)       r1, 0x0
             0x00010004: 80 68:       ldc (ru6)       r2, 0x0
             0x00010006: c0 68:       ldc (ru6)       r3, 0x0
             0x00010008: 00 69:       ldc (ru6)       r4, 0x0
             0x0001000a: 40 69:       ldc (ru6)       r5, 0x0
             0x0001000c: 80 69:       ldc (ru6)       r6, 0x0
             0x0001000e: c0 69:       ldc (ru6)       r7, 0x0
             0x00010010: 00 6a:       ldc (ru6)       r8, 0x0
             0x00010012: 40 6a:       ldc (ru6)       r9, 0x0
             0x00010014: 00 f0 98 d8: ldap (lu10)     r11, 0x98 <.label0>
             0x00010018: fb 37:       set (1r)        cp, r11
             0x0001001a: 00 f0 99 d8: ldap (lu10)     r11, 0x99 <.label1>
             0x0001001e: eb 37:       set (1r)        dp, r11
             0x00010020: cb 6a:       ldc (ru6)       r11, 0xb
             0x00010022: bb ff ec 17: get (l2r)       r10, ps[r11]
             0x00010026: 80 f0 c0 6a: ldc (lru6)      r11, 0x2000
             0x0001002a: be 16:       add (3r)        r11, r11, r10
             0x0001002c: fb 2f:       set (1r)        sp, r11
             0x0001002e: 07 68:       ldc (ru6)       r0, 0x7
             0x00010030: 40 68:       ldc (ru6)       r1, 0x0
             0x00010032: 80 68:       ldc (ru6)       r2, 0x0
             0x00010034: 40 d0:       bl (u10)        0x40 <progSwitchRegBlind>
             0x00010036: 05 68:       ldc (ru6)       r0, 0x5
             0x00010038: 40 68:       ldc (ru6)       r1, 0x0
             0x0001003a: 80 68:       ldc (ru6)       r2, 0x0
             0x0001003c: 3c d0:       bl (u10)        0x3c <progSwitchRegBlind>
.label2      0x0001003e: c2 86:       getr (rus)      r0, 0x2
             0x00010040: 02 74:       bt (ru6)        r0, -0x2 <.label2>
             0x00010042: 9f 68:       ldc (ru6)       r2, 0x1f
             0x00010044: c1 68:       ldc (ru6)       r3, 0x1
             0x00010046: 04 f0 40 68: ldc (lru6)      r1, 0x100
             0x0001004a: 00 f0 05 6c: ldw (lru6)      r0, cp[0x5]
             0x0001004e: 01 10:       add (3r)        r0, r0, r1
.label3      0x00010050: e0 17:       freer (1r)      res[r0]
             0x00010052: 01 10:       add (3r)        r0, r0, r1
             0x00010054: 4e 30:       eq (3r)         r4, r3, r2
             0x00010056: 3d 90:       add (2rus)      r3, r3, 0x1
             0x00010058: 05 7d:       bf (ru6)        r4, -0x5 <.label3>
             0x0001005a: 02 f0 40 69: ldc (lru6)      r5, 0x80
             0x0001005e: 02 f0 88 69: ldc (lru6)      r6, 0x88

<disableLinks>:
             0x00010062: c4 90:       add (2rus)      r0, r5, 0x0
             0x00010064: 40 68:       ldc (ru6)       r1, 0x0
             0x00010066: 80 68:       ldc (ru6)       r2, 0x0
             0x00010068: 26 d0:       bl (u10)        0x26 <progSwitchRegBlind>
             0x0001006a: 15 91:       add (2rus)      r5, r5, 0x1
             0x0001006c: 06 33:       eq (3r)         r0, r5, r6
             0x0001006e: 07 7c:       bf (ru6)        r0, -0x7 <disableLinks>
             0x00010070: 02 f0 02 68: ldc (lru6)      r0, 0x82
             0x00010074: 40 68:       ldc (ru6)       r1, 0x0
             0x00010076: 00 f0 80 58: ldw (lru6)      r2, dp[0x0]
             0x0001007a: 1d d0:       bl (u10)        0x1d <progSwitchRegBlind>

<setDimensionReg>:
             0x0001007c: 0c 68:       ldc (ru6)       r0, 0xc
             0x0001007e: 40 68:       ldc (ru6)       r1, 0x0
             0x00010080: 80 68:       ldc (ru6)       r2, 0x0
             0x00010082: 19 d0:       bl (u10)        0x19 <progSwitchRegBlind>
             0x00010084: 0d 68:       ldc (ru6)       r0, 0xd
             0x00010086: 00 f0 81 58: ldw (lru6)      r2, dp[0x1]
             0x0001008a: 15 d0:       bl (u10)        0x15 <progSwitchRegBlind>

<sayHello2>:
             0x0001008c: 22 68:       ldc (ru6)       r0, 0x22
             0x0001008e: 40 68:       ldc (ru6)       r1, 0x0
             0x00010090: 3c f0 80 68: ldc (lru6)      r2, 0xf00
             0x00010094: 10 d0:       bl (u10)        0x10 <progSwitchRegBlind>
             0x00010096: 02 f0 02 68: ldc (lru6)      r0, 0x82
             0x0001009a: 00 f0 80 58: ldw (lru6)      r2, dp[0x0]
             0x0001009e: dd a6:       mkmsk (rus)     r3, 0x1
             0x000100a0: 58 69:       ldc (ru6)       r5, 0x18
             0x000100a2: 7d 22:       shl (3r)        r3, r3, r5
             0x000100a4: 2b 40:       or (3r)         r2, r2, r3
             0x000100a6: 07 d0:       bl (u10)        0x7 <progSwitchRegBlind>

<finish>:
             0x000100a8: 07 68:       ldc (ru6)       r0, 0x7
             0x000100aa: 40 68:       ldc (ru6)       r1, 0x0
             0x000100ac: 80 68:       ldc (ru6)       r2, 0x0
             0x000100ae: c0 68:       ldc (ru6)       r3, 0x0

<doDoSyscall>:
             0x000100b0: 00 f0 36 d0: bl (lu10)       0x36 <_DoSyscall>
             0x000100b4: 03 77:       bu (u6)         -0x3 <doDoSyscall>

<progSwitchRegBlind>:
             0x000100b6: 00 f0 c2 5a: ldw (lru6)      r11, dp[0x2]
             0x000100ba: b5 a4:       shl (2rus)      r3, r1, 0x10
             0x000100bc: 3f 45:       or (3r)         r11, r3, r11
             0x000100be: ce 86:       getr (rus)      r3, 0x2
             0x000100c0: 5f 17:       setd (r2r)      res[r3], r11
             0x000100c2: 03 f0 c0 6a: ldc (lru6)      r11, 0xc0
             0x000100c6: 2f 4f:       outct (2r)      res[r3], r11
             0x000100c8: c5 6a:       ldc (ru6)       r11, 0x5
             0x000100ca: 3c 32:       eq (3r)         r11, r11, r0
             0x000100cc: c4 72:       bt (ru6)        r11, 0x4 <retIsValue>
             0x000100ce: 34 ad:       shr (2rus)      r11, r1, 0x8
             0x000100d0: 5f 0f:       outt (r2r)      res[r3], r11
             0x000100d2: d7 0e:       outt (r2r)      res[r3], r1
             0x000100d4: 03 73:       bu (u6)         0x3 <retSent>

<retIsValue>:
             0x000100d6: 38 ad:       shr (2rus)      r11, r2, 0x8
             0x000100d8: 5f 0f:       outt (r2r)      res[r3], r11
             0x000100da: db 0e:       outt (r2r)      res[r3], r2

<retSent>:
             0x000100dc: 03 f0 ff 6a: ldc (lru6)      r11, 0xff
             0x000100e0: 5f 0f:       outt (r2r)      res[r3], r11
             0x000100e2: 30 ad:       shr (2rus)      r11, r0, 0x8
             0x000100e4: 5f 0f:       outt (r2r)      res[r3], r11
             0x000100e6: d3 0e:       outt (r2r)      res[r3], r0
             0x000100e8: cb ae:       out (r2r)       res[r3], r2
             0x000100ea: dd 4e:       outct (rus)     res[r3], 0x1
             0x000100ec: e3 17:       freer (1r)      res[r3]
             0x000100ee: c0 77:       retsp (u6)      0x0

<readSwitchReg>:
             0x000100f0: 00 f0 c2 5a: ldw (lru6)      r11, dp[0x2]
             0x000100f4: b9 a4:       shl (2rus)      r3, r2, 0x10
             0x000100f6: 3f 45:       or (3r)         r11, r3, r11
             0x000100f8: ce 86:       getr (rus)      r3, 0x2
             0x000100fa: 5f 17:       setd (r2r)      res[r3], r11
             0x000100fc: 03 f0 c1 6a: ldc (lru6)      r11, 0xc1
             0x00010100: 2f 4f:       outct (2r)      res[r3], r11
             0x00010102: 3e ad:       shr (2rus)      r11, r3, 0x18
             0x00010104: 5f 0f:       outt (r2r)      res[r3], r11
             0x00010106: 3d ad:       shr (2rus)      r11, r3, 0x10
             0x00010108: 5f 0f:       outt (r2r)      res[r3], r11
             0x0001010a: 3c ad:       shr (2rus)      r11, r3, 0x8
             0x0001010c: 5f 0f:       outt (r2r)      res[r3], r11
             0x0001010e: 34 ad:       shr (2rus)      r11, r1, 0x8
             0x00010110: 5f 0f:       outt (r2r)      res[r3], r11
             0x00010112: d7 0e:       outt (r2r)      res[r3], r1
             0x00010114: dd 4e:       outct (rus)     res[r3], 0x1
             0x00010116: df ce:       chkct (rus)     res[r3], 0x3
             0x00010118: c3 b6:       in (2r)         r0, res[r3]
             0x0001011a: dd ce:       chkct (rus)     res[r3], 0x1
             0x0001011c: e3 17:       freer (1r)      res[r3]
             0x0001011e: c0 77:       retsp (u6)      0x0

<_DoSyscall>:
             0x00010120: d0 a6:       mkmsk (rus)     r0, 0x20
             0x00010122: c0 77:       retsp (u6)      0x0

Disassembly of section .globcode (size: 34)

<getAllChansFunc>:
             0x00010124: 41 77:       entsp (u6)      0x1
             0x00010126: 00 55:       stw (ru6)       r4, sp[0x0]
.label4      0x00010128: c2 86:       getr (rus)      r0, 0x2
             0x0001012a: 02 74:       bt (ru6)        r0, -0x2 <.label4>
             0x0001012c: 9f 68:       ldc (ru6)       r2, 0x1f
             0x0001012e: c0 68:       ldc (ru6)       r3, 0x0
             0x00010130: 04 f0 40 68: ldc (lru6)      r1, 0x100
             0x00010134: 00 f0 00 6c: ldw (lru6)      r0, cp[0x0]
.label5      0x00010138: e0 17:       freer (1r)      res[r0]
             0x0001013a: 01 10:       add (3r)        r0, r0, r1
             0x0001013c: 4e 30:       eq (3r)         r4, r3, r2
             0x0001013e: 3d 90:       add (2rus)      r3, r3, 0x1
             0x00010140: 05 7d:       bf (ru6)        r4, -0x5 <.label5>
             0x00010142: 00 5d:       ldw (ru6)       r4, sp[0x0]
             0x00010144: c1 77:       retsp (u6)      0x1

Disassembly of section .cp.const4 (size: 4)

<thisChanendZero>:
<.CPM0>:
.label0      0x00010148: 02 00 00 00: 

Disassembly of section .ctors (size: 4)

<_CTOR_LIST_>:
             0x0001014c: 24 01 01 00: 

Disassembly of section .dp.data (size: 24)

<_dp>:
<treeLinkProgVal2>:
.label1      0x00010150: 08 40 00 80: 

<dirBits1>:
             0x00010154: 00 00 00 f0: 

<ssctrlAddrWord>:
             0x00010158: 0c c3 00 00: 

<thisChanendZero>:
             0x0001015c: 02 00 00 00: 

<__sodFlag>:
             0x00010160: 00 00 00 00: 

<__sodEnd>:
             0x00010164: 02 01 00 80: 

Disassembly of section .xmosnote (size: 20)

             0x00000000: 04 00 00 00: 
             0x00000004: 03 00 00 00: 
             0x00000008: 02 00 00 00: 
             0x0000000c: 58 4d 4f 53: 
             0x00000010: 58 53 31 00: 

Disassembly of section .xmosnote (size: 20)

             0x00000000: 04 00 00 00: 
             0x00000004: 04 00 00 00: 
             0x00000008: 03 00 00 00: 
             0x0000000c: 58 4d 4f 53: 
             0x00000010: 52 45 56 42: 

Disassembly of section .xmosnote (size: 36)

             0x00000000: 04 00 00 00: 
             0x00000004: 14 00 00 00: 
             0x00000008: 01 00 00 00: 
             0x0000000c: 58 4d 4f 53: 
             0x00000010: 31 32 2e 32: 
             0x00000014: 2e 30 20 28: 
             0x00000018: 62 75 69 6c: 
             0x0000001c: 64 20 37 37: 
             0x00000020: 34 31 29 00: 

Disassembly of section .expr (size: 140)

             0x00000000: 42 09 00 00: 
             0x00000004: 0f 00 00 00: 
             0x00000008: 71 02 00 00: 
             0x0000000c: 00 00 00 00: 
             0x00000010: 00 00 00 00: 
             0x00000014: 41 04 00 00: 
             0x00000018: 1e 00 00 00: 
             0x0000001c: 21 00 00 00: 
             0x00000020: 00 00 00 00: 
             0x00000024: 00 00 00 00: 
             0x00000028: 41 05 00 00: 
             0x0000002c: 1e 00 00 00: 
             0x00000030: 22 00 00 00: 
             0x00000034: 00 00 00 00: 
             0x00000038: 00 00 00 00: 
             0x0000003c: 01 05 00 00: 
             0x00000040: 1e 00 00 00: 
             0x00000044: 23 00 00 00: 
             0x00000048: 00 00 00 00: 
             0x0000004c: 00 00 00 00: 
             0x00000050: c1 04 00 00: 
             0x00000054: 1e 00 00 00: 
             0x00000058: 24 00 00 00: 
             0x0000005c: 00 00 00 00: 
             0x00000060: 00 00 00 00: 
             0x00000064: 42 09 00 00: 
             0x00000068: 27 00 00 00: 
             0x0000006c: 7a 02 00 00: 
             0x00000070: 00 00 00 00: 
             0x00000074: 00 00 00 00: 
             0x00000078: 42 09 00 00: 
             0x0000007c: 28 00 00 00: 
             0x00000080: 7a 02 00 00: 
             0x00000084: 00 00 00 00: 
             0x00000088: 00 00 00 00: 

Disassembly of section .symtab (size: 768)

             0x00000000: 00 00 00 00: 
             0x00000004: 00 00 00 00: 
             0x00000008: 00 00 00 00: 
             0x0000000c: 00 00 00 00: 
             0x00000010: 00 00 00 00: 
             0x00000014: 00 00 00 00: 
             0x00000018: 00 00 00 00: 
             0x0000001c: 04 00 f1 ff: 
             0x00000020: 4b 00 00 00: 
             0x00000024: 48 01 01 00: 
             0x00000028: 00 00 00 00: 
             0x0000002c: 10 00 03 00: 
             0x00000030: 4f 00 00 00: 
             0x00000034: 50 01 01 00: 
             0x00000038: 00 00 00 00: 
             0x0000003c: 10 00 06 00: 
             0x00000040: 53 00 00 00: 
             0x00000044: 50 01 01 00: 
             0x00000048: 00 00 00 00: 
             0x0000004c: 10 00 01 00: 
             0x00000050: 59 00 00 00: 
             0x00000054: 68 01 01 00: 
             0x00000058: 00 00 00 00: 
             0x0000005c: 10 00 05 00: 
             0x00000060: 62 00 00 00: 
             0x00000064: 4c 01 01 00: 
             0x00000068: 00 00 00 00: 
             0x0000006c: 10 00 04 00: 
             0x00000070: 6e 00 00 00: 
             0x00000074: 50 01 01 00: 
             0x00000078: 00 00 00 00: 
             0x0000007c: 10 00 07 00: 
             0x00000080: 7a 00 00 00: 
             0x00000084: 00 e1 f5 05: 
             0x00000088: 00 00 00 00: 
             0x0000008c: 10 00 f1 ff: 
             0x00000090: 88 00 00 00: 
             0x00000094: 06 00 00 00: 
             0x00000098: 00 00 00 00: 
             0x0000009c: 10 00 f1 ff: 
             0x000000a0: 98 00 00 00: 
             0x000000a4: 00 00 00 00: 
             0x000000a8: 00 00 00 00: 
             0x000000ac: 10 00 f1 ff: 
             0x000000b0: af 00 00 00: 
             0x000000b4: 00 00 00 00: 
             0x000000b8: 00 00 00 00: 
             0x000000bc: 04 00 f1 ff: 
             0x000000c0: ba 00 00 00: 
             0x000000c4: 24 01 01 00: 
             0x000000c8: 00 00 00 00: 
             0x000000cc: 00 00 08 00: 
             0x000000d0: ca 00 00 00: 
             0x000000d4: 48 01 01 00: 
             0x000000d8: 00 00 00 00: 
             0x000000dc: 00 00 02 00: 
             0x000000e0: da 00 00 00: 
             0x000000e4: 00 00 00 00: 
             0x000000e8: 00 00 00 00: 
             0x000000ec: 04 00 f1 ff: 
             0x000000f0: e4 00 00 00: 
             0x000000f4: 00 00 01 00: 
             0x000000f8: 00 00 00 00: 
             0x000000fc: 12 00 09 00: 
             0x00000100: e9 00 00 00: 
             0x00000104: 00 00 01 00: 
             0x00000108: 00 00 00 00: 
             0x0000010c: 10 00 09 00: 
             0x00000110: f0 00 00 00: 
             0x00000114: 62 00 01 00: 
             0x00000118: 00 00 00 00: 
             0x0000011c: 00 00 09 00: 
             0x00000120: fd 00 00 00: 
             0x00000124: 50 01 01 00: 
             0x00000128: 00 00 00 00: 
             0x0000012c: 00 00 06 00: 
             0x00000130: 0e 01 00 00: 
             0x00000134: 7c 00 01 00: 
             0x00000138: 00 00 00 00: 
             0x0000013c: 00 00 09 00: 
             0x00000140: 1e 01 00 00: 
             0x00000144: 54 01 01 00: 
             0x00000148: 00 00 00 00: 
             0x0000014c: 00 00 06 00: 
             0x00000150: 27 01 00 00: 
             0x00000154: 8c 00 01 00: 
             0x00000158: 00 00 00 00: 
             0x0000015c: 00 00 09 00: 
             0x00000160: 31 01 00 00: 
             0x00000164: a8 00 01 00: 
             0x00000168: 00 00 00 00: 
             0x0000016c: 00 00 09 00: 
             0x00000170: 38 01 00 00: 
             0x00000174: b0 00 01 00: 
             0x00000178: 00 00 00 00: 
             0x0000017c: 00 00 09 00: 
             0x00000180: 44 01 00 00: 
             0x00000184: b6 00 01 00: 
             0x00000188: 00 00 00 00: 
             0x0000018c: 00 00 09 00: 
             0x00000190: 57 01 00 00: 
             0x00000194: d6 00 01 00: 
             0x00000198: 00 00 00 00: 
             0x0000019c: 00 00 09 00: 
             0x000001a0: 62 01 00 00: 
             0x000001a4: dc 00 01 00: 
             0x000001a8: 00 00 00 00: 
             0x000001ac: 00 00 09 00: 
             0x000001b0: 6a 01 00 00: 
             0x000001b4: f0 00 01 00: 
             0x000001b8: 00 00 00 00: 
             0x000001bc: 00 00 09 00: 
             0x000001c0: 78 01 00 00: 
             0x000001c4: 58 01 01 00: 
             0x000001c8: 00 00 00 00: 
             0x000001cc: 00 00 06 00: 
             0x000001d0: ca 00 00 00: 
             0x000001d4: 5c 01 01 00: 
             0x000001d8: 00 00 00 00: 
             0x000001dc: 00 00 06 00: 
             0x000001e0: 87 01 00 00: 
             0x000001e4: 20 01 01 00: 
             0x000001e8: 04 00 00 00: 
             0x000001ec: 12 00 09 00: 
             0x000001f0: 92 01 00 00: 
             0x000001f4: 00 00 00 00: 
             0x000001f8: 00 00 00 00: 
             0x000001fc: 04 00 f1 ff: 
             0x00000200: 9d 01 00 00: 
             0x00000204: 00 00 00 00: 
             0x00000208: 00 00 00 00: 
             0x0000020c: 04 00 f1 ff: 
             0x00000210: a7 01 00 00: 
             0x00000214: 00 00 00 00: 
             0x00000218: 00 00 00 00: 
             0x0000021c: 10 00 f1 ff: 
             0x00000220: be 01 00 00: 
             0x00000224: 00 00 00 00: 
             0x00000228: 00 00 00 00: 
             0x0000022c: 10 00 f1 ff: 
             0x00000230: d5 01 00 00: 
             0x00000234: 00 00 00 00: 
             0x00000238: 00 00 00 00: 
             0x0000023c: 10 00 f1 ff: 
             0x00000240: ea 01 00 00: 
             0x00000244: 00 00 00 00: 
             0x00000248: 00 00 00 00: 
             0x0000024c: 10 00 f1 ff: 
             0x00000250: fe 01 00 00: 
             0x00000254: 00 00 00 00: 
             0x00000258: 00 00 00 00: 
             0x0000025c: 04 00 f1 ff: 
             0x00000260: 0a 02 00 00: 
             0x00000264: 00 00 00 00: 
             0x00000268: 00 00 00 00: 
             0x0000026c: 04 00 f1 ff: 
             0x00000270: 15 02 00 00: 
             0x00000274: 60 01 01 00: 
             0x00000278: 00 00 00 00: 
             0x0000027c: 10 00 06 00: 
             0x00000280: 1f 02 00 00: 
             0x00000284: 64 01 01 00: 
             0x00000288: 00 00 00 00: 
             0x0000028c: 10 00 06 00: 
             0x00000290: 28 02 00 00: 
             0x00000294: 50 01 01 00: 
             0x00000298: 00 00 00 00: 
             0x0000029c: 10 00 01 00: 
             0x000002a0: 2e 02 00 00: 
             0x000002a4: 68 01 01 00: 
             0x000002a8: 00 00 00 00: 
             0x000002ac: 10 00 05 00: 
             0x000002b0: 37 02 00 00: 
             0x000002b4: 50 01 01 00: 
             0x000002b8: 00 00 00 00: 
             0x000002bc: 10 00 04 00: 
             0x000002c0: 42 02 00 00: 
             0x000002c4: 50 01 01 00: 
             0x000002c8: 00 00 00 00: 
             0x000002cc: 10 00 07 00: 
             0x000002d0: 4d 02 00 00: 
             0x000002d4: 00 00 01 00: 
             0x000002d8: 00 00 00 00: 
             0x000002dc: 10 00 f1 ff: 
             0x000002e0: 57 02 00 00: 
             0x000002e4: 00 00 01 00: 
             0x000002e8: 00 00 00 00: 
             0x000002ec: 10 00 f1 ff: 
             0x000002f0: 61 02 00 00: 
             0x000002f4: 48 01 01 00: 
             0x000002f8: 04 00 00 00: 
             0x000002fc: 00 00 02 00: 

Disassembly of section .strtab (size: 659)

             0x00000000: 00 2e 62 73: 
             0x00000004: 73 00 2e 63: 
             0x00000008: 70 2e 63 6f: 
             0x0000000c: 6e 73 74 34: 
             0x00000010: 00 2e 63 70: 
             0x00000014: 2e 72 6f 64: 
             0x00000018: 61 74 61 00: 
             0x0000001c: 2e 63 74 6f: 
             0x00000020: 72 73 00 2e: 
             0x00000024: 64 70 2e 62: 
             0x00000028: 73 73 00 2e: 
             0x0000002c: 64 70 2e 64: 
             0x00000030: 61 74 61 00: 
             0x00000034: 2e 64 74 6f: 
             0x00000038: 72 73 00 2e: 
             0x0000003c: 67 6c 6f 62: 
             0x00000040: 63 6f 64 65: 
             0x00000044: 00 2e 74 65: 
             0x00000048: 78 74 00 5f: 
             0x0000004c: 63 70 00 5f: 
             0x00000050: 64 70 00 5f: 
             0x00000054: 66 62 73 73: 
             0x00000058: 00 5f 66 64: 
             0x0000005c: 70 2e 62 73: 
             0x00000060: 73 00 5f 43: 
             0x00000064: 54 4f 52 5f: 
             0x00000068: 4c 49 53 54: 
             0x0000006c: 5f 00 5f 44: 
             0x00000070: 54 4f 52 5f: 
             0x00000074: 4c 49 53 54: 
             0x00000078: 5f 00 5f 78: 
             0x0000007c: 73 31 5f 74: 
             0x00000080: 69 6d 65 72: 
             0x00000084: 5f 68 7a 00: 
             0x00000088: 5f 64 65 66: 
             0x0000008c: 61 75 6c 74: 
             0x00000090: 5f 63 6c 6b: 
             0x00000094: 62 6c 6b 00: 
             0x00000098: 5f 5f 6d 61: 
             0x0000009c: 69 6e 5f 64: 
             0x000000a0: 65 66 61 75: 
             0x000000a4: 6c 74 5f 6e: 
             0x000000a8: 65 74 77 6f: 
             0x000000ac: 72 6b 00 66: 
             0x000000b0: 72 65 5f 67: 
             0x000000b4: 52 56 35 6c: 
             0x000000b8: 52 00 67 65: 
             0x000000bc: 74 41 6c 6c: 
             0x000000c0: 43 68 61 6e: 
             0x000000c4: 73 46 75 6e: 
             0x000000c8: 63 00 74 68: 
             0x000000cc: 69 73 43 68: 
             0x000000d0: 61 6e 65 6e: 
             0x000000d4: 64 5a 65 72: 
             0x000000d8: 6f 00 67 73: 
             0x000000dc: 5f 56 43 50: 
             0x000000e0: 61 68 56 00: 
             0x000000e4: 6d 61 69 6e: 
             0x000000e8: 00 5f 73 74: 
             0x000000ec: 61 72 74 00: 
             0x000000f0: 64 69 73 61: 
             0x000000f4: 62 6c 65 4c: 
             0x000000f8: 69 6e 6b 73: 
             0x000000fc: 00 74 72 65: 
             0x00000100: 65 4c 69 6e: 
             0x00000104: 6b 50 72 6f: 
             0x00000108: 67 56 61 6c: 
             0x0000010c: 32 00 73 65: 
             0x00000110: 74 44 69 6d: 
             0x00000114: 65 6e 73 69: 
             0x00000118: 6f 6e 52 65: 
             0x0000011c: 67 00 64 69: 
             0x00000120: 72 42 69 74: 
             0x00000124: 73 31 00 73: 
             0x00000128: 61 79 48 65: 
             0x0000012c: 6c 6c 6f 32: 
             0x00000130: 00 66 69 6e: 
             0x00000134: 69 73 68 00: 
             0x00000138: 64 6f 44 6f: 
             0x0000013c: 53 79 73 63: 
             0x00000140: 61 6c 6c 00: 
             0x00000144: 70 72 6f 67: 
             0x00000148: 53 77 69 74: 
             0x0000014c: 63 68 52 65: 
             0x00000150: 67 42 6c 69: 
             0x00000154: 6e 64 00 72: 
             0x00000158: 65 74 49 73: 
             0x0000015c: 56 61 6c 75: 
             0x00000160: 65 00 72 65: 
             0x00000164: 74 53 65 6e: 
             0x00000168: 74 00 72 65: 
             0x0000016c: 61 64 53 77: 
             0x00000170: 69 74 63 68: 
             0x00000174: 52 65 67 00: 
             0x00000178: 73 73 63 74: 
             0x0000017c: 72 6c 41 64: 
             0x00000180: 64 72 57 6f: 
             0x00000184: 72 64 00 5f: 
             0x00000188: 44 6f 53 79: 
             0x0000018c: 73 63 61 6c: 
             0x00000190: 6c 00 67 78: 
             0x00000194: 63 5f 6b 4b: 
             0x00000198: 69 46 67 34: 
             0x0000019c: 00 73 79 73: 
             0x000001a0: 63 61 6c 6c: 
             0x000001a4: 2e 53 00 5f: 
             0x000001a8: 44 6f 53 79: 
             0x000001ac: 73 63 61 6c: 
             0x000001b0: 6c 2e 6e 73: 
             0x000001b4: 74 61 63 6b: 
             0x000001b8: 77 6f 72 64: 
             0x000001bc: 73 00 5f 44: 
             0x000001c0: 6f 53 79 73: 
             0x000001c4: 63 61 6c 6c: 
             0x000001c8: 2e 6d 61 78: 
             0x000001cc: 63 68 61 6e: 
             0x000001d0: 65 6e 64 73: 
             0x000001d4: 00 5f 44 6f: 
             0x000001d8: 53 79 73 63: 
             0x000001dc: 61 6c 6c 2e: 
             0x000001e0: 6d 61 78 74: 
             0x000001e4: 69 6d 65 72: 
             0x000001e8: 73 00 5f 44: 
             0x000001ec: 6f 53 79 73: 
             0x000001f0: 63 61 6c 6c: 
             0x000001f4: 2e 6d 61 78: 
             0x000001f8: 63 6f 72 65: 
             0x000001fc: 73 00 69 72: 
             0x00000200: 78 63 5f 34: 
             0x00000204: 42 4e 34 56: 
             0x00000208: 61 00 73 6f: 
             0x0000020c: 64 5f 55 54: 
             0x00000210: 4f 4c 46 75: 
             0x00000214: 00 5f 5f 73: 
             0x00000218: 6f 64 46 6c: 
             0x0000021c: 61 67 00 5f: 
             0x00000220: 5f 73 6f 64: 
             0x00000224: 45 6e 64 00: 
             0x00000228: 5f 65 62 73: 
             0x0000022c: 73 00 5f 65: 
             0x00000230: 64 70 2e 62: 
             0x00000234: 73 73 00 5f: 
             0x00000238: 43 54 4f 52: 
             0x0000023c: 5f 45 4e 44: 
             0x00000240: 5f 00 5f 44: 
             0x00000244: 54 4f 52 5f: 
             0x00000248: 45 4e 44 5f: 
             0x0000024c: 00 2e 72 61: 
             0x00000250: 6d 5f 73 69: 
             0x00000254: 7a 65 00 2e: 
             0x00000258: 72 61 6d 5f: 
             0x0000025c: 62 61 73 65: 
             0x00000260: 00 2e 43 50: 
             0x00000264: 4d 30 00 2e: 
             0x00000268: 78 6d 6f 73: 
             0x0000026c: 6e 6f 74 65: 
             0x00000270: 00 66 7b 73: 
             0x00000274: 69 7d 28 30: 
             0x00000278: 29 00 75 69: 
             0x0000027c: 00 2e 65 78: 
             0x00000280: 70 72 00 2e: 
             0x00000284: 73 79 6d 74: 
             0x00000288: 61 62 00 2e: 
             0x0000028c: 73 74 72 74: 
             0x00000290: 61 62 00:    

Loadable 2 for stdcore[0] (node "0", tile 0):

Disassembly of section .text (size: 3882)

<_start>:
             0x00010000: 4b 68:       ldc (ru6)       r1, 0xb
             0x00010002: d1 fe ec 17: get (l2r)       r0, ps[r1]
             0x00010006: 04 f0 8b 68: ldc (lru6)      r2, 0x10b
             0x0001000a: c2 fe ec 1f: set (lr2r)      ps[r2], r0
             0x0001000e: 4a d0:       bl (u10)        0x4a <_SetupTraps>
             0x00010010: 0f d0:       bl (u10)        0xf <_GetRamEnd>
             0x00010012: f0 2f:       set (1r)        sp, r0
             0x00010014: 01 f0 82 77: extsp (lu6)     0x42
             0x00010018: 01 f0 ea db: ldap (lu10)     r11, 0x7ea <.label0>
             0x0001001c: fb 37:       set (1r)        cp, r11
             0x0001001e: 02 f0 2f d8: ldap (lu10)     r11, 0x82f <.label1>
             0x00010022: eb 37:       set (1r)        dp, r11
             0x00010024: c3 86:       getr (rus)      r0, 0x3

<_InitThreadLoop>:
             0x00010026: d4 06:       getst (2r)      r1, res[r0]
             0x00010028: b4 b0:       eq (2rus)       r11, r1, 0x0
             0x0001002a: cc 72:       bt (ru6)        r11, 0xc <_Join>
             0x0001002c: 1f d0:       bl (u10)        0x1f <_InitThread>
             0x0001002e: 05 77:       bu (u6)         -0x5 <_InitThreadLoop>

<_GetRamEnd>:
             0x00010030: cb 6a:       ldc (ru6)       r11, 0xb
             0x00010032: bb ff ec 17: get (l2r)       r10, ps[r11]
             0x00010036: 01 f0 c7 db: ldap (lu10)     r11, 0x7c7 <.label2>
             0x0001003a: 3c 0a:       ldw (2rus)      r11, r11[0x0]
             0x0001003c: 0b 16:       add (3r)        r0, r10, r11
             0x0001003e: c0 77:       retsp (u6)      0x0

<_ExitWithError>:
             0x00010040: 15 f0 31 73: bu (lu6)        0x571 <_exit>

<_Join>:
             0x00010044: f0 1f:       msync (1r)      res[r0]
             0x00010046: f0 17:       mjoin (1r)      res[r0]
             0x00010048: e0 17:       freer (1r)      res[r0]
             0x0001004a: 1f d0:       bl (u10)        0x1f <_TouchRegisters>
             0x0001004c: 01 f0 6d d3: bl (lu10)       0x76d <.label3>
             0x00010050: 00 f0 c6 6a: ldc (lru6)      r11, 0x6
             0x00010054: c8 ea:       setc (ru6)      res[r11], 0x8
             0x00010056: cf ea:       setc (ru6)      res[r11], 0xf
             0x00010058: 00 68:       ldc (ru6)       r0, 0x0
             0x0001005a: 00 f0 40 60: ldaw (lru6)     r1, dp[0x0]
             0x0001005e: 00 f0 58 d0: bl (lu10)       0x58 <main>
             0x00010062: 02 70:       bt (ru6)        r0, 0x2 <_NonZeroReturn>
             0x00010064: 15 f0 14 73: bu (lu6)        0x554 <__libc_done>

<_NonZeroReturn>:
             0x00010068: 15 f0 24 73: bu (lu6)        0x564 <_exit_unlocked>

<_InitThread>:
             0x0001006c: 01 f0 c0 db: ldap (lu10)     r11, 0x7c0 <.label0>
             0x00010070: 4d 1f:       init (2r)       t[r1]:cp, r11
             0x00010072: 02 f0 05 d8: ldap (lu10)     r11, 0x805 <.label1>
             0x00010076: 4d 0f:       init (2r)       t[r1]:dp, r11
             0x00010078: 05 d8:       ldap (u10)      r11, 0x5 <_InitThreadRoutine>
             0x0001007a: 4d 07:       init (2r)       t[r1]:pc, r11
             0x0001007c: c0 77:       retsp (u6)      0x0
             0x0001007e: 00 90:       add (2rus)      r0, r0, 0x0

<_TrapHandler>:
             0x00010080: 14 f0 3f 73: bu (lu6)        0x53f <_DoException>

<_InitThreadRoutine>:
             0x00010084: 02 d0:       bl (u10)        0x2 <_TouchRegisters>
             0x00010086: 0e d0:       bl (u10)        0xe <_SetupTraps>
             0x00010088: ee 07:       ssync (0r)      

<_TouchRegisters>:
             0x0001008a: 00 68:       ldc (ru6)       r0, 0x0
             0x0001008c: 40 68:       ldc (ru6)       r1, 0x0
             0x0001008e: 80 68:       ldc (ru6)       r2, 0x0
             0x00010090: c0 68:       ldc (ru6)       r3, 0x0
             0x00010092: 00 69:       ldc (ru6)       r4, 0x0
             0x00010094: 40 69:       ldc (ru6)       r5, 0x0
             0x00010096: 80 69:       ldc (ru6)       r6, 0x0
             0x00010098: c0 69:       ldc (ru6)       r7, 0x0
             0x0001009a: 00 6a:       ldc (ru6)       r8, 0x0
             0x0001009c: 40 6a:       ldc (ru6)       r9, 0x0
             0x0001009e: 80 6a:       ldc (ru6)       r10, 0x0
             0x000100a0: c0 6a:       ldc (ru6)       r11, 0x0
             0x000100a2: c0 77:       retsp (u6)      0x0

<_SetupTraps>:
             0x000100a4: 13 dc:       ldap (u10)      r11, -0x13 <_TrapHandler>
             0x000100a6: ff 07:       set (0r)        kep, r11
             0x000100a8: c0 77:       retsp (u6)      0x0

<__register_frame_info_bases>:
<__free_libc_hwlock>:
.label97     0x000100aa: c0 77:       retsp (u6)      0x0

<__initLinks>:
             0x000100ac: 43 77:       entsp (u6)      0x3
             0x000100ae: 02 55:       stw (ru6)       r4, sp[0x2]
             0x000100b0: 41 55:       stw (ru6)       r5, sp[0x1]
             0x000100b2: 00 f0 46 d0: bl (lu10)       0x46 <io_redirect>
             0x000100b6: 00 f0 00 6c: ldw (lru6)      r0, cp[0x0]
             0x000100ba: 00 f0 69 d0: bl (lu10)       0x69 <getChanend>
             0x000100be: 40 90:       add (2rus)      r4, r0, 0x0
             0x000100c0: 80 b7:       in (2r)         r0, res[r4]
             0x000100c2: 01 f0 25 50: stw (lru6)      r0, dp[0x65]
             0x000100c6: 80 b7:       in (2r)         r0, res[r4]
             0x000100c8: 01 f0 26 50: stw (lru6)      r0, dp[0x66]
             0x000100cc: 42 68:       ldc (ru6)       r1, 0x2
             0x000100ce: 24 f8 ec cf: remu (l3r)      r2, r1, r0
             0x000100d2: 51 69:       ldc (ru6)       r5, 0x11
             0x000100d4: 69 22:       shl (3r)        r2, r2, r5
             0x000100d6: 04 f8 ec 4f: divu (l3r)      r0, r1, r0
             0x000100da: 82 a4:       shl (2rus)      r0, r0, 0x18
             0x000100dc: 02 40:       or (3r)         r0, r0, r2
             0x000100de: 08 f0 42 68: ldc (lru6)      r1, 0x202
             0x000100e2: 01 40:       or (3r)         r0, r0, r1
             0x000100e4: 00 f0 54 d0: bl (lu10)       0x54 <getChanend>
             0x000100e8: e0 4f:       ecallf (1r)     r0
             0x000100ea: 04 68:       ldc (ru6)       r0, 0x4
             0x000100ec: 01 f0 a6 58: ldw (lru6)      r2, dp[0x66]
             0x000100f0: 12 f8 ec cf: remu (l3r)      r1, r0, r2
             0x000100f4: 55 22:       shl (3r)        r1, r1, r5
             0x000100f6: 02 f8 ec 4f: divu (l3r)      r0, r0, r2
             0x000100fa: 82 a4:       shl (2rus)      r0, r0, 0x18
             0x000100fc: 01 40:       or (3r)         r0, r0, r1
             0x000100fe: 04 f0 42 68: ldc (lru6)      r1, 0x102
             0x00010102: 01 40:       or (3r)         r0, r0, r1
             0x00010104: 00 f0 44 d0: bl (lu10)       0x44 <getChanend>
             0x00010108: e0 4f:       ecallf (1r)     r0
             0x0001010a: 11 cf:       chkct (rus)     res[r4], 0x1
             0x0001010c: 41 5d:       ldw (ru6)       r5, sp[0x1]
             0x0001010e: 02 5d:       ldw (ru6)       r4, sp[0x2]
             0x00010110: c3 77:       retsp (u6)      0x3

<main>:
             0x00010112: 41 77:       entsp (u6)      0x1
             0x00010114: 35 d4:       bl (u10)        -0x35 <__initLinks>
             0x00010116: d2 a6:       mkmsk (rus)     r0, 0x2
             0x00010118: 01 f0 66 58: ldw (lru6)      r1, dp[0x66]
             0x0001011c: 21 f8 ec cf: remu (l3r)      r2, r0, r1
             0x00010120: d1 68:       ldc (ru6)       r3, 0x11
             0x00010122: 2b 20:       shl (3r)        r2, r2, r3
             0x00010124: 01 f8 ec 4f: divu (l3r)      r0, r0, r1
             0x00010128: 82 a4:       shl (2rus)      r0, r0, 0x18
             0x0001012a: 18 40:       or (3r)         r1, r2, r0
             0x0001012c: 04 f0 02 68: ldc (lru6)      r0, 0x102
             0x00010130: 04 40:       or (3r)         r0, r1, r0
             0x00010132: 08 f0 82 68: ldc (lru6)      r2, 0x202
             0x00010136: 16 40:       or (3r)         r1, r1, r2
             0x00010138: 00 f0 45 d2: bl (lu10)       0x245 <nOS_start> <nOS_start.coersed..f.7b0.7d.28chd.2cchd.29>
             0x0001013c: ef 07:       freet (0r)      
             0x0001013e: 00 68:       ldc (ru6)       r0, 0x0
             0x00010140: c1 77:       retsp (u6)      0x1

<io_redirect>:
             0x00010142: 41 77:       entsp (u6)      0x1
             0x00010144: 00 55:       stw (ru6)       r4, sp[0x0]
             0x00010146: 01 f0 61 d9: ldap (lu10)     r11, 0x561 <_write> <_write.coersed..f.7bsi.7d.28si.2cp.28c.3auc.29.2cui.29>
             0x0001014a: 8c 91:       add (2rus)      r0, r11, 0x0
             0x0001014c: 00 f0 26 d8: ldap (lu10)     r11, 0x26 <_write_intercept_asm>
             0x00010150: 9c 91:       add (2rus)      r1, r11, 0x0
             0x00010152: 34 18:       sub (3r)        r3, r1, r0
             0x00010154: fc 9a:       sub (2rus)      r11, r3, 0x4
             0x00010156: 40 68:       ldc (ru6)       r1, 0x0
             0x00010158: a7 c4:       lss (3r)        r2, r1, r11
             0x0001015a: 82 70:       bt (ru6)        r2, 0x2 <.label4>
             0x0001015c: c4 6a:       ldc (ru6)       r11, 0x4
             0x0001015e: 3f 1a:       sub (3r)        r11, r11, r3
.label4      0x00010160: c9 68:       ldc (ru6)       r3, 0x9
             0x00010162: bf 21:       shl (3r)        r3, r11, r3
             0x00010164: 00 f0 01 6d: ldw (lru6)      r4, cp[0x1]
             0x00010168: 7c 3a:       and (3r)        r3, r3, r4
             0x0001016a: 3d aa:       shr (2rus)      r11, r11, 0x1
             0x0001016c: fe 46:       zext (rus)      r11, 0x6
             0x0001016e: 83 78:       bf (ru6)        r2, 0x3 <.label5>
             0x00010170: 00 f0 83 6c: ldw (lru6)      r2, cp[0x3]
             0x00010174: 02 73:       bu (u6)         0x2 <.label6>
.label5      0x00010176: 00 f0 82 6c: ldw (lru6)      r2, cp[0x2]
.label6      0x0001017a: ae 41:       or (3r)         r2, r11, r2
             0x0001017c: 2b 40:       or (3r)         r2, r2, r3
             0x0001017e: b9 ac:       shr (2rus)      r3, r2, 0x10
             0x00010180: 5d a7:       mkmsk (rus)     r11, 0x1
             0x00010182: 31 f8 ec 87: st16 (l3r)      r3, r0[r1]
             0x00010186: a3 fc ec 87: st16 (l3r)      r2, r0[r11]
             0x0001018a: 00 5d:       ldw (ru6)       r4, sp[0x0]
             0x0001018c: c1 77:       retsp (u6)      0x1
             0x0001018e: 00 00:       stw (2rus)      r0, r0[0x0]

<getChanend>:
             0x00010190: c6 86:       getr (rus)      r1, 0x2
             0x00010192: 41 78:       bf (ru6)        r1, 0x1 <retGetChanend>
             0x00010194: d1 16:       setd (r2r)      res[r1], r0

<retGetChanend>:
             0x00010196: 04 90:       add (2rus)      r0, r1, 0x0
             0x00010198: c0 77:       retsp (u6)      0x0
             0x0001019a: 00 90:       add (2rus)      r0, r0, 0x0

<_write_intercept_asm>:
             0x0001019c: 00 f0 21 50: stw (lru6)      r0, dp[0x21]
             0x000101a0: 00 f0 62 50: stw (lru6)      r1, dp[0x22]
             0x000101a4: 00 f0 a3 50: stw (lru6)      r2, dp[0x23]
             0x000101a8: 00 f0 e4 50: stw (lru6)      r3, dp[0x24]
             0x000101ac: 00 f0 25 51: stw (lru6)      r4, dp[0x25]
             0x000101b0: 00 f0 66 51: stw (lru6)      r5, dp[0x26]
             0x000101b4: 00 f0 a7 51: stw (lru6)      r6, dp[0x27]
             0x000101b8: 00 f0 e8 51: stw (lru6)      r7, dp[0x28]
             0x000101bc: 00 f0 29 52: stw (lru6)      r8, dp[0x29]
             0x000101c0: 00 f0 6a 52: stw (lru6)      r9, dp[0x2a]
             0x000101c4: 00 f0 ab 52: stw (lru6)      r10, dp[0x2b]
             0x000101c8: 00 f0 ec 52: stw (lru6)      r11, dp[0x2c]
             0x000101cc: 00 f2 c1 68: ldc (lru6)      r3, 0x8001
             0x000101d0: 0c f0 02 69: ldc (lru6)      r4, 0x302
             0x000101d4: bd a4:       shl (2rus)      r3, r3, 0x10
             0x000101d6: 7c 42:       or (3r)         r3, r3, r4
             0x000101d8: c2 86:       getr (rus)      r0, 0x2
             0x000101da: dc 16:       setd (r2r)      res[r0], r3
             0x000101dc: c0 ae:       out (r2r)       res[r0], r0
             0x000101de: 00 b7:       in (2r)         r4, res[r0]
             0x000101e0: f3 30:       eq (3r)         r3, r4, r3
             0x000101e2: e3 4f:       ecallf (1r)     r3
             0x000101e4: c1 68:       ldc (ru6)       r3, 0x1
             0x000101e6: dc 0e:       outt (r2r)      res[r0], r3
             0x000101e8: c8 ae:       out (r2r)       res[r0], r2
             0x000101ea: c0 68:       ldc (ru6)       r3, 0x0

<_write_intercept_loop>:
             0x000101ec: 47 88:       ld8u (3r)       r4, r1[r3]
             0x000101ee: 10 0f:       outt (r2r)      res[r0], r4
             0x000101f0: 3d 90:       add (2rus)      r3, r3, 0x1
             0x000101f2: 4e c8:       lsu (3r)        r4, r3, r2
             0x000101f4: 05 75:       bt (ru6)        r4, -0x5 <_write_intercept_loop>

<_write_intercept_end>:
             0x000101f6: d1 4e:       outct (rus)     res[r0], 0x1
             0x000101f8: d1 ce:       chkct (rus)     res[r0], 0x1
             0x000101fa: e0 17:       freer (1r)      res[r0]
             0x000101fc: 00 f0 21 58: ldw (lru6)      r0, dp[0x21]
             0x00010200: 00 f0 62 58: ldw (lru6)      r1, dp[0x22]
             0x00010204: 00 f0 a3 58: ldw (lru6)      r2, dp[0x23]
             0x00010208: 00 f0 e4 58: ldw (lru6)      r3, dp[0x24]
             0x0001020c: 00 f0 25 59: ldw (lru6)      r4, dp[0x25]
             0x00010210: 00 f0 66 59: ldw (lru6)      r5, dp[0x26]
             0x00010214: 00 f0 a7 59: ldw (lru6)      r6, dp[0x27]
             0x00010218: 00 f0 e8 59: ldw (lru6)      r7, dp[0x28]
             0x0001021c: 00 f0 29 5a: ldw (lru6)      r8, dp[0x29]
             0x00010220: 00 f0 6a 5a: ldw (lru6)      r9, dp[0x2a]
             0x00010224: 00 f0 ab 5a: ldw (lru6)      r10, dp[0x2b]
             0x00010228: 00 f0 ec 5a: ldw (lru6)      r11, dp[0x2c]
             0x0001022c: 00 68:       ldc (ru6)       r0, 0x0
             0x0001022e: c0 77:       retsp (u6)      0x0

<delay_execution>:
             0x00010230: c1 86:       getr (rus)      r0, 0x1
             0x00010232: 01 e8:       setc (ru6)      res[r0], 0x1
             0x00010234: c4 b6:       in (2r)         r1, res[r0]
             0x00010236: 00 f0 84 6c: ldw (lru6)      r2, cp[0x4]
             0x0001023a: 16 10:       add (3r)        r1, r1, r2
             0x0001023c: d4 16:       setd (r2r)      res[r0], r1
             0x0001023e: 09 e8:       setc (ru6)      res[r0], 0x9
             0x00010240: c4 b6:       in (2r)         r1, res[r0]
             0x00010242: e0 17:       freer (1r)      res[r0]
             0x00010244: c0 77:       retsp (u6)      0x0

<nodeIndexToId>:
             0x00010246: 31 47:       zext (rus)      r0, 0x10
             0x00010248: 01 f0 66 58: ldw (lru6)      r1, dp[0x66]
             0x0001024c: 21 f8 ec cf: remu (l3r)      r2, r0, r1
             0x00010250: d1 68:       ldc (ru6)       r3, 0x11
             0x00010252: 2b 20:       shl (3r)        r2, r2, r3
             0x00010254: 01 f8 ec 4f: divu (l3r)      r0, r0, r1
             0x00010258: 82 a4:       shl (2rus)      r0, r0, 0x18
             0x0001025a: 08 40:       or (3r)         r0, r2, r0
             0x0001025c: c0 77:       retsp (u6)      0x0

<getNewChannel>:
             0x0001025e: c2 86:       getr (rus)      r0, 0x2
             0x00010260: c0 77:       retsp (u6)      0x0

<connectChannel>:
             0x00010262: d4 16:       setd (r2r)      res[r0], r1
             0x00010264: d1 4e:       outct (rus)     res[r0], 0x1
             0x00010266: c0 ae:       out (r2r)       res[r0], r0
             0x00010268: d1 ce:       chkct (rus)     res[r0], 0x1
             0x0001026a: d1 4e:       outct (rus)     res[r0], 0x1
             0x0001026c: c0 77:       retsp (u6)      0x0

<getSpecificLocalChannel>:
             0x0001026e: 63 77:       entsp (u6)      0x23
             0x00010270: 22 55:       stw (ru6)       r4, sp[0x22]
             0x00010272: 61 55:       stw (ru6)       r5, sp[0x21]
             0x00010274: c0 a4:       shl (2rus)      r4, r0, 0x8
             0x00010276: 01 f0 1f d1: bl (lu10)       0x51f <get_local_tile_id>
             0x0001027a: 81 a4:       shl (2rus)      r0, r0, 0x10
             0x0001027c: c0 40:       or (3r)         r0, r4, r0
             0x0001027e: 42 68:       ldc (ru6)       r1, 0x2
             0x00010280: b1 40:       or (3r)         r11, r0, r1
             0x00010282: 00 68:       ldc (ru6)       r0, 0x0
             0x00010284: 99 a7:       mkmsk (rus)     r2, 0x5
             0x00010286: c1 64:       ldaw (ru6)      r3, sp[0x1]
.label7      0x00010288: 40 90:       add (2rus)      r4, r0, 0x0
             0x0001028a: 98 ca:       lsu (3r)        r5, r2, r4
             0x0001028c: c2 86:       getr (rus)      r0, 0x2
             0x0001028e: 10 90:       add (2rus)      r1, r0, 0x0
             0x00010290: f5 4f:       ecallt (1r)     r5
             0x00010292: 5c fa ec 07: stw (l3r)       r1, r3[r4]
             0x00010296: d7 34:       eq (3r)         r5, r1, r11
             0x00010298: c1 90:       add (2rus)      r0, r4, 0x1
             0x0001029a: 4a 7d:       bf (ru6)        r5, -0xa <.label7>
             0x0001029c: c1 98:       sub (2rus)      r0, r4, 0x1
             0x0001029e: b0 f8 ec 97: ashr (l2rus)    r11, r0, 0x20
             0x000102a2: c8 72:       bt (ru6)        r11, 0x8 <.label8>
.label9      0x000102a4: b8 c8:       lsu (3r)        r11, r2, r0
             0x000102a6: fb 4f:       ecallt (1r)     r11
             0x000102a8: bc 48:       ldw (3r)        r11, r3[r0]
             0x000102aa: eb 17:       freer (1r)      res[r11]
             0x000102ac: 01 98:       sub (2rus)      r0, r0, 0x1
             0x000102ae: b0 f8 ec 97: ashr (l2rus)    r11, r0, 0x20
             0x000102b2: c8 7e:       bf (ru6)        r11, -0x8 <.label9>
.label8      0x000102b4: 04 90:       add (2rus)      r0, r1, 0x0
             0x000102b6: 61 5d:       ldw (ru6)       r5, sp[0x21]
             0x000102b8: 22 5d:       ldw (ru6)       r4, sp[0x22]
             0x000102ba: e3 77:       retsp (u6)      0x23

<channelListen>:
             0x000102bc: d1 ce:       chkct (rus)     res[r0], 0x1
             0x000102be: c4 b6:       in (2r)         r1, res[r0]
             0x000102c0: d4 16:       setd (r2r)      res[r0], r1
             0x000102c2: d1 4e:       outct (rus)     res[r0], 0x1
             0x000102c4: d1 ce:       chkct (rus)     res[r0], 0x1
             0x000102c6: 04 90:       add (2rus)      r0, r1, 0x0
             0x000102c8: c0 77:       retsp (u6)      0x0

<ChanIntHandler>:
             0x000102ca: c0 f2 0a 68: ldc (lru6)      r0, 0xb00a
             0x000102ce: 01 f0 27 d1: bl (lu10)       0x527 <printhexln>
             0x000102d2: fe 0f:       get (0r)        r11, ed
             0x000102d4: 01 68:       ldc (ru6)       r0, 0x1
             0x000102d6: 4c cf:       chkct (2r)      res[r11], r0
             0x000102d8: 08 dc:       ldap (u10)      r11, -0x8 <ChanIntHandler>
             0x000102da: c1 56:       stw (ru6)       r11, sp[0x1]
             0x000102dc: ec 0f:       ldw (0r)        spc, sp[1]
             0x000102de: fd 07:       kret (0r)       

<nOS_requestAction>:
             0x000102e0: 40 77:       entsp (u6)      0x0
             0x000102e2: 4e 87:       getr (rus)      r11, 0x2
             0x000102e4: eb 4f:       ecallf (1r)     r11
             0x000102e6: 33 17:       setd (r2r)      res[r11], r0
             0x000102e8: 5f 4f:       outct (rus)     res[r11], 0x3
             0x000102ea: af af:       out (r2r)       res[r11], r11
             0x000102ec: 5d cf:       chkct (rus)     res[r11], 0x1
             0x000102ee: 27 af:       out (r2r)       res[r11], r1
             0x000102f0: 2b af:       out (r2r)       res[r11], r2
             0x000102f2: 2f af:       out (r2r)       res[r11], r3
             0x000102f4: 01 5c:       ldw (ru6)       r0, sp[0x1]
             0x000102f6: 23 af:       out (r2r)       res[r11], r0
             0x000102f8: 23 b7:       in (2r)         r0, res[r11]
             0x000102fa: 5d cf:       chkct (rus)     res[r11], 0x1
             0x000102fc: 5d 4f:       outct (rus)     res[r11], 0x1
             0x000102fe: eb 17:       freer (1r)      res[r11]
             0x00010300: c0 77:       retsp (u6)      0x0

<nOS_listenForAction>:
             0x00010302: 45 77:       entsp (u6)      0x5
             0x00010304: 41 54:       stw (ru6)       r1, sp[0x1]
             0x00010306: 82 54:       stw (ru6)       r2, sp[0x2]
             0x00010308: d3 ce:       chkct (rus)     res[r0], 0x3
             0x0001030a: 4c b7:       in (2r)         r11, res[r0]
             0x0001030c: 5c 17:       setd (r2r)      res[r0], r11
             0x0001030e: c4 56:       stw (ru6)       r11, sp[0x4]
             0x00010310: d1 4e:       outct (rus)     res[r0], 0x1
             0x00010312: b0 90:       add (2rus)      r11, r0, 0x0
             0x00010314: 23 b7:       in (2r)         r0, res[r11]
             0x00010316: 27 b7:       in (2r)         r1, res[r11]
             0x00010318: 2b b7:       in (2r)         r2, res[r11]
             0x0001031a: 2f b7:       in (2r)         r3, res[r11]
             0x0001031c: c3 56:       stw (ru6)       r11, sp[0x3]
             0x0001031e: 00 f0 e9 d1: bl (lu10)       0x1e9 <nOS_doAction>
             0x00010322: c3 5e:       ldw (ru6)       r11, sp[0x3]
             0x00010324: 23 af:       out (r2r)       res[r11], r0
             0x00010326: 5d 4f:       outct (rus)     res[r11], 0x1
             0x00010328: 5d cf:       chkct (rus)     res[r11], 0x1
             0x0001032a: c5 77:       retsp (u6)      0x5

<nOS_createThread>:
             0x0001032c: 42 77:       entsp (u6)      0x2
             0x0001032e: c1 54:       stw (ru6)       r3, sp[0x1]
             0x00010330: 8c 87:       getr (rus)      r3, 0x4
             0x00010332: c7 06:       init (2r)       t[r3]:pc, r1
             0x00010334: 00 f0 40 7f: ldaw (lu6)      r11, cp[0x0]
             0x00010338: 4f 1f:       init (2r)       t[r3]:cp, r11
             0x0001033a: 00 f0 64 7f: ldaw (lu6)      r11, cp[0x24]
             0x0001033e: 4f 0f:       init (2r)       t[r3]:dp, r11
             0x00010340: 1b d8:       ldap (u10)      r11, 0x1b <nOS_threadFree>
             0x00010342: 4f ff ec 17: init (l2r)      t[r3]:lr, r11
             0x00010346: 9c ac:       shr (2rus)      r1, r3, 0x8
             0x00010348: 03 f0 ff 6a: ldc (lru6)      r11, 0xff
             0x0001034c: 97 3c:       and (3r)        r1, r1, r11
             0x0001034e: 15 90:       add (2rus)      r1, r1, 0x1
             0x00010350: 20 f0 c0 6a: ldc (lru6)      r11, 0x800
             0x00010354: 97 fc ec 3f: mul (l3r)       r1, r1, r11
             0x00010358: c1 5e:       ldw (ru6)       r11, sp[0x1]
             0x0001035a: 97 14:       add (3r)        r1, r1, r11
             0x0001035c: 03 b8:       set (3r)        t[r3]:r0, r0
             0x0001035e: c7 16:       init (2r)       t[r3]:sp, r1
             0x00010360: 1b b8:       set (3r)        t[r3]:r1, r2
             0x00010362: e3 1f:       start (1r)      t[r3]
             0x00010364: 9c ac:       shr (2rus)      r1, r3, 0x8
             0x00010366: 03 f0 3f 68: ldc (lru6)      r0, 0xff
             0x0001036a: 14 38:       and (3r)        r1, r1, r0
             0x0001036c: ff f3 3f 68: ldc (lru6)      r0, 0xffff
             0x00010370: 81 a4:       shl (2rus)      r0, r0, 0x10
             0x00010372: 3c 38:       and (3r)        r3, r3, r0
             0x00010374: 07 40:       or (3r)         r0, r1, r3
             0x00010376: c2 77:       retsp (u6)      0x2

<nOS_threadFree>:
             0x00010378: ef 07:       freet (0r)      

<GetLock>:
             0x0001037a: 81 87:       getr (rus)      r0, 0x5
             0x0001037c: c0 77:       retsp (u6)      0x0

<ClaimLock>:
             0x0001037e: c0 b6:       in (2r)         r0, res[r0]
             0x00010380: c0 77:       retsp (u6)      0x0

<FreeLock>:
             0x00010382: c0 ae:       out (r2r)       res[r0], r0
             0x00010384: c0 77:       retsp (u6)      0x0

<FreerLock>:
             0x00010386: e0 17:       freer (1r)      res[r0]
             0x00010388: c0 77:       retsp (u6)      0x0

<client_connectNewLocalChannel>:
             0x0001038a: 45 77:       entsp (u6)      0x5
             0x0001038c: 04 55:       stw (ru6)       r4, sp[0x4]
             0x0001038e: 43 55:       stw (ru6)       r5, sp[0x3]
             0x00010390: 82 55:       stw (ru6)       r6, sp[0x2]
             0x00010392: 44 90:       add (2rus)      r4, r1, 0x0
             0x00010394: 50 90:       add (2rus)      r5, r0, 0x0
             0x00010396: 01 f0 8f d0: bl (lu10)       0x48f <get_local_tile_id>
             0x0001039a: 81 a4:       shl (2rus)      r0, r0, 0x10
             0x0001039c: 7c f0 42 68: ldc (lru6)      r1, 0x1f02
             0x000103a0: 61 40:       or (3r)         r6, r0, r1
             0x000103a2: 00 f0 b0 d3: bl (lu10)       0x3b0 <__builtin_getid>
             0x000103a6: 81 a4:       shl (2rus)      r0, r0, 0x10
             0x000103a8: 61 42:       or (3r)         r2, r0, r5
             0x000103aa: 00 68:       ldc (ru6)       r0, 0x0
             0x000103ac: 01 54:       stw (ru6)       r0, sp[0x1]
             0x000103ae: d5 a6:       mkmsk (rus)     r1, 0x1
             0x000103b0: c8 90:       add (2rus)      r0, r6, 0x0
             0x000103b2: f0 90:       add (2rus)      r3, r4, 0x0
             0x000103b4: 00 f0 6c d4: bl (lu10)       -0x6c <nOS_requestAction>
             0x000103b8: 82 5d:       ldw (ru6)       r6, sp[0x2]
             0x000103ba: 43 5d:       ldw (ru6)       r5, sp[0x3]
             0x000103bc: 04 5d:       ldw (ru6)       r4, sp[0x4]
             0x000103be: c5 77:       retsp (u6)      0x5

<client_allocateNewLocalChannel>:
             0x000103c0: 44 77:       entsp (u6)      0x4
             0x000103c2: 03 55:       stw (ru6)       r4, sp[0x3]
             0x000103c4: 42 55:       stw (ru6)       r5, sp[0x2]
             0x000103c6: 40 90:       add (2rus)      r4, r0, 0x0
             0x000103c8: 01 f0 76 d0: bl (lu10)       0x476 <get_local_tile_id>
             0x000103cc: 81 a4:       shl (2rus)      r0, r0, 0x10
             0x000103ce: 7c f0 42 68: ldc (lru6)      r1, 0x1f02
             0x000103d2: 51 40:       or (3r)         r5, r0, r1
             0x000103d4: 00 f0 97 d3: bl (lu10)       0x397 <__builtin_getid>
             0x000103d8: 81 a4:       shl (2rus)      r0, r0, 0x10
             0x000103da: 60 42:       or (3r)         r2, r0, r4
             0x000103dc: c0 68:       ldc (ru6)       r3, 0x0
             0x000103de: c1 54:       stw (ru6)       r3, sp[0x1]
             0x000103e0: c4 90:       add (2rus)      r0, r5, 0x0
             0x000103e2: 1c 90:       add (2rus)      r1, r3, 0x0
             0x000103e4: 00 f0 84 d4: bl (lu10)       -0x84 <nOS_requestAction>
             0x000103e8: 42 5d:       ldw (ru6)       r5, sp[0x2]
             0x000103ea: 03 5d:       ldw (ru6)       r4, sp[0x3]
             0x000103ec: c4 77:       retsp (u6)      0x4

<client_lookupSpecificChanend>:
             0x000103ee: 47 77:       entsp (u6)      0x7
             0x000103f0: 06 55:       stw (ru6)       r4, sp[0x6]
             0x000103f2: 45 55:       stw (ru6)       r5, sp[0x5]
             0x000103f4: 84 55:       stw (ru6)       r6, sp[0x4]
             0x000103f6: 48 90:       add (2rus)      r4, r2, 0x0
             0x000103f8: 54 90:       add (2rus)      r5, r1, 0x0
             0x000103fa: 00 f0 dc d4: bl (lu10)       -0xdc <nodeIndexToId>
             0x000103fe: 60 90:       add (2rus)      r6, r0, 0x0
             0x00010400: 01 f0 5a d0: bl (lu10)       0x45a <get_local_tile_id>
             0x00010404: 02 54:       stw (ru6)       r0, sp[0x2]
             0x00010406: 83 55:       stw (ru6)       r6, sp[0x3]
             0x00010408: 42 64:       ldaw (ru6)      r1, sp[0x2]
             0x0001040a: 82 68:       ldc (ru6)       r2, 0x2
             0x0001040c: 08 90:       add (2rus)      r0, r2, 0x0
             0x0001040e: 01 f0 b7 d2: bl (lu10)       0x6b7 <.label10>
             0x00010412: 7c f0 02 68: ldc (lru6)      r0, 0x1f02
             0x00010416: c8 40:       or (3r)         r0, r6, r0
             0x00010418: 55 a5:       shl (2rus)      r1, r5, 0x10
             0x0001041a: 64 42:       or (3r)         r2, r1, r4
             0x0001041c: c0 68:       ldc (ru6)       r3, 0x0
             0x0001041e: c1 54:       stw (ru6)       r3, sp[0x1]
             0x00010420: 45 68:       ldc (ru6)       r1, 0x5
             0x00010422: 00 f0 a3 d4: bl (lu10)       -0xa3 <nOS_requestAction>
             0x00010426: 84 5d:       ldw (ru6)       r6, sp[0x4]
             0x00010428: 45 5d:       ldw (ru6)       r5, sp[0x5]
             0x0001042a: 06 5d:       ldw (ru6)       r4, sp[0x6]
             0x0001042c: c7 77:       retsp (u6)      0x7

<getStartAddress>:
             0x0001042e: 42 77:       entsp (u6)      0x2
             0x00010430: 00 f0 d2 d9: ldap (lu10)     r11, 0x1d2 <prim_child>
             0x00010434: c0 56:       stw (ru6)       r11, sp[0x0]
             0x00010436: c1 56:       stw (ru6)       r11, sp[0x1]
             0x00010438: 40 64:       ldaw (ru6)      r1, sp[0x0]
             0x0001043a: 04 48:       ldw (3r)        r0, r1[r0]
             0x0001043c: c2 77:       retsp (u6)      0x2

<check_maze>:
<check_maze.coersed..f.7bui.7d.28ui.2cp.28a.2810.3aui.29.29.2cui.2cui.2cui.2cui.2cui.29>:
             0x0001043e: 44 77:       entsp (u6)      0x4
             0x00010440: c7 5e:       ldw (ru6)       r11, sp[0x7]
             0x00010442: c3 56:       stw (ru6)       r11, sp[0x3]
             0x00010444: c6 5e:       ldw (ru6)       r11, sp[0x6]
             0x00010446: c2 56:       stw (ru6)       r11, sp[0x2]
             0x00010448: c5 5e:       ldw (ru6)       r11, sp[0x5]
             0x0001044a: c1 56:       stw (ru6)       r11, sp[0x1]
             0x0001044c: 01 f0 4e d1: bl (lu10)       0x54e <xc_check_maze.coersed..f.7bui.7d.28ui.2cp.28a.2810.3aui.29.29.2cui.2cui.2cui.2cui.2cui.29>
             0x00010450: c4 77:       retsp (u6)      0x4

<listen_check_wall>:
             0x00010452: 05 f0 55 77: entsp (lu6)     0x155
             0x00010456: 05 f0 14 55: stw (lru6)      r4, sp[0x154]
             0x0001045a: 05 f0 53 55: stw (lru6)      r5, sp[0x153]
             0x0001045e: 05 f0 92 55: stw (lru6)      r6, sp[0x152]
             0x00010462: 05 f0 d1 55: stw (lru6)      r7, sp[0x151]
             0x00010466: 05 f0 10 56: stw (lru6)      r8, sp[0x150]
             0x0001046a: 05 f0 4f 56: stw (lru6)      r9, sp[0x14f]
             0x0001046e: 05 f0 8e 56: stw (lru6)      r10, sp[0x14e]
             0x00010472: 40 90:       add (2rus)      r4, r0, 0x0
             0x00010474: 05 64:       ldaw (ru6)      r0, sp[0x5]
             0x00010476: 40 69:       ldc (ru6)       r5, 0x0
             0x00010478: 0d f0 b0 68: ldc (lru6)      r2, 0x370
             0x0001047c: d4 90:       add (2rus)      r1, r5, 0x0
             0x0001047e: 01 f0 1f d0: bl (lu10)       0x41f <memset>
             0x00010482: 03 f0 21 64: ldaw (lru6)     r0, sp[0xe1]
             0x00010486: 06 f0 90 68: ldc (lru6)      r2, 0x190
             0x0001048a: d4 90:       add (2rus)      r1, r5, 0x0
             0x0001048c: 01 f0 18 d0: bl (lu10)       0x418 <memset>
             0x00010490: 00 f0 04 6c: ldw (lru6)      r0, cp[0x4]
             0x00010494: 00 f0 34 d5: bl (lu10)       -0x134 <delay_execution>
             0x00010498: 05 f0 08 55: stw (lru6)      r4, sp[0x148]
             0x0001049c: 01 f0 0c d0: bl (lu10)       0x40c <get_local_tile_id>
             0x000104a0: 05 f0 0d 54: stw (lru6)      r0, sp[0x14d]
             0x000104a4: 05 f0 07 55: stw (lru6)      r4, sp[0x147]
             0x000104a8: 01 f0 06 d0: bl (lu10)       0x406 <get_local_tile_id>
             0x000104ac: 05 f0 05 54: stw (lru6)      r0, sp[0x145]
             0x000104b0: 32 68:       ldc (ru6)       r0, 0x32
             0x000104b2: 05 f0 06 54: stw (lru6)      r0, sp[0x146]
             0x000104b6: d2 a6:       mkmsk (rus)     r0, 0x2
             0x000104b8: 05 f0 45 64: ldaw (lru6)     r1, sp[0x145]
             0x000104bc: 01 f0 60 d2: bl (lu10)       0x660 <.label10>
             0x000104c0: c2 69:       ldc (ru6)       r7, 0x2
             0x000104c2: 03 cb:       lsu (3r)        r0, r4, r7
             0x000104c4: 04 54:       stw (ru6)       r0, sp[0x4]
             0x000104c6: 06 70:       bt (ru6)        r0, 0x6 <.label11>
             0x000104c8: c1 98:       sub (2rus)      r0, r4, 0x1
             0x000104ca: d5 a6:       mkmsk (rus)     r1, 0x1
             0x000104cc: 82 68:       ldc (ru6)       r2, 0x2
             0x000104ce: 00 f0 72 d4: bl (lu10)       -0x72 <client_lookupSpecificChanend>
             0x000104d2: 50 90:       add (2rus)      r5, r0, 0x0
.label11     0x000104d4: 33 68:       ldc (ru6)       r0, 0x33
             0x000104d6: 05 f0 06 54: stw (lru6)      r0, sp[0x146]
             0x000104da: d2 a6:       mkmsk (rus)     r0, 0x2
             0x000104dc: 05 f0 45 64: ldaw (lru6)     r1, sp[0x145]
             0x000104e0: 01 f0 4e d2: bl (lu10)       0x64e <.label10>
             0x000104e4: 60 91:       add (2rus)      r10, r4, 0x0
             0x000104e6: 59 47:       zext (rus)      r10, 0x1
             0x000104e8: 86 72:       bt (ru6)        r10, 0x6 <.label12>
             0x000104ea: c2 90:       add (2rus)      r0, r4, 0x2
             0x000104ec: d5 a6:       mkmsk (rus)     r1, 0x1
             0x000104ee: da a6:       mkmsk (rus)     r2, 0x2
             0x000104f0: 00 f0 83 d4: bl (lu10)       -0x83 <client_lookupSpecificChanend>
             0x000104f4: 60 90:       add (2rus)      r6, r0, 0x0
.label12     0x000104f6: 34 68:       ldc (ru6)       r0, 0x34
             0x000104f8: 05 f0 06 54: stw (lru6)      r0, sp[0x146]
             0x000104fc: d2 a6:       mkmsk (rus)     r0, 0x2
             0x000104fe: 05 f0 45 64: ldaw (lru6)     r1, sp[0x145]
             0x00010502: 01 f0 3d d2: bl (lu10)       0x63d <.label10>
             0x00010506: c2 98:       sub (2rus)      r0, r4, 0x2
             0x00010508: d3 ca:       lsu (3r)        r9, r0, r7
             0x0001050a: 46 72:       bt (ru6)        r9, 0x6 <.label13>
             0x0001050c: c3 90:       add (2rus)      r0, r4, 0x3
             0x0001050e: d5 a6:       mkmsk (rus)     r1, 0x1
             0x00010510: 80 68:       ldc (ru6)       r2, 0x0
             0x00010512: 00 f0 94 d4: bl (lu10)       -0x94 <client_lookupSpecificChanend>
             0x00010516: 70 90:       add (2rus)      r7, r0, 0x0
.label13     0x00010518: 35 68:       ldc (ru6)       r0, 0x35
             0x0001051a: 05 f0 06 54: stw (lru6)      r0, sp[0x146]
             0x0001051e: d2 a6:       mkmsk (rus)     r0, 0x2
             0x00010520: 05 f0 45 64: ldaw (lru6)     r1, sp[0x145]
             0x00010524: 01 f0 2c d2: bl (lu10)       0x62c <.label10>
             0x00010528: 86 7a:       bf (ru6)        r10, 0x6 <.label14>
             0x0001052a: d9 a6:       mkmsk (rus)     r2, 0x1
             0x0001052c: c0 90:       add (2rus)      r0, r4, 0x0
             0x0001052e: 18 90:       add (2rus)      r1, r2, 0x0
             0x00010530: 00 f0 a3 d4: bl (lu10)       -0xa3 <client_lookupSpecificChanend>
             0x00010534: 80 90:       add (2rus)      r8, r0, 0x0
.label14     0x00010536: 36 68:       ldc (ru6)       r0, 0x36
             0x00010538: 05 f0 06 54: stw (lru6)      r0, sp[0x146]
             0x0001053c: d2 a6:       mkmsk (rus)     r0, 0x2
             0x0001053e: 05 f0 45 64: ldaw (lru6)     r1, sp[0x145]
             0x00010542: 01 f0 1d d2: bl (lu10)       0x61d <.label10>
             0x00010546: 05 f0 49 55: stw (lru6)      r5, sp[0x149]
             0x0001054a: 05 f0 8a 55: stw (lru6)      r6, sp[0x14a]
             0x0001054e: 05 f0 cb 55: stw (lru6)      r7, sp[0x14b]
             0x00010552: 05 f0 0c 56: stw (lru6)      r8, sp[0x14c]
             0x00010556: 06 68:       ldc (ru6)       r0, 0x6
             0x00010558: 05 f0 48 64: ldaw (lru6)     r1, sp[0x148]
             0x0001055c: 01 f0 10 d2: bl (lu10)       0x610 <.label10>
             0x00010560: 45 72:       bt (ru6)        r9, 0x5 <.label15>
             0x00010562: 09 68:       ldc (ru6)       r0, 0x9
             0x00010564: dc 90:       add (2rus)      r1, r7, 0x0
             0x00010566: 00 f0 f0 d4: bl (lu10)       -0xf0 <client_connectNewLocalChannel>
             0x0001056a: 70 90:       add (2rus)      r7, r0, 0x0
.label15     0x0001056c: 85 7a:       bf (ru6)        r10, 0x5 <.label16>
             0x0001056e: 0a 68:       ldc (ru6)       r0, 0xa
             0x00010570: 90 91:       add (2rus)      r1, r8, 0x0
             0x00010572: 00 f0 f6 d4: bl (lu10)       -0xf6 <client_connectNewLocalChannel>
             0x00010576: 80 90:       add (2rus)      r8, r0, 0x0
.label16     0x00010578: 04 5c:       ldw (ru6)       r0, sp[0x4]
             0x0001057a: 05 70:       bt (ru6)        r0, 0x5 <.label17>
             0x0001057c: 0b 68:       ldc (ru6)       r0, 0xb
             0x0001057e: d4 90:       add (2rus)      r1, r5, 0x0
             0x00010580: 00 f0 fd d4: bl (lu10)       -0xfd <client_connectNewLocalChannel>
             0x00010584: 50 90:       add (2rus)      r5, r0, 0x0
.label17     0x00010586: 85 72:       bt (ru6)        r10, 0x5 <.label18>
             0x00010588: 0c 68:       ldc (ru6)       r0, 0xc
             0x0001058a: d8 90:       add (2rus)      r1, r6, 0x0
             0x0001058c: 00 f0 03 d5: bl (lu10)       -0x103 <client_connectNewLocalChannel>
             0x00010590: 60 90:       add (2rus)      r6, r0, 0x0
.label18     0x00010592: 03 56:       stw (ru6)       r8, sp[0x3]
             0x00010594: c2 55:       stw (ru6)       r7, sp[0x2]
             0x00010596: 81 55:       stw (ru6)       r6, sp[0x1]
             0x00010598: 03 f0 61 64: ldaw (lru6)     r1, sp[0xe1]
             0x0001059c: 85 64:       ldaw (ru6)      r2, sp[0x5]
             0x0001059e: c0 90:       add (2rus)      r0, r4, 0x0
             0x000105a0: f4 90:       add (2rus)      r3, r5, 0x0
             0x000105a2: 01 f0 b2 d0: bl (lu10)       0x4b2 <xc_listen_check_wall.coersed..f.7b0.7d.28ui.2cp.28a.2810.3aui.29.29.2cp.28ui.29.2cui.2cui.2cui.2cui.29>
             0x000105a6: 05 f0 8e 5e: ldw (lru6)      r10, sp[0x14e]
             0x000105aa: 05 f0 4f 5e: ldw (lru6)      r9, sp[0x14f]
             0x000105ae: 05 f0 10 5e: ldw (lru6)      r8, sp[0x150]
             0x000105b2: 05 f0 d1 5d: ldw (lru6)      r7, sp[0x151]
             0x000105b6: 05 f0 92 5d: ldw (lru6)      r6, sp[0x152]
             0x000105ba: 05 f0 53 5d: ldw (lru6)      r5, sp[0x153]
             0x000105be: 05 f0 14 5d: ldw (lru6)      r4, sp[0x154]
             0x000105c2: 05 f0 d5 77: retsp (lu6)     0x155

<nOS_start>:
<nOS_start.coersed..f.7b0.7d.28chd.2cchd.29>:
             0x000105c6: c2 f0 58 77: entsp (lu6)     0x3098
             0x000105ca: c2 f0 17 55: stw (lru6)      r4, sp[0x3097]
             0x000105ce: c2 f0 56 55: stw (lru6)      r5, sp[0x3096]
             0x000105d2: c2 f0 95 55: stw (lru6)      r6, sp[0x3095]
             0x000105d6: c2 f0 d4 55: stw (lru6)      r7, sp[0x3094]
             0x000105da: c2 f0 13 56: stw (lru6)      r8, sp[0x3093]
             0x000105de: c2 f0 52 56: stw (lru6)      r9, sp[0x3092]
             0x000105e2: 54 90:       add (2rus)      r5, r1, 0x0
             0x000105e4: 60 90:       add (2rus)      r6, r0, 0x0
             0x000105e6: 91 a7:       mkmsk (rus)     r0, 0x5
             0x000105e8: 00 f0 bf d5: bl (lu10)       -0x1bf <getSpecificLocalChannel>
             0x000105ec: 40 90:       add (2rus)      r4, r0, 0x0
             0x000105ee: 00 f0 8a d2: bl (lu10)       0x28a <__builtin_getid>
             0x000105f2: 19 cf:       chkct (rus)     res[r6], 0x1
             0x000105f4: 19 4f:       outct (rus)     res[r6], 0x1
             0x000105f6: ce b7:       in (2r)         r7, res[r6]
             0x000105f8: 19 cf:       chkct (rus)     res[r6], 0x1
             0x000105fa: 19 4f:       outct (rus)     res[r6], 0x1
             0x000105fc: 03 78:       bf (ru6)        r0, 0x3 <.label19>
             0x000105fe: d0 a6:       mkmsk (rus)     r0, 0x20
             0x00010600: 00 f0 a6 d2: bl (lu10)       0x2a6 <exit>
.label19     0x00010604: 00 f0 58 d3: bl (lu10)       0x358 <get_local_tile_id>
             0x00010608: c2 f0 11 54: stw (lru6)      r0, sp[0x3091]
             0x0001060c: c2 f0 51 64: ldaw (lru6)     r1, sp[0x3091]
             0x00010610: d9 a6:       mkmsk (rus)     r2, 0x1
             0x00010612: 08 90:       add (2rus)      r0, r2, 0x0
             0x00010614: 01 f0 b4 d1: bl (lu10)       0x5b4 <.label10>
             0x00010618: 00 68:       ldc (ru6)       r0, 0x0
             0x0001061a: 01 f0 60 68: ldc (lru6)      r1, 0x60
             0x0001061e: 81 64:       ldaw (ru6)      r2, sp[0x1]
             0x00010620: d8 68:       ldc (ru6)       r3, 0x18
             0x00010622: c6 6a:       ldc (ru6)       r11, 0x6
             0x00010624: 60 90:       add (2rus)      r6, r0, 0x0
.label21     0x00010626: 80 90:       add (2rus)      r8, r0, 0x0
.label20     0x00010628: 59 f9 ec 3f: mul (l3r)       r9, r6, r1
             0x0001062c: 19 15:       add (3r)        r9, r2, r9
             0x0001062e: 04 fe ec 07: stw (l3r)       r0, r9[r8]
             0x00010632: 01 92:       add (2rus)      r8, r8, 0x1
             0x00010634: 13 c2:       lss (3r)        r9, r8, r3
             0x00010636: 48 76:       bt (ru6)        r9, -0x8 <.label20>
             0x00010638: 29 91:       add (2rus)      r6, r6, 0x1
             0x0001063a: cb c5:       lss (3r)        r8, r6, r11
             0x0001063c: 0c 76:       bt (ru6)        r8, -0xc <.label21>
             0x0001063e: 15 4f:       outct (rus)     res[r5], 0x1
             0x00010640: 15 cf:       chkct (rus)     res[r5], 0x1
             0x00010642: cd af:       out (r2r)       res[r5], r7
             0x00010644: 15 4f:       outct (rus)     res[r5], 0x1
             0x00010646: 15 cf:       chkct (rus)     res[r5], 0x1
             0x00010648: 02 f0 51 65: ldaw (lru6)     r5, sp[0x91]
             0x0001064c: 81 65:       ldaw (ru6)      r6, sp[0x1]
.label22     0x0001064e: c0 90:       add (2rus)      r0, r4, 0x0
             0x00010650: d4 90:       add (2rus)      r1, r5, 0x0
             0x00010652: e8 90:       add (2rus)      r2, r6, 0x0
             0x00010654: 00 f0 ab d5: bl (lu10)       -0x1ab <nOS_listenForAction>
             0x00010658: 06 77:       bu (u6)         -0x6 <.label22>

<addNewChanMapEntry>:
             0x0001065a: 4b 77:       entsp (u6)      0xb
             0x0001065c: 0a 55:       stw (ru6)       r4, sp[0xa]
             0x0001065e: 49 55:       stw (ru6)       r5, sp[0x9]
             0x00010660: 88 55:       stw (ru6)       r6, sp[0x8]
             0x00010662: c7 55:       stw (ru6)       r7, sp[0x7]
             0x00010664: 06 56:       stw (ru6)       r8, sp[0x6]
             0x00010666: 4c 90:       add (2rus)      r4, r3, 0x0
             0x00010668: 78 90:       add (2rus)      r7, r2, 0x0
             0x0001066a: 54 90:       add (2rus)      r5, r1, 0x0
             0x0001066c: 60 90:       add (2rus)      r6, r0, 0x0
             0x0001066e: 2a 68:       ldc (ru6)       r0, 0x2a
             0x00010670: 01 54:       stw (ru6)       r0, sp[0x1]
             0x00010672: 7c 47:       zext (rus)      r7, 0x8
             0x00010674: c2 55:       stw (ru6)       r7, sp[0x2]
             0x00010676: 03 55:       stw (ru6)       r4, sp[0x3]
             0x00010678: 44 55:       stw (ru6)       r5, sp[0x4]
             0x0001067a: 00 f0 1d d3: bl (lu10)       0x31d <get_local_tile_id>
             0x0001067e: 05 54:       stw (ru6)       r0, sp[0x5]
             0x00010680: 41 64:       ldaw (ru6)      r1, sp[0x1]
             0x00010682: 05 6a:       ldc (ru6)       r8, 0x5
             0x00010684: 80 91:       add (2rus)      r0, r8, 0x0
             0x00010686: a0 91:       add (2rus)      r2, r8, 0x0
             0x00010688: 01 f0 7a d1: bl (lu10)       0x57a <.label10>
             0x0001068c: cd 98:       sub (2rus)      r0, r7, 0x1
             0x0001068e: 90 c9:       lsu (3r)        r1, r8, r0
             0x00010690: f1 4f:       ecallt (1r)     r1
             0x00010692: 57 68:       ldc (ru6)       r1, 0x17
             0x00010694: 54 ca:       lsu (3r)        r1, r1, r4
             0x00010696: f1 4f:       ecallt (1r)     r1
             0x00010698: 01 f0 60 68: ldc (lru6)      r1, 0x60
             0x0001069c: 01 f8 ec 3f: mul (l3r)       r0, r0, r1
             0x000106a0: c8 10:       add (3r)        r0, r6, r0
             0x000106a2: 90 fa ec 07: stw (l3r)       r5, r0[r4]
             0x000106a6: 06 5e:       ldw (ru6)       r8, sp[0x6]
             0x000106a8: c7 5d:       ldw (ru6)       r7, sp[0x7]
             0x000106aa: 88 5d:       ldw (ru6)       r6, sp[0x8]
             0x000106ac: 49 5d:       ldw (ru6)       r5, sp[0x9]
             0x000106ae: 0a 5d:       ldw (ru6)       r4, sp[0xa]
             0x000106b0: cb 77:       retsp (u6)      0xb

<lookupChanMapEntry>:
             0x000106b2: 47 77:       entsp (u6)      0x7
             0x000106b4: 06 55:       stw (ru6)       r4, sp[0x6]
             0x000106b6: 01 f0 c5 68: ldc (lru6)      r3, 0x45
             0x000106ba: c1 54:       stw (ru6)       r3, sp[0x1]
             0x000106bc: 34 47:       zext (rus)      r1, 0x8
             0x000106be: 42 54:       stw (ru6)       r1, sp[0x2]
             0x000106c0: 15 98:       sub (2rus)      r1, r1, 0x1
             0x000106c2: c5 68:       ldc (ru6)       r3, 0x5
             0x000106c4: 3d c8:       lsu (3r)        r3, r3, r1
             0x000106c6: 83 54:       stw (ru6)       r2, sp[0x3]
             0x000106c8: f3 4f:       ecallt (1r)     r3
             0x000106ca: d7 68:       ldc (ru6)       r3, 0x17
             0x000106cc: 3e c8:       lsu (3r)        r3, r3, r2
             0x000106ce: f3 4f:       ecallt (1r)     r3
             0x000106d0: 01 f0 e0 68: ldc (lru6)      r3, 0x60
             0x000106d4: 17 f8 ec 3f: mul (l3r)       r1, r1, r3
             0x000106d8: 01 10:       add (3r)        r0, r0, r1
             0x000106da: 42 48:       ldw (3r)        r4, r0[r2]
             0x000106dc: 04 55:       stw (ru6)       r4, sp[0x4]
             0x000106de: 00 f0 eb d2: bl (lu10)       0x2eb <get_local_tile_id>
             0x000106e2: 05 54:       stw (ru6)       r0, sp[0x5]
             0x000106e4: 41 64:       ldaw (ru6)      r1, sp[0x1]
             0x000106e6: 85 68:       ldc (ru6)       r2, 0x5
             0x000106e8: 08 90:       add (2rus)      r0, r2, 0x0
             0x000106ea: 01 f0 49 d1: bl (lu10)       0x549 <.label10>
             0x000106ee: c0 90:       add (2rus)      r0, r4, 0x0
             0x000106f0: 06 5d:       ldw (ru6)       r4, sp[0x6]
             0x000106f2: c7 77:       retsp (u6)      0x7

<nOS_doAction>:
             0x000106f4: 45 77:       entsp (u6)      0x5
             0x000106f6: 04 55:       stw (ru6)       r4, sp[0x4]
             0x000106f8: 43 55:       stw (ru6)       r5, sp[0x3]
             0x000106fa: 82 55:       stw (ru6)       r6, sp[0x2]
             0x000106fc: c1 55:       stw (ru6)       r7, sp[0x1]
             0x000106fe: 6c 90:       add (2rus)      r6, r3, 0x0
             0x00010700: 78 90:       add (2rus)      r7, r2, 0x0
             0x00010702: 44 90:       add (2rus)      r4, r1, 0x0
             0x00010704: 46 68:       ldc (ru6)       r1, 0x6
             0x00010706: 14 c8:       lsu (3r)        r1, r1, r0
             0x00010708: 01 f0 60 70: bt (lru6)       r1, 0x60 <.label23>
             0x0001070c: 47 5d:       ldw (ru6)       r5, sp[0x7]
             0x0001070e: e0 2f:       bru (1r)        r0
             0x00010710: 19 73:       bu (u6)         0x19 <.label24>
             0x00010712: 09 73:       bu (u6)         0x9 <.label25>
             0x00010714: 21 73:       bu (u6)         0x21 <.label26>
             0x00010716: 28 73:       bu (u6)         0x28 <.label27>
             0x00010718: 2f 73:       bu (u6)         0x2f <.label28>
             0x0001071a: 01 73:       bu (u6)         0x1 <.label29>
             0x0001071c: 02 73:       bu (u6)         0x2 <.label30>
.label29     0x0001071e: 01 f0 03 73: bu (lu6)        0x43 <.label31>
.label30     0x00010722: 01 f0 08 73: bu (lu6)        0x48 <.label32>
.label25     0x00010726: 00 f0 66 d6: bl (lu10)       -0x266 <getNewChannel>
             0x0001072a: 60 90:       add (2rus)      r6, r0, 0x0
             0x0001072c: c8 90:       add (2rus)      r0, r6, 0x0
             0x0001072e: dc 90:       add (2rus)      r1, r7, 0x0
             0x00010730: 00 f0 69 d6: bl (lu10)       -0x269 <connectChannel>
             0x00010734: 61 ad:       shr (2rus)      r2, r4, 0x10
             0x00010736: 71 47:       zext (rus)      r4, 0x10
             0x00010738: c4 90:       add (2rus)      r0, r5, 0x0
             0x0001073a: d8 90:       add (2rus)      r1, r6, 0x0
             0x0001073c: f0 90:       add (2rus)      r3, r4, 0x0
             0x0001073e: 73 d4:       bl (u10)        -0x73 <addNewChanMapEntry>
             0x00010740: 01 f0 04 73: bu (lu6)        0x44 <.label23>
.label24     0x00010744: 00 f0 75 d6: bl (lu10)       -0x275 <getNewChannel>
             0x00010748: 60 90:       add (2rus)      r6, r0, 0x0
             0x0001074a: 61 ad:       shr (2rus)      r2, r4, 0x10
             0x0001074c: 71 47:       zext (rus)      r4, 0x10
             0x0001074e: c4 90:       add (2rus)      r0, r5, 0x0
             0x00010750: d8 90:       add (2rus)      r1, r6, 0x0
             0x00010752: f0 90:       add (2rus)      r3, r4, 0x0
             0x00010754: 7e d4:       bl (u10)        -0x7e <addNewChanMapEntry>
             0x00010756: 3a 73:       bu (u6)         0x3a <.label23>
.label26     0x00010758: 51 ad:       shr (2rus)      r1, r4, 0x10
             0x0001075a: 71 47:       zext (rus)      r4, 0x10
             0x0001075c: c4 90:       add (2rus)      r0, r5, 0x0
             0x0001075e: e0 90:       add (2rus)      r2, r4, 0x0
             0x00010760: 58 d4:       bl (u10)        -0x58 <lookupChanMapEntry>
             0x00010762: 18 ff ec 1f: getd (l2r)      r6, res[r0]
             0x00010766: 32 73:       bu (u6)         0x32 <.label23>
.label27     0x00010768: 51 ad:       shr (2rus)      r1, r4, 0x10
             0x0001076a: 71 47:       zext (rus)      r4, 0x10
             0x0001076c: c4 90:       add (2rus)      r0, r5, 0x0
             0x0001076e: e0 90:       add (2rus)      r2, r4, 0x0
             0x00010770: 60 d4:       bl (u10)        -0x60 <lookupChanMapEntry>
             0x00010772: 1c 17:       setd (r2r)      res[r0], r7
             0x00010774: 80 69:       ldc (ru6)       r6, 0x0
             0x00010776: 2a 73:       bu (u6)         0x2a <.label23>
.label28     0x00010778: a1 ad:       shr (2rus)      r6, r4, 0x10
             0x0001077a: 71 47:       zext (rus)      r4, 0x10
             0x0001077c: c4 90:       add (2rus)      r0, r5, 0x0
             0x0001077e: d8 90:       add (2rus)      r1, r6, 0x0
             0x00010780: e0 90:       add (2rus)      r2, r4, 0x0
             0x00010782: 69 d4:       bl (u10)        -0x69 <lookupChanMapEntry>
             0x00010784: e0 17:       freer (1r)      res[r0]
             0x00010786: 78 47:       zext (rus)      r6, 0x8
             0x00010788: c9 98:       sub (2rus)      r0, r6, 0x1
             0x0001078a: 45 68:       ldc (ru6)       r1, 0x5
             0x0001078c: 14 c8:       lsu (3r)        r1, r1, r0
             0x0001078e: f1 4f:       ecallt (1r)     r1
             0x00010790: 58 68:       ldc (ru6)       r1, 0x18
             0x00010792: d1 c8:       lsu (3r)        r1, r4, r1
             0x00010794: e1 4f:       ecallf (1r)     r1
             0x00010796: 01 f0 60 68: ldc (lru6)      r1, 0x60
             0x0001079a: 01 f8 ec 3f: mul (l3r)       r0, r0, r1
             0x0001079e: c4 10:       add (3r)        r0, r5, r0
             0x000107a0: 80 69:       ldc (ru6)       r6, 0x0
             0x000107a2: a0 fa ec 07: stw (l3r)       r6, r0[r4]
             0x000107a6: 12 73:       bu (u6)         0x12 <.label23>
.label31     0x000107a8: 51 ad:       shr (2rus)      r1, r4, 0x10
             0x000107aa: 71 47:       zext (rus)      r4, 0x10
             0x000107ac: c4 90:       add (2rus)      r0, r5, 0x0
             0x000107ae: e0 90:       add (2rus)      r2, r4, 0x0
             0x000107b0: 80 d4:       bl (u10)        -0x80 <lookupChanMapEntry>
             0x000107b2: 60 90:       add (2rus)      r6, r0, 0x0
             0x000107b4: 0b 73:       bu (u6)         0xb <.label23>
.label32     0x000107b6: 46 5d:       ldw (ru6)       r5, sp[0x6]
             0x000107b8: cc 90:       add (2rus)      r0, r7, 0x0
             0x000107ba: 00 f0 c8 d5: bl (lu10)       -0x1c8 <getStartAddress>
             0x000107be: 10 90:       add (2rus)      r1, r0, 0x0
             0x000107c0: c0 90:       add (2rus)      r0, r4, 0x0
             0x000107c2: e8 90:       add (2rus)      r2, r6, 0x0
             0x000107c4: f4 90:       add (2rus)      r3, r5, 0x0
             0x000107c6: 00 f0 4f d6: bl (lu10)       -0x24f <nOS_createThread>
             0x000107ca: 60 90:       add (2rus)      r6, r0, 0x0
.label23     0x000107cc: c8 90:       add (2rus)      r0, r6, 0x0
             0x000107ce: c1 5d:       ldw (ru6)       r7, sp[0x1]
             0x000107d0: 82 5d:       ldw (ru6)       r6, sp[0x2]
             0x000107d2: 43 5d:       ldw (ru6)       r5, sp[0x3]
             0x000107d4: 04 5d:       ldw (ru6)       r4, sp[0x4]
             0x000107d6: c5 77:       retsp (u6)      0x5

<prim_child>:
             0x000107d8: 05 f0 44 77: entsp (lu6)     0x144
             0x000107dc: 81 56:       stw (ru6)       r10, sp[0x1]
             0x000107de: 80 66:       ldaw (ru6)      r10, sp[0x0]
             0x000107e0: 05 f0 03 68: ldc (lru6)      r0, 0x143
             0x000107e4: c8 f9 ec 07: stw (l3r)       r4, r10[r0]
             0x000107e8: 03 87:       getr (rus)      r4, 0x3
             0x000107ea: 9a 01:       stw (2rus)      r1, r10[0x2]
             0x000107ec: 90 07:       getst (2r)      r0, res[r4]
             0x000107ee: ea d8:       ldap (u10)      r11, 0xea <par_outlined.1>
             0x000107f0: 4c 07:       init (2r)       t[r0]:pc, r11
             0x000107f2: 00 f0 8b d9: ldap (lu10)     r11, 0x18b <__child_cleanup>
             0x000107f6: 4c ff ec 17: init (l2r)      t[r0]:lr, r11
             0x000107fa: 05 f0 9d 68: ldc (lru6)      r2, 0x15d
             0x000107fe: 39 90:       add (2rus)      r3, r2, 0x1
             0x00010800: c0 66:       ldaw (ru6)      r11, sp[0x0]
             0x00010802: bf f9 ec 27: ldaw (l3r)      r3, r11[-r3]
             0x00010806: f3 2f:       set (1r)        sp, r3
             0x00010808: 2e f8 ec 1f: ldaw (l3r)      r2, r3[r2]
             0x0001080c: c8 16:       init (2r)       t[r0]:sp, r2
             0x0001080e: aa f9 ec 9f: ldaw (l2rus)    r2, r10[0x2]
             0x00010812: 08 b8:       set (3r)        t[r0]:r0, r2
             0x00010814: f4 1f:       msync (1r)      res[r4]
             0x00010816: 83 77:       extsp (u6)      0x3
             0x00010818: 03 f0 1c 68: ldc (lru6)      r0, 0xdc
             0x0001081c: 02 54:       stw (ru6)       r0, sp[0x2]
             0x0001081e: 0a 68:       ldc (ru6)       r0, 0xa
             0x00010820: 01 54:       stw (ru6)       r0, sp[0x1]
             0x00010822: 03 f0 1f 68: ldc (lru6)      r0, 0xdf
             0x00010826: a8 f9 ec 1f: ldaw (l3r)      r2, r10[r0]
             0x0001082a: bb f9 ec 9f: ldaw (l2rus)    r3, r10[0x3]
             0x0001082e: 0a d0:       bl (u10)        0xa <prim_child_root>
             0x00010830: 83 67:       ldaw (ru6)      sp, sp[0x3]
             0x00010832: f4 17:       mjoin (1r)      res[r4]
             0x00010834: e4 17:       freer (1r)      res[r4]
             0x00010836: 05 f0 03 68: ldc (lru6)      r0, 0x143
             0x0001083a: c8 49:       ldw (3r)        r4, r10[r0]
             0x0001083c: fa 2f:       set (1r)        sp, r10
             0x0001083e: 81 5e:       ldw (ru6)       r10, sp[0x1]
             0x00010840: 05 f0 c4 77: retsp (lu6)     0x144

<prim_child_root>:
             0x00010844: 57 77:       entsp (u6)      0x17
             0x00010846: 16 55:       stw (ru6)       r4, sp[0x16]
             0x00010848: 55 55:       stw (ru6)       r5, sp[0x15]
             0x0001084a: 94 55:       stw (ru6)       r6, sp[0x14]
             0x0001084c: d3 55:       stw (ru6)       r7, sp[0x13]
             0x0001084e: 12 56:       stw (ru6)       r8, sp[0x12]
             0x00010850: 51 56:       stw (ru6)       r9, sp[0x11]
             0x00010852: 90 56:       stw (ru6)       r10, sp[0x10]
             0x00010854: c9 54:       stw (ru6)       r3, sp[0x9]
             0x00010856: 85 54:       stw (ru6)       r2, sp[0x5]
             0x00010858: 48 54:       stw (ru6)       r1, sp[0x8]
             0x0001085a: 02 68:       ldc (ru6)       r0, 0x2
             0x0001085c: 64 c8:       lsu (3r)        r6, r1, r0
             0x0001085e: 00 f0 2b d2: bl (lu10)       0x22b <get_local_tile_id>
             0x00010862: 0f 54:       stw (ru6)       r0, sp[0xf]
             0x00010864: 84 71:       bt (ru6)        r6, 0x4 <.label33>
             0x00010866: 00 68:       ldc (ru6)       r0, 0x0
             0x00010868: 00 f0 56 d6: bl (lu10)       -0x256 <client_allocateNewLocalChannel>
             0x0001086c: 40 90:       add (2rus)      r4, r0, 0x0
.label33     0x0001086e: 08 5e:       ldw (ru6)       r8, sp[0x8]
             0x00010870: 51 47:       zext (rus)      r8, 0x1
             0x00010872: 04 72:       bt (ru6)        r8, 0x4 <.label34>
             0x00010874: d1 a6:       mkmsk (rus)     r0, 0x1
             0x00010876: 00 f0 5d d6: bl (lu10)       -0x25d <client_allocateNewLocalChannel>
             0x0001087a: 07 54:       stw (ru6)       r0, sp[0x7]
.label34     0x0001087c: 00 f0 05 6c: ldw (lru6)      r0, cp[0x5]
             0x00010880: 48 5c:       ldw (ru6)       r1, sp[0x8]
             0x00010882: 04 38:       and (3r)        r0, r1, r0
             0x00010884: 72 b0:       eq (2rus)       r7, r0, 0x2
             0x00010886: c4 71:       bt (ru6)        r7, 0x4 <.label35>
             0x00010888: 02 68:       ldc (ru6)       r0, 0x2
             0x0001088a: 00 f0 67 d6: bl (lu10)       -0x267 <client_allocateNewLocalChannel>
             0x0001088e: 06 54:       stw (ru6)       r0, sp[0x6]
.label35     0x00010890: 04 7a:       bf (ru6)        r8, 0x4 <.label36>
             0x00010892: d2 a6:       mkmsk (rus)     r0, 0x2
             0x00010894: 00 f0 6c d6: bl (lu10)       -0x26c <client_allocateNewLocalChannel>
             0x00010898: a0 90:       add (2rus)      r10, r0, 0x0
.label36     0x0001089a: 08 5c:       ldw (ru6)       r0, sp[0x8]
             0x0001089c: 0a 54:       stw (ru6)       r0, sp[0xa]
             0x0001089e: 0b 55:       stw (ru6)       r4, sp[0xb]
             0x000108a0: 07 5c:       ldw (ru6)       r0, sp[0x7]
             0x000108a2: 0c 54:       stw (ru6)       r0, sp[0xc]
             0x000108a4: 06 5c:       ldw (ru6)       r0, sp[0x6]
             0x000108a6: 0d 54:       stw (ru6)       r0, sp[0xd]
             0x000108a8: 8e 56:       stw (ru6)       r10, sp[0xe]
             0x000108aa: 05 68:       ldc (ru6)       r0, 0x5
             0x000108ac: 4a 64:       ldaw (ru6)      r1, sp[0xa]
             0x000108ae: 86 68:       ldc (ru6)       r2, 0x6
             0x000108b0: 01 f0 66 d0: bl (lu10)       0x466 <.label10>
             0x000108b4: 83 71:       bt (ru6)        r6, 0x3 <.label37>
             0x000108b6: c0 90:       add (2rus)      r0, r4, 0x0
             0x000108b8: 00 f0 00 d7: bl (lu10)       -0x300 <channelListen>
.label37     0x000108bc: 10 91:       add (2rus)      r5, r4, 0x0
             0x000108be: 03 72:       bt (ru6)        r8, 0x3 <.label38>
             0x000108c0: 07 5c:       ldw (ru6)       r0, sp[0x7]
             0x000108c2: 00 f0 05 d7: bl (lu10)       -0x305 <channelListen>
.label38     0x000108c6: c3 71:       bt (ru6)        r7, 0x3 <.label39>
             0x000108c8: 06 5c:       ldw (ru6)       r0, sp[0x6]
             0x000108ca: 00 f0 09 d7: bl (lu10)       -0x309 <channelListen>
.label39     0x000108ce: 03 7a:       bf (ru6)        r8, 0x3 <.label40>
             0x000108d0: 88 91:       add (2rus)      r0, r10, 0x0
             0x000108d2: 00 f0 0d d7: bl (lu10)       -0x30d <channelListen>
.label40     0x000108d6: d5 a6:       mkmsk (rus)     r1, 0x1
             0x000108d8: 04 90:       add (2rus)      r0, r1, 0x0
             0x000108da: 94 90:       add (2rus)      r9, r1, 0x0
             0x000108dc: 00 f0 7e d2: bl (lu10)       0x27e <srand>
             0x000108e0: 00 68:       ldc (ru6)       r0, 0x0
             0x000108e2: 00 6a:       ldc (ru6)       r8, 0x0
.label41     0x000108e4: 59 5c:       ldw (ru6)       r1, sp[0x19]
             0x000108e6: 11 c8:       lsu (3r)        r1, r0, r1
             0x000108e8: e1 4f:       ecallf (1r)     r1
             0x000108ea: 49 5c:       ldw (ru6)       r1, sp[0x9]
             0x000108ec: 84 f8 ec 07: stw (l3r)       r8, r1[r0]
             0x000108f0: 01 90:       add (2rus)      r0, r0, 0x1
             0x000108f2: 03 f0 5c 68: ldc (lru6)      r1, 0xdc
             0x000108f6: 11 c8:       lsu (3r)        r1, r0, r1
             0x000108f8: 4b 74:       bt (ru6)        r1, -0xb <.label41>
             0x000108fa: 03 f0 db 69: ldc (lru6)      r7, 0xdb
.label47     0x000108fe: 00 f0 77 d2: bl (lu10)       0x277 <rand>
             0x00010902: 12 a8:       shr (2rus)      r1, r0, 0x2
             0x00010904: 80 68:       ldc (ru6)       r2, 0x0
             0x00010906: 00 f0 c6 6c: ldw (lru6)      r3, cp[0x6]
             0x0001090a: 17 f8 2a 00: lmul (l6r)      r1, r2, r1, r3, r2, r2
             0x0001090e: 15 a8:       shr (2rus)      r1, r1, 0x1
             0x00010910: 03 f0 9c 68: ldc (lru6)      r2, 0xdc
             0x00010914: 16 f8 ec 3f: mul (l3r)       r1, r1, r2
             0x00010918: 61 18:       sub (3r)        r6, r0, r1
             0x0001091a: 02 73:       bu (u6)         0x2 <.label42>
.label44     0x0001091c: 29 91:       add (2rus)      r6, r6, 0x1
             0x0001091e: 40 91:       add (2rus)      r8, r4, 0x0
.label42     0x00010920: 19 5c:       ldw (ru6)       r0, sp[0x19]
             0x00010922: c8 c8:       lsu (3r)        r0, r6, r0
             0x00010924: e0 4f:       ecallf (1r)     r0
             0x00010926: c1 91:       add (2rus)      r4, r8, 0x1
             0x00010928: 09 5c:       ldw (ru6)       r0, sp[0x9]
             0x0001092a: 42 4a:       ldw (3r)        r0, r0[r6]
             0x0001092c: 01 b0:       eq (2rus)       r0, r0, 0x1
             0x0001092e: 05 78:       bf (ru6)        r0, 0x5 <.label43>
             0x00010930: 0b cb:       lsu (3r)        r0, r6, r7
             0x00010932: 0c 74:       bt (ru6)        r0, -0xc <.label44>
             0x00010934: 80 69:       ldc (ru6)       r6, 0x0
             0x00010936: 40 91:       add (2rus)      r8, r4, 0x0
             0x00010938: 0d 77:       bu (u6)         -0xd <.label42>
.label43     0x0001093a: 18 5c:       ldw (ru6)       r0, sp[0x18]
             0x0001093c: 04 54:       stw (ru6)       r0, sp[0x4]
             0x0001093e: 83 56:       stw (ru6)       r10, sp[0x3]
             0x00010940: 06 5c:       ldw (ru6)       r0, sp[0x6]
             0x00010942: 02 54:       stw (ru6)       r0, sp[0x2]
             0x00010944: 07 5c:       ldw (ru6)       r0, sp[0x7]
             0x00010946: 01 54:       stw (ru6)       r0, sp[0x1]
             0x00010948: c8 90:       add (2rus)      r0, r6, 0x0
             0x0001094a: 45 5c:       ldw (ru6)       r1, sp[0x5]
             0x0001094c: 88 5c:       ldw (ru6)       r2, sp[0x8]
             0x0001094e: f4 90:       add (2rus)      r3, r5, 0x0
             0x00010950: 00 f0 8b d6: bl (lu10)       -0x28b <check_maze> <check_maze.coersed..f.7bui.7d.28ui.2cp.28a.2810.3aui.29.29.2cui.2cui.2cui.2cui.2cui.29>
             0x00010954: 08 70:       bt (ru6)        r0, 0x8 <.label45>
             0x00010956: 0b cb:       lsu (3r)        r0, r6, r7
             0x00010958: 03 78:       bf (ru6)        r0, 0x3 <.label46>
             0x0001095a: 2a 91:       add (2rus)      r6, r6, 0x2
             0x0001095c: 40 91:       add (2rus)      r8, r4, 0x0
             0x0001095e: 20 77:       bu (u6)         -0x20 <.label42>
.label46     0x00010960: e4 91:       add (2rus)      r6, r9, 0x0
             0x00010962: 40 91:       add (2rus)      r8, r4, 0x0
             0x00010964: 23 77:       bu (u6)         -0x23 <.label42>
.label45     0x00010966: 09 5c:       ldw (ru6)       r0, sp[0x9]
             0x00010968: d2 fa ec 07: stw (l3r)       r9, r0[r6]
             0x0001096c: 02 92:       add (2rus)      r8, r8, 0x2
             0x0001096e: 0a 68:       ldc (ru6)       r0, 0xa
             0x00010970: 80 c9:       lsu (3r)        r0, r8, r0
             0x00010972: 3b 74:       bt (ru6)        r0, -0x3b <.label47>
             0x00010974: 90 5e:       ldw (ru6)       r10, sp[0x10]
             0x00010976: 51 5e:       ldw (ru6)       r9, sp[0x11]
             0x00010978: 12 5e:       ldw (ru6)       r8, sp[0x12]
             0x0001097a: d3 5d:       ldw (ru6)       r7, sp[0x13]
             0x0001097c: 94 5d:       ldw (ru6)       r6, sp[0x14]
             0x0001097e: 55 5d:       ldw (ru6)       r5, sp[0x15]
             0x00010980: 16 5d:       ldw (ru6)       r4, sp[0x16]
             0x00010982: d7 77:       retsp (u6)      0x17

<xc_check_maze>:
<xc_check_maze.coersed..f.7bui.7d.28ui.2c.26.28a.28.3aa.2810.3aui.29.29.29.2cui.2cui.2cui.2cui.2cui.29>:
             0x00010984: 01 f0 ae 68: ldc (lru6)      r2, 0x6e
             0x00010988: 22 c8:       lsu (3r)        r2, r0, r2
             0x0001098a: 04 5c:       ldw (ru6)       r0, sp[0x4]
             0x0001098c: 8d 70:       bt (ru6)        r2, 0xd <.label48>
             0x0001098e: 82 68:       ldc (ru6)       r2, 0x2
             0x00010990: 02 c8:       lsu (3r)        r0, r0, r2
             0x00010992: f0 4f:       ecallt (1r)     r0
             0x00010994: 87 0c:       ldw (2rus)      r0, r1[0xb]
             0x00010996: 04 78:       bf (ru6)        r0, 0x4 <.label49>
             0x00010998: 86 0c:       ldw (2rus)      r0, r1[0xa]
             0x0001099a: 02 78:       bf (ru6)        r0, 0x2 <.label49>
             0x0001099c: 00 68:       ldc (ru6)       r0, 0x0
             0x0001099e: c0 77:       retsp (u6)      0x0
.label49     0x000109a0: d1 a6:       mkmsk (rus)     r0, 0x1
             0x000109a2: 87 04:       stw (2rus)      r0, r1[0xb]
             0x000109a4: 86 04:       stw (2rus)      r0, r1[0xa]
             0x000109a6: c0 77:       retsp (u6)      0x0
.label48     0x000109a8: e0 4f:       ecallf (1r)     r0
             0x000109aa: 82 68:       ldc (ru6)       r2, 0x2
             0x000109ac: 02 c8:       lsu (3r)        r0, r0, r2
             0x000109ae: f0 4f:       ecallt (1r)     r0
             0x000109b0: 05 08:       ldw (2rus)      r0, r1[0x1]
             0x000109b2: 04 78:       bf (ru6)        r0, 0x4 <.label50>
             0x000109b4: 87 0c:       ldw (2rus)      r0, r1[0xb]
             0x000109b6: 02 78:       bf (ru6)        r0, 0x2 <.label50>
             0x000109b8: 00 68:       ldc (ru6)       r0, 0x0
             0x000109ba: c0 77:       retsp (u6)      0x0
.label50     0x000109bc: d1 a6:       mkmsk (rus)     r0, 0x1
             0x000109be: 05 00:       stw (2rus)      r0, r1[0x1]
             0x000109c0: 87 04:       stw (2rus)      r0, r1[0xb]
             0x000109c2: c0 77:       retsp (u6)      0x0

<par_outlined.1>:
             0x000109c4: 41 77:       entsp (u6)      0x1
             0x000109c6: 00 08:       ldw (2rus)      r0, r0[0x0]
             0x000109c8: 00 f0 bd d6: bl (lu10)       -0x2bd <listen_check_wall>
             0x000109cc: c1 77:       retsp (u6)      0x1

<xc_listen_check_wall>:
<xc_listen_check_wall.coersed..f.7b0.7d.28ui.2c.26.28a.28.3aa.2810.3aui.29.29.29.2c.26.28a.28.3aui.29.29.2cchd.2cchd.2cchd.2cchd.29>:
             0x000109ce: 44 77:       entsp (u6)      0x4
             0x000109d0: 03 55:       stw (ru6)       r4, sp[0x3]
             0x000109d2: 42 55:       stw (ru6)       r5, sp[0x2]
             0x000109d4: 81 55:       stw (ru6)       r6, sp[0x1]
             0x000109d6: c0 55:       stw (ru6)       r7, sp[0x0]
             0x000109d8: ed 07:       clre (0r)       
             0x000109da: 06 5d:       ldw (ru6)       r4, sp[0x6]
             0x000109dc: 18 d8:       ldap (u10)      r11, 0x18 <.label51>
             0x000109de: f4 47:       setv (1r)       res[r4], r11
             0x000109e0: f4 07:       eeu (1r)        res[r4]
             0x000109e2: 47 5d:       ldw (ru6)       r5, sp[0x7]
             0x000109e4: 32 d8:       ldap (u10)      r11, 0x32 <.label52>
             0x000109e6: f5 47:       setv (1r)       res[r5], r11
             0x000109e8: f5 07:       eeu (1r)        res[r5]
             0x000109ea: 50 d8:       ldap (u10)      r11, 0x50 <.label53>
             0x000109ec: f3 47:       setv (1r)       res[r3], r11
             0x000109ee: f3 07:       eeu (1r)        res[r3]
             0x000109f0: 85 5d:       ldw (ru6)       r6, sp[0x5]
             0x000109f2: 69 d8:       ldap (u10)      r11, 0x69 <.label54>
             0x000109f4: f6 47:       setv (1r)       res[r6], r11
             0x000109f6: f6 07:       eeu (1r)        res[r6]
             0x000109f8: 09 5c:       ldw (ru6)       r0, sp[0x9]
             0x000109fa: c8 5d:       ldw (ru6)       r7, sp[0x8]
             0x000109fc: ec 07:       waiteu (0r)     
.label56     0x000109fe: 11 4f:       outct (rus)     res[r4], 0x1
             0x00010a00: 11 cf:       chkct (rus)     res[r4], 0x1
             0x00010a02: 00 68:       ldc (ru6)       r0, 0x0
             0x00010a04: 80 af:       out (r2r)       res[r4], r0
             0x00010a06: 11 4f:       outct (rus)     res[r4], 0x1
             0x00010a08: 11 cf:       chkct (rus)     res[r4], 0x1
             0x00010a0a: 01 f0 35 73: bu (lu6)        0x75 <.label55>
.label51     0x00010a0e: 11 cf:       chkct (rus)     res[r4], 0x1
             0x00010a10: 11 4f:       outct (rus)     res[r4], 0x1
             0x00010a12: 8c b7:       in (2r)         r3, res[r4]
             0x00010a14: 11 cf:       chkct (rus)     res[r4], 0x1
             0x00010a16: 11 4f:       outct (rus)     res[r4], 0x1
             0x00010a18: e7 4f:       ecallf (1r)     r7
             0x00010a1a: 35 08:       ldw (2rus)      r3, r1[0x1]
             0x00010a1c: 3d b0:       eq (2rus)       r3, r3, 0x1
             0x00010a1e: d1 74:       bt (ru6)        r3, -0x11 <.label56>
             0x00010a20: dd a6:       mkmsk (rus)     r3, 0x1
             0x00010a22: 35 00:       stw (2rus)      r3, r1[0x1]
             0x00010a24: 42 68:       ldc (ru6)       r1, 0x2
             0x00010a26: 01 c8:       lsu (3r)        r0, r0, r1
             0x00010a28: f0 4f:       ecallt (1r)     r0
             0x00010a2a: 39 00:       stw (2rus)      r3, r2[0x1]
             0x00010a2c: 11 4f:       outct (rus)     res[r4], 0x1
             0x00010a2e: 11 cf:       chkct (rus)     res[r4], 0x1
             0x00010a30: 8c af:       out (r2r)       res[r4], r3
             0x00010a32: 11 4f:       outct (rus)     res[r4], 0x1
             0x00010a34: 11 cf:       chkct (rus)     res[r4], 0x1
             0x00010a36: 01 f0 1f 73: bu (lu6)        0x5f <.label55>
.label57     0x00010a3a: 15 4f:       outct (rus)     res[r5], 0x1
             0x00010a3c: 15 cf:       chkct (rus)     res[r5], 0x1
             0x00010a3e: 00 68:       ldc (ru6)       r0, 0x0
             0x00010a40: 81 af:       out (r2r)       res[r5], r0
             0x00010a42: 15 4f:       outct (rus)     res[r5], 0x1
             0x00010a44: 15 cf:       chkct (rus)     res[r5], 0x1
             0x00010a46: 01 f0 17 73: bu (lu6)        0x57 <.label55>
.label52     0x00010a4a: dd a6:       mkmsk (rus)     r3, 0x1
             0x00010a4c: ff ca:       lsu (3r)        r11, r3, r7
             0x00010a4e: 15 cf:       chkct (rus)     res[r5], 0x1
             0x00010a50: 15 4f:       outct (rus)     res[r5], 0x1
             0x00010a52: c1 b7:       in (2r)         r4, res[r5]
             0x00010a54: 15 cf:       chkct (rus)     res[r5], 0x1
             0x00010a56: 15 4f:       outct (rus)     res[r5], 0x1
             0x00010a58: eb 4f:       ecallf (1r)     r11
             0x00010a5a: 37 0d:       ldw (2rus)      r11, r1[0xb]
             0x00010a5c: 3d b2:       eq (2rus)       r11, r11, 0x1
             0x00010a5e: d3 76:       bt (ru6)        r11, -0x13 <.label57>
             0x00010a60: b7 04:       stw (2rus)      r3, r1[0xb]
             0x00010a62: 01 f0 70 68: ldc (lru6)      r1, 0x70
             0x00010a66: 01 c8:       lsu (3r)        r0, r0, r1
             0x00010a68: f0 4f:       ecallt (1r)     r0
             0x00010a6a: 06 f0 3c 68: ldc (lru6)      r0, 0x1bc
             0x00010a6e: 08 10:       add (3r)        r0, r2, r0
             0x00010a70: 30 00:       stw (2rus)      r3, r0[0x0]
             0x00010a72: 15 4f:       outct (rus)     res[r5], 0x1
             0x00010a74: 15 cf:       chkct (rus)     res[r5], 0x1
             0x00010a76: 8d af:       out (r2r)       res[r5], r3
             0x00010a78: 15 4f:       outct (rus)     res[r5], 0x1
             0x00010a7a: 15 cf:       chkct (rus)     res[r5], 0x1
             0x00010a7c: 3d 73:       bu (u6)         0x3d <.label55>
.label58     0x00010a7e: dd 4e:       outct (rus)     res[r3], 0x1
             0x00010a80: dd ce:       chkct (rus)     res[r3], 0x1
             0x00010a82: 00 68:       ldc (ru6)       r0, 0x0
             0x00010a84: c3 ae:       out (r2r)       res[r3], r0
             0x00010a86: dd 4e:       outct (rus)     res[r3], 0x1
             0x00010a88: dd ce:       chkct (rus)     res[r3], 0x1
             0x00010a8a: 36 73:       bu (u6)         0x36 <.label55>
.label53     0x00010a8c: 5d a7:       mkmsk (rus)     r11, 0x1
             0x00010a8e: 0f cc:       lsu (3r)        r4, r11, r7
             0x00010a90: dd ce:       chkct (rus)     res[r3], 0x1
             0x00010a92: dd 4e:       outct (rus)     res[r3], 0x1
             0x00010a94: 07 b7:       in (2r)         r5, res[r3]
             0x00010a96: dd ce:       chkct (rus)     res[r3], 0x1
             0x00010a98: dd 4e:       outct (rus)     res[r3], 0x1
             0x00010a9a: e4 4f:       ecallf (1r)     r4
             0x00010a9c: c7 0c:       ldw (2rus)      r4, r1[0xb]
             0x00010a9e: 01 b1:       eq (2rus)       r4, r4, 0x1
             0x00010aa0: 12 75:       bt (ru6)        r4, -0x12 <.label58>
             0x00010aa2: 37 05:       stw (2rus)      r11, r1[0xb]
             0x00010aa4: 42 68:       ldc (ru6)       r1, 0x2
             0x00010aa6: 01 c8:       lsu (3r)        r0, r0, r1
             0x00010aa8: f0 4f:       ecallt (1r)     r0
             0x00010aaa: b9 00:       stw (2rus)      r11, r2[0x1]
             0x00010aac: dd 4e:       outct (rus)     res[r3], 0x1
             0x00010aae: dd ce:       chkct (rus)     res[r3], 0x1
             0x00010ab0: 4f af:       out (r2r)       res[r3], r11
             0x00010ab2: dd 4e:       outct (rus)     res[r3], 0x1
             0x00010ab4: dd ce:       chkct (rus)     res[r3], 0x1
             0x00010ab6: 20 73:       bu (u6)         0x20 <.label55>
.label59     0x00010ab8: 19 4f:       outct (rus)     res[r6], 0x1
             0x00010aba: 19 cf:       chkct (rus)     res[r6], 0x1
             0x00010abc: 00 68:       ldc (ru6)       r0, 0x0
             0x00010abe: 82 af:       out (r2r)       res[r6], r0
             0x00010ac0: 19 4f:       outct (rus)     res[r6], 0x1
             0x00010ac2: 19 cf:       chkct (rus)     res[r6], 0x1
             0x00010ac4: 19 73:       bu (u6)         0x19 <.label55>
.label54     0x00010ac6: dd a6:       mkmsk (rus)     r3, 0x1
             0x00010ac8: ff ca:       lsu (3r)        r11, r3, r7
             0x00010aca: 19 cf:       chkct (rus)     res[r6], 0x1
             0x00010acc: 19 4f:       outct (rus)     res[r6], 0x1
             0x00010ace: c2 b7:       in (2r)         r4, res[r6]
             0x00010ad0: 19 cf:       chkct (rus)     res[r6], 0x1
             0x00010ad2: 19 4f:       outct (rus)     res[r6], 0x1
             0x00010ad4: eb 4f:       ecallf (1r)     r11
             0x00010ad6: 36 0d:       ldw (2rus)      r11, r1[0xa]
             0x00010ad8: 3d b2:       eq (2rus)       r11, r11, 0x1
             0x00010ada: d2 76:       bt (ru6)        r11, -0x12 <.label59>
             0x00010adc: b6 04:       stw (2rus)      r3, r1[0xa]
             0x00010ade: 01 f0 70 68: ldc (lru6)      r1, 0x70
             0x00010ae2: 01 c8:       lsu (3r)        r0, r0, r1
             0x00010ae4: f0 4f:       ecallt (1r)     r0
             0x00010ae6: 06 f0 3c 68: ldc (lru6)      r0, 0x1bc
             0x00010aea: 08 10:       add (3r)        r0, r2, r0
             0x00010aec: 30 00:       stw (2rus)      r3, r0[0x0]
             0x00010aee: 19 4f:       outct (rus)     res[r6], 0x1
             0x00010af0: 19 cf:       chkct (rus)     res[r6], 0x1
             0x00010af2: 8e af:       out (r2r)       res[r6], r3
             0x00010af4: 19 4f:       outct (rus)     res[r6], 0x1
             0x00010af6: 19 cf:       chkct (rus)     res[r6], 0x1
.label55     0x00010af8: c0 5d:       ldw (ru6)       r7, sp[0x0]
             0x00010afa: 81 5d:       ldw (ru6)       r6, sp[0x1]
             0x00010afc: 42 5d:       ldw (ru6)       r5, sp[0x2]
             0x00010afe: 03 5d:       ldw (ru6)       r4, sp[0x3]
             0x00010b00: c4 77:       retsp (u6)      0x4

<_DoException>:
             0x00010b02: ed 07:       clre (0r)       
             0x00010b04: ec 07:       waiteu (0r)     

<__builtin_getid>:
             0x00010b06: ee 17:       get (0r)        r11, id
             0x00010b08: 8c 91:       add (2rus)      r0, r11, 0x0
             0x00010b0a: c0 77:       retsp (u6)      0x0

<__child_cleanup>:
             0x00010b0c: ee 07:       ssync (0r)      
             0x00010b0e: 00 00:       stw (2rus)      r0, r0[0x0]

<__libc_done>:
             0x00010b10: 40 68:       ldc (ru6)       r1, 0x0
             0x00010b12: 41 77:       entsp (u6)      0x1
             0x00010b14: 04 90:       add (2rus)      r0, r1, 0x0
             0x00010b16: 00 f0 8b d1: bl (lu10)       0x18b <__call_exitprocs>
             0x00010b1a: 00 f0 9d d1: bl (lu10)       0x19d <_cleanup>
             0x00010b1e: 00 f0 32 d2: bl (lu10)       0x232 <.label60>
             0x00010b22: 00 f0 9d d1: bl (lu10)       0x19d <_done>

<_exit>:
             0x00010b26: 10 90:       add (2rus)      r1, r0, 0x0
             0x00010b28: 00 68:       ldc (ru6)       r0, 0x0
             0x00010b2a: 00 f0 7f d1: bl (lu10)       0x17f <_DoSyscall>
             0x00010b2e: ed 07:       clre (0r)       
             0x00010b30: ec 07:       waiteu (0r)     
             0x00010b32: 00 00:       stw (2rus)      r0, r0[0x0]

<_exit_unlocked>:
             0x00010b34: 40 68:       ldc (ru6)       r1, 0x0
             0x00010b36: 42 77:       entsp (u6)      0x2
             0x00010b38: 01 55:       stw (ru6)       r4, sp[0x1]
             0x00010b3a: 40 90:       add (2rus)      r4, r0, 0x0
             0x00010b3c: c0 90:       add (2rus)      r0, r4, 0x0
             0x00010b3e: 00 f0 77 d1: bl (lu10)       0x177 <__call_exitprocs>
             0x00010b42: 00 f0 89 d1: bl (lu10)       0x189 <_cleanup>
             0x00010b46: 00 f0 1e d2: bl (lu10)       0x21e <.label60>
             0x00010b4a: c0 90:       add (2rus)      r0, r4, 0x0
             0x00010b4c: 00 f0 15 d4: bl (lu10)       -0x15 <_exit>

<exit>:
             0x00010b50: 42 77:       entsp (u6)      0x2
             0x00010b52: 01 55:       stw (ru6)       r4, sp[0x1]
             0x00010b54: 40 90:       add (2rus)      r4, r0, 0x0
             0x00010b56: 01 f0 27 60: ldaw (lru6)     r0, dp[0x67]
             0x00010b5a: 00 f0 71 d1: bl (lu10)       0x171 <__spin_lock_try_acquire>
             0x00010b5e: 02 70:       bt (ru6)        r0, 0x2 <.label61>
             0x00010b60: ed 07:       clre (0r)       
             0x00010b62: ec 07:       waiteu (0r)     
.label61     0x00010b64: c0 90:       add (2rus)      r0, r4, 0x0
             0x00010b66: 1a d4:       bl (u10)        -0x1a <_exit_unlocked>

<xscope_output_data>:
             0x00010b68: 45 77:       entsp (u6)      0x5
             0x00010b6a: 04 55:       stw (ru6)       r4, sp[0x4]
             0x00010b6c: 43 55:       stw (ru6)       r5, sp[0x3]
             0x00010b6e: 82 55:       stw (ru6)       r6, sp[0x2]
             0x00010b70: c1 55:       stw (ru6)       r7, sp[0x1]
             0x00010b72: 44 90:       add (2rus)      r4, r1, 0x0
             0x00010b74: 50 90:       add (2rus)      r5, r0, 0x0
             0x00010b76: 01 f0 69 58: ldw (lru6)      r1, dp[0x69]
             0x00010b7a: 41 70:       bt (ru6)        r1, 0x1 <.label62>
             0x00010b7c: 85 87:       getr (rus)      r1, 0x5
.label62     0x00010b7e: c9 b6:       in (2r)         r2, res[r1]
             0x00010b80: 01 f0 69 50: stw (lru6)      r1, dp[0x69]
             0x00010b84: 00 f0 7a d1: bl (lu10)       0x17a <xscope_gettime>
             0x00010b88: 60 90:       add (2rus)      r6, r0, 0x0
             0x00010b8a: 01 f0 2a 58: ldw (lru6)      r0, dp[0x6a]
             0x00010b8e: 02 b0:       eq (2rus)       r0, r0, 0x2
             0x00010b90: 06 78:       bf (ru6)        r0, 0x6 <.label63>
             0x00010b92: 02 93:       add (2rus)      r0, r4, 0x6
             0x00010b94: 30 47:       zext (rus)      r0, 0x8
             0x00010b96: 00 f0 7d d1: bl (lu10)       0x17d <xscope_xlink_put_ch>
             0x00010b9a: 29 68:       ldc (ru6)       r0, 0x29
             0x00010b9c: 05 73:       bu (u6)         0x5 <.label64>
.label63     0x00010b9e: c2 90:       add (2rus)      r0, r4, 0x2
             0x00010ba0: 30 47:       zext (rus)      r0, 0x8
             0x00010ba2: 00 f0 77 d1: bl (lu10)       0x177 <xscope_xlink_put_ch>
             0x00010ba6: 28 68:       ldc (ru6)       r0, 0x28
.label64     0x00010ba8: 00 f0 74 d1: bl (lu10)       0x174 <xscope_xlink_put_ch>
             0x00010bac: 01 f0 2a 58: ldw (lru6)      r0, dp[0x6a]
             0x00010bb0: 02 b0:       eq (2rus)       r0, r0, 0x2
             0x00010bb2: 10 78:       bf (ru6)        r0, 0x10 <.label65>
             0x00010bb4: b8 ad:       shr (2rus)      r7, r6, 0x8
             0x00010bb6: c8 90:       add (2rus)      r0, r6, 0x0
             0x00010bb8: 30 47:       zext (rus)      r0, 0x8
             0x00010bba: 00 f0 6b d1: bl (lu10)       0x16b <xscope_xlink_put_ch>
             0x00010bbe: 7c 47:       zext (rus)      r7, 0x8
             0x00010bc0: cc 90:       add (2rus)      r0, r7, 0x0
             0x00010bc2: 00 f0 67 d1: bl (lu10)       0x167 <xscope_xlink_put_ch>
             0x00010bc6: 49 ad:       shr (2rus)      r0, r6, 0x10
             0x00010bc8: 30 47:       zext (rus)      r0, 0x8
             0x00010bca: 00 f0 63 d1: bl (lu10)       0x163 <xscope_xlink_put_ch>
             0x00010bce: 4a ad:       shr (2rus)      r0, r6, 0x18
             0x00010bd0: 00 f0 60 d1: bl (lu10)       0x160 <xscope_xlink_put_ch>
.label65     0x00010bd4: fc f3 00 68: ldc (lru6)      r0, 0xff00
             0x00010bd8: 20 39:       and (3r)        r6, r4, r0
             0x00010bda: c0 90:       add (2rus)      r0, r4, 0x0
             0x00010bdc: 30 47:       zext (rus)      r0, 0x8
             0x00010bde: 00 f0 59 d1: bl (lu10)       0x159 <xscope_xlink_put_ch>
             0x00010be2: 48 ad:       shr (2rus)      r0, r6, 0x8
             0x00010be4: 00 f0 56 d1: bl (lu10)       0x156 <xscope_xlink_put_ch>
             0x00010be8: 07 79:       bf (ru6)        r4, 0x7 <.label66>
             0x00010bea: 80 69:       ldc (ru6)       r6, 0x0
.label67     0x00010bec: 06 8b:       ld8u (3r)       r0, r5[r6]
             0x00010bee: 00 f0 51 d1: bl (lu10)       0x151 <xscope_xlink_put_ch>
             0x00010bf2: 29 91:       add (2rus)      r6, r6, 0x1
             0x00010bf4: 08 33:       eq (3r)         r0, r6, r4
             0x00010bf6: 06 7c:       bf (ru6)        r0, -0x6 <.label67>
.label66     0x00010bf8: 00 f0 5b d1: bl (lu10)       0x15b <xscope_xlink_put_ct>
             0x00010bfc: 01 f0 29 58: ldw (lru6)      r0, dp[0x69]
             0x00010c00: c0 ae:       out (r2r)       res[r0], r0
             0x00010c02: c1 5d:       ldw (ru6)       r7, sp[0x1]
             0x00010c04: 82 5d:       ldw (ru6)       r6, sp[0x2]
             0x00010c06: 43 5d:       ldw (ru6)       r5, sp[0x3]
             0x00010c08: 04 5d:       ldw (ru6)       r4, sp[0x4]
             0x00010c0a: c5 77:       retsp (u6)      0x5

<_write>:
<_write.coersed..f.7bsi.7d.28si.2cp.28c.3auc.29.2cui.29>:
             0x00010c0c: 42 77:       entsp (u6)      0x2
             0x00010c0e: 01 55:       stw (ru6)       r4, sp[0x1]
             0x00010c10: 48 90:       add (2rus)      r4, r2, 0x0
             0x00010c12: 01 f0 aa 58: ldw (lru6)      r2, dp[0x6a]
             0x00010c16: 84 78:       bf (ru6)        r2, 0x4 <.label68>
             0x00010c18: 04 90:       add (2rus)      r0, r1, 0x0
             0x00010c1a: d0 90:       add (2rus)      r1, r4, 0x0
             0x00010c1c: 5b d4:       bl (u10)        -0x5b <xscope_output_data>
             0x00010c1e: 04 73:       bu (u6)         0x4 <.label69>
.label68     0x00010c20: e0 90:       add (2rus)      r2, r4, 0x0
             0x00010c22: 00 f0 30 d1: bl (lu10)       0x130 <xscope_syscall_write>
             0x00010c26: 40 90:       add (2rus)      r4, r0, 0x0
.label69     0x00010c28: c0 90:       add (2rus)      r0, r4, 0x0
             0x00010c2a: 01 5d:       ldw (ru6)       r4, sp[0x1]
             0x00010c2c: c2 77:       retsp (u6)      0x2

<xscope_lock_init>:
             0x00010c2e: 41 77:       entsp (u6)      0x1
             0x00010c30: 81 87:       getr (rus)      r0, 0x5
             0x00010c32: 01 f0 29 50: stw (lru6)      r0, dp[0x69]
             0x00010c36: 21 f0 1d de: ldap (lu10)     r11, -0x861d <.label70>
             0x00010c3a: d1 7a:       bf (ru6)        r11, 0x11 <.label71>
             0x00010c3c: 21 f0 20 d6: bl (lu10)       -0x8620 <.label70>
             0x00010c40: 01 f0 1d 58: ldw (lru6)      r0, dp[0x5d]
             0x00010c44: 0c 78:       bf (ru6)        r0, 0xc <.label71>
             0x00010c46: 00 f0 37 d0: bl (lu10)       0x37 <get_local_tile_id>
             0x00010c4a: 67 68:       ldc (ru6)       r1, 0x27
             0x00010c4c: 00 f0 87 6c: ldw (lru6)      r2, cp[0x7]
             0x00010c50: 00 f0 06 d0: bl (lu10)       0x6 <write_pswitch_reg>
             0x00010c54: 9c f0 0b 68: ldc (lru6)      r0, 0x270b
.label72     0x00010c58: d4 fe ec 17: get (l2r)       r1, ps[r0]
             0x00010c5c: 43 74:       bt (ru6)        r1, -0x3 <.label72>
.label71     0x00010c5e: c1 77:       retsp (u6)      0x1

<write_pswitch_reg>:
             0x00010c60: 08 f3 cc 68: ldc (lru6)      r3, 0xc20c
             0x00010c64: c1 6a:       ldc (ru6)       r11, 0x1
             0x00010c66: 00 73:       bu (u6)         0x0 <write_switch_reg>

<write_switch_reg>:
             0x00010c68: 00 55:       stw (ru6)       r4, sp[0x0]
             0x00010c6a: c1 ac:       shr (2rus)      r4, r0, 0x10
             0x00010c6c: 1e 71:       bt (ru6)        r4, 0x1e <write_switch_reg_return_0>
             0x00010c6e: c5 ac:       shr (2rus)      r4, r1, 0x10
             0x00010c70: 1c 71:       bt (ru6)        r4, 0x1c <write_switch_reg_return_0>
             0x00010c72: 81 a4:       shl (2rus)      r0, r0, 0x10
             0x00010c74: 03 40:       or (3r)         r0, r0, r3
             0x00010c76: 02 87:       getr (rus)      r4, 0x2
             0x00010c78: 90 17:       setd (r2r)      res[r4], r0
             0x00010c7a: 03 f0 c0 68: ldc (lru6)      r3, 0xc0
             0x00010c7e: 03 4f:       outct (2r)      res[r4], r3
             0x00010c80: c3 7a:       bf (ru6)        r11, 0x3 <build_return_no_ack>
             0x00010c82: 40 ad:       shr (2rus)      r0, r4, 0x8
             0x00010c84: 80 a4:       shl (2rus)      r0, r0, 0x8
             0x00010c86: 04 73:       bu (u6)         0x4 <write_switch_reg_send>

<build_return_no_ack>:
             0x00010c88: 80 ac:       shr (2rus)      r0, r0, 0x8
             0x00010c8a: 3c a7:       mkmsk (rus)     r3, 0x8
             0x00010c8c: 03 40:       or (3r)         r0, r0, r3
             0x00010c8e: 80 a4:       shl (2rus)      r0, r0, 0x8

<write_switch_reg_send>:
             0x00010c90: b4 ac:       shr (2rus)      r3, r1, 0x8
             0x00010c92: 03 40:       or (3r)         r0, r0, r3
             0x00010c94: 80 af:       out (r2r)       res[r4], r0
             0x00010c96: 94 0f:       outt (r2r)      res[r4], r1
             0x00010c98: 88 af:       out (r2r)       res[r4], r2
             0x00010c9a: 11 4f:       outct (rus)     res[r4], 0x1
             0x00010c9c: c9 7a:       bf (ru6)        r11, 0x9 <write_switch_reg_free_and_return_1>
             0x00010c9e: 90 87:       inct (2r)       r0, res[r4]
             0x00010ca0: 03 b0:       eq (2rus)       r0, r0, 0x3
             0x00010ca2: 11 cf:       chkct (rus)     res[r4], 0x1
             0x00010ca4: e4 17:       freer (1r)      res[r4]
             0x00010ca6: 00 5d:       ldw (ru6)       r4, sp[0x0]
             0x00010ca8: c0 77:       retsp (u6)      0x0

<write_switch_reg_return_0>:
             0x00010caa: 00 68:       ldc (ru6)       r0, 0x0
             0x00010cac: 00 5d:       ldw (ru6)       r4, sp[0x0]
             0x00010cae: c0 77:       retsp (u6)      0x0

<write_switch_reg_free_and_return_1>:
             0x00010cb0: e4 17:       freer (1r)      res[r4]
             0x00010cb2: 01 68:       ldc (ru6)       r0, 0x1
             0x00010cb4: 00 5d:       ldw (ru6)       r4, sp[0x0]
             0x00010cb6: c0 77:       retsp (u6)      0x0

<get_local_tile_id>:
             0x00010cb8: c6 86:       getr (rus)      r1, 0x2
             0x00010cba: 85 ac:       shr (2rus)      r0, r1, 0x10
             0x00010cbc: e1 17:       freer (1r)      res[r1]
             0x00010cbe: c0 77:       retsp (u6)      0x0

<memset>:
.label92     0x00010cc0: bb a8:       shr (2rus)      r11, r2, 0x3
             0x00010cc2: dd 7a:       bf (ru6)        r11, 0x1d <.label73>
             0x00010cc4: 34 47:       zext (rus)      r1, 0x8
             0x00010cc6: 34 a5:       shl (2rus)      r11, r1, 0x8
             0x00010cc8: 97 44:       or (3r)         r1, r1, r11
             0x00010cca: 35 a5:       shl (2rus)      r11, r1, 0x10
             0x00010ccc: 97 44:       or (3r)         r1, r1, r11
             0x00010cce: 33 90:       add (2rus)      r3, r0, 0x3
             0x00010cd0: c3 6a:       ldc (ru6)       r11, 0x3
             0x00010cd2: 2f 2f:       andnot (2r)     r3, r11
             0x00010cd4: bc 18:       sub (3r)        r11, r3, r0
             0x00010cd6: c5 7a:       bf (ru6)        r11, 0x5 <.label74>
             0x00010cd8: ab 1c:       sub (3r)        r2, r2, r11
.label75     0x00010cda: 3d 9a:       sub (2rus)      r11, r11, 0x1
             0x00010cdc: 93 fc ec 8f: st8 (l3r)       r1, r0[r11]
             0x00010ce0: c4 76:       bt (ru6)        r11, -0x4 <.label75>
.label74     0x00010ce2: ba a8:       shr (2rus)      r11, r2, 0x2
.label76     0x00010ce4: 3d 9a:       sub (2rus)      r11, r11, 0x1
             0x00010ce6: 9f fc ec 07: stw (l3r)       r1, r3[r11]
             0x00010cea: c4 76:       bt (ru6)        r11, -0x4 <.label76>
             0x00010cec: 3e 10:       add (3r)        r3, r3, r2
             0x00010cee: da 46:       zext (rus)      r2, 0x2
             0x00010cf0: 85 78:       bf (ru6)        r2, 0x5 <.label77>
             0x00010cf2: 3e 18:       sub (3r)        r3, r3, r2
.label78     0x00010cf4: 29 98:       sub (2rus)      r2, r2, 0x1
             0x00010cf6: 1e f8 ec 8f: st8 (l3r)       r1, r3[r2]
             0x00010cfa: 84 74:       bt (ru6)        r2, -0x4 <.label78>
.label77     0x00010cfc: c0 77:       retsp (u6)      0x0
.label73     0x00010cfe: 84 78:       bf (ru6)        r2, 0x4 <.label79>
.label80     0x00010d00: 29 98:       sub (2rus)      r2, r2, 0x1
             0x00010d02: 12 f8 ec 8f: st8 (l3r)       r1, r0[r2]
             0x00010d06: 84 74:       bt (ru6)        r2, -0x4 <.label80>
.label79     0x00010d08: c0 77:       retsp (u6)      0x0

<printchar>:
             0x00010d0a: 42 77:       entsp (u6)      0x2
             0x00010d0c: 80 68:       ldc (ru6)       r2, 0x0
             0x00010d0e: 41 64:       ldaw (ru6)      r1, sp[0x1]
             0x00010d10: 06 f8 ec 8f: st8 (l3r)       r0, r1[r2]
             0x00010d14: dd a6:       mkmsk (rus)     r3, 0x1
             0x00010d16: 0c 90:       add (2rus)      r0, r3, 0x0
             0x00010d18: 2c 90:       add (2rus)      r2, r3, 0x0
             0x00010d1a: 00 f0 89 d4: bl (lu10)       -0x89 <_write> <_write.coersed..f.7bsi.7d.28si.2cp.28c.3auc.29.2cui.29>
             0x00010d1e: c2 77:       retsp (u6)      0x2

<printhexln>:
             0x00010d20: 42 77:       entsp (u6)      0x2
             0x00010d22: 01 55:       stw (ru6)       r4, sp[0x1]
             0x00010d24: 50 68:       ldc (ru6)       r1, 0x10
             0x00010d26: 2c d0:       bl (u10)        0x2c <printuint_base>
             0x00010d28: 40 90:       add (2rus)      r4, r0, 0x0
             0x00010d2a: c0 f8 ec 97: ashr (l2rus)    r0, r4, 0x20
             0x00010d2e: 0e 70:       bt (ru6)        r0, 0xe <.label81>
             0x00010d30: 01 f0 5f 60: ldaw (lru6)     r1, dp[0x5f]
             0x00010d34: dd a6:       mkmsk (rus)     r3, 0x1
             0x00010d36: 0c 90:       add (2rus)      r0, r3, 0x0
             0x00010d38: 2c 90:       add (2rus)      r2, r3, 0x0
             0x00010d3a: 00 f0 99 d4: bl (lu10)       -0x99 <_write> <_write.coersed..f.7bsi.7d.28si.2cp.28c.3auc.29.2cui.29>
             0x00010d3e: 10 f8 ec 97: ashr (l2rus)    r1, r0, 0x20
             0x00010d42: 41 78:       bf (ru6)        r1, 0x1 <.label82>
             0x00010d44: 00 69:       ldc (ru6)       r4, 0x0
.label82     0x00010d46: c0 10:       add (3r)        r0, r4, r0
             0x00010d48: 01 5d:       ldw (ru6)       r4, sp[0x1]
             0x00010d4a: c2 77:       retsp (u6)      0x2
.label81     0x00010d4c: c0 90:       add (2rus)      r0, r4, 0x0
             0x00010d4e: 01 5d:       ldw (ru6)       r4, sp[0x1]
             0x00010d50: c2 77:       retsp (u6)      0x2

<reverse_array>:
             0x00010d52: 41 77:       entsp (u6)      0x1
             0x00010d54: 00 55:       stw (ru6)       r4, sp[0x0]
             0x00010d56: 15 98:       sub (2rus)      r1, r1, 0x1
             0x00010d58: dd a6:       mkmsk (rus)     r3, 0x1
             0x00010d5a: 37 c0:       lss (3r)        r3, r1, r3
             0x00010d5c: cf 70:       bt (ru6)        r3, 0xf <.label83>
             0x00010d5e: c0 68:       ldc (ru6)       r3, 0x0
.label84     0x00010d60: be c8:       lsu (3r)        r11, r3, r2
             0x00010d62: eb 4f:       ecallf (1r)     r11
             0x00010d64: b6 c8:       lsu (3r)        r11, r1, r2
             0x00010d66: eb 4f:       ecallf (1r)     r11
             0x00010d68: b3 88:       ld8u (3r)       r11, r0[r3]
             0x00010d6a: 41 88:       ld8u (3r)       r4, r0[r1]
             0x00010d6c: 43 f8 ec 8f: st8 (l3r)       r4, r0[r3]
             0x00010d70: b1 f8 ec 8f: st8 (l3r)       r11, r0[r1]
             0x00010d74: 15 98:       sub (2rus)      r1, r1, 0x1
             0x00010d76: 3d 90:       add (2rus)      r3, r3, 0x1
             0x00010d78: bd c0:       lss (3r)        r11, r3, r1
             0x00010d7a: ce 76:       bt (ru6)        r11, -0xe <.label84>
.label83     0x00010d7c: 00 5d:       ldw (ru6)       r4, sp[0x0]
             0x00010d7e: c1 77:       retsp (u6)      0x1

<printuint_base>:
             0x00010d80: 4d 77:       entsp (u6)      0xd
             0x00010d82: 0c 55:       stw (ru6)       r4, sp[0xc]
             0x00010d84: 4b 55:       stw (ru6)       r5, sp[0xb]
             0x00010d86: 8a 55:       stw (ru6)       r6, sp[0xa]
             0x00010d88: c9 55:       stw (ru6)       r7, sp[0x9]
             0x00010d8a: 03 70:       bt (ru6)        r0, 0x3 <.label85>
             0x00010d8c: 30 68:       ldc (ru6)       r0, 0x30
             0x00010d8e: 43 d4:       bl (u10)        -0x43 <printchar>
             0x00010d90: 1f 73:       bu (u6)         0x1f <.label86>
.label85     0x00010d92: 00 69:       ldc (ru6)       r4, 0x0
             0x00010d94: 99 a7:       mkmsk (rus)     r2, 0x5
             0x00010d96: d0 68:       ldc (ru6)       r3, 0x10
             0x00010d98: 01 f0 e0 62: ldaw (lru6)     r11, dp[0x60]
             0x00010d9c: 41 65:       ldaw (ru6)      r5, sp[0x1]
.label87     0x00010d9e: 61 f8 ec cf: remu (l3r)      r6, r0, r1
             0x00010da2: 01 f8 ec 4f: divu (l3r)      r0, r0, r1
             0x00010da6: b8 ca:       lsu (3r)        r7, r2, r4
             0x00010da8: f7 4f:       ecallt (1r)     r7
             0x00010daa: be ca:       lsu (3r)        r7, r3, r6
             0x00010dac: f7 4f:       ecallt (1r)     r7
             0x00010dae: 2e 8c:       ld8u (3r)       r6, r11[r6]
             0x00010db0: 64 fb ec 8f: st8 (l3r)       r6, r5[r4]
             0x00010db4: 01 91:       add (2rus)      r4, r4, 0x1
             0x00010db6: 0d 74:       bt (ru6)        r0, -0xd <.label87>
             0x00010db8: 81 65:       ldaw (ru6)      r6, sp[0x1]
             0x00010dba: 60 69:       ldc (ru6)       r5, 0x20
             0x00010dbc: c8 90:       add (2rus)      r0, r6, 0x0
             0x00010dbe: d0 90:       add (2rus)      r1, r4, 0x0
             0x00010dc0: e4 90:       add (2rus)      r2, r5, 0x0
             0x00010dc2: 39 d4:       bl (u10)        -0x39 <reverse_array>
             0x00010dc4: d1 a6:       mkmsk (rus)     r0, 0x1
             0x00010dc6: d8 90:       add (2rus)      r1, r6, 0x0
             0x00010dc8: e0 90:       add (2rus)      r2, r4, 0x0
             0x00010dca: f4 90:       add (2rus)      r3, r5, 0x0
             0x00010dcc: 00 f0 e2 d4: bl (lu10)       -0xe2 <_write> <_write.coersed..f.7bsi.7d.28si.2cp.28c.3auc.29.2cui.29>
.label86     0x00010dd0: c9 5d:       ldw (ru6)       r7, sp[0x9]
             0x00010dd2: 8a 5d:       ldw (ru6)       r6, sp[0xa]
             0x00010dd4: 4b 5d:       ldw (ru6)       r5, sp[0xb]
             0x00010dd6: 0c 5d:       ldw (ru6)       r4, sp[0xc]
             0x00010dd8: cd 77:       retsp (u6)      0xd
             0x00010dda: 00 00:       stw (2rus)      r0, r0[0x0]

<srand>:
             0x00010ddc: 01 f0 8b 60: ldaw (lru6)     r2, dp[0x4b]
             0x00010de0: ee 17:       get (0r)        r11, id
             0x00010de2: 9f a1:       shl (2rus)      r1, r11, 0x3
             0x00010de4: 19 10:       add (3r)        r1, r2, r1
             0x00010de6: 80 68:       ldc (ru6)       r2, 0x0
             0x00010de8: 25 00:       stw (2rus)      r2, r1[0x1]
             0x00010dea: 04 00:       stw (2rus)      r0, r1[0x0]
             0x00010dec: c0 77:       retsp (u6)      0x0
             0x00010dee: 00 90:       add (2rus)      r0, r0, 0x0

<rand>:
             0x00010df0: 41 77:       entsp (u6)      0x1
             0x00010df2: ee 17:       get (0r)        r11, id
             0x00010df4: 00 55:       stw (ru6)       r4, sp[0x0]
             0x00010df6: 8f a1:       shl (2rus)      r0, r11, 0x3
             0x00010df8: 01 f0 4b 60: ldaw (lru6)     r1, dp[0x4b]
             0x00010dfc: 04 10:       add (3r)        r0, r1, r0
             0x00010dfe: 11 08:       ldw (2rus)      r1, r0[0x1]
             0x00010e00: 30 08:       ldw (2rus)      r3, r0[0x0]
             0x00010e02: 00 f0 88 6c: ldw (lru6)      r2, cp[0x8]
             0x00010e06: 11 a7:       mkmsk (rus)     r4, 0x1
             0x00010e08: c0 6a:       ldc (ru6)       r11, 0x0
             0x00010e0a: be f8 f4 07: maccu (l4r)     r11, r4, r3, r2
             0x00010e0e: 40 00:       stw (2rus)      r4, r0[0x0]
             0x00010e10: 00 f0 09 6d: ldw (lru6)      r4, cp[0x9]
             0x00010e14: 7c fa ec 3f: mul (l3r)       r3, r3, r4
             0x00010e18: 16 f8 ec 3f: mul (l3r)       r1, r1, r2
             0x00010e1c: bf 11:       add (3r)        r3, r11, r3
             0x00010e1e: 1d 10:       add (3r)        r1, r3, r1
             0x00010e20: 11 00:       stw (2rus)      r1, r0[0x1]
             0x00010e22: 00 f0 0a 6c: ldw (lru6)      r0, cp[0xa]
             0x00010e26: 04 38:       and (3r)        r0, r1, r0
             0x00010e28: 00 5d:       ldw (ru6)       r4, sp[0x0]
             0x00010e2a: c1 77:       retsp (u6)      0x1

<_DoSyscall>:
             0x00010e2c: d0 a6:       mkmsk (rus)     r0, 0x20
             0x00010e2e: c0 77:       retsp (u6)      0x0

<__call_exitprocs>:
             0x00010e30: 41 77:       entsp (u6)      0x1
             0x00010e32: 00 f0 c5 d0: bl (lu10)       0xc5 <.label88>
             0x00010e36: c1 77:       retsp (u6)      0x1

<__alloc_libc_hwlock>:
.label95     0x00010e38: 81 87:       getr (rus)      r0, 0x5
             0x00010e3a: 01 f0 2b 50: stw (lru6)      r0, dp[0x6b]
             0x00010e3e: c0 77:       retsp (u6)      0x0

<__spin_lock_try_acquire>:
             0x00010e40: d9 a6:       mkmsk (rus)     r2, 0x1
             0x00010e42: 01 f0 6b 58: ldw (lru6)      r1, dp[0x6b]
             0x00010e46: c5 b6:       in (2r)         r1, res[r1]
             0x00010e48: 10 08:       ldw (2rus)      r1, r0[0x0]
             0x00010e4a: 20 00:       stw (2rus)      r2, r0[0x0]
             0x00010e4c: 04 b0:       eq (2rus)       r0, r1, 0x0
             0x00010e4e: 01 f0 6b 58: ldw (lru6)      r1, dp[0x6b]
             0x00010e52: c5 ae:       out (r2r)       res[r1], r1
             0x00010e54: c0 77:       retsp (u6)      0x0
             0x00010e56: 00 00:       stw (2rus)      r0, r0[0x0]

<_cleanup>:
             0x00010e58: 41 77:       entsp (u6)      0x1
             0x00010e5a: 00 f0 b3 d0: bl (lu10)       0xb3 <.label89>
             0x00010e5e: c1 77:       retsp (u6)      0x1

<_done>:
             0x00010e60: 07 68:       ldc (ru6)       r0, 0x7
             0x00010e62: 00 f0 1d d4: bl (lu10)       -0x1d <_DoSyscall>
             0x00010e66: ed 07:       clre (0r)       
             0x00010e68: ec 07:       waiteu (0r)     
             0x00010e6a: 00 00:       stw (2rus)      r0, r0[0x0]

<xscope_tmr.ctor>:
             0x00010e6c: c1 86:       getr (rus)      r0, 0x1
             0x00010e6e: 01 f0 2c 50: stw (lru6)      r0, dp[0x6c]
             0x00010e72: c0 77:       retsp (u6)      0x0

<xscope_tmr.dtor>:
             0x00010e74: 01 f0 2c 58: ldw (lru6)      r0, dp[0x6c]
             0x00010e78: e0 17:       freer (1r)      res[r0]
             0x00010e7a: c0 77:       retsp (u6)      0x0

<xscope_gettime>:
             0x00010e7c: 01 f0 2c 58: ldw (lru6)      r0, dp[0x6c]
             0x00010e80: 01 e8:       setc (ru6)      res[r0], 0x1
             0x00010e82: c0 b6:       in (2r)         r0, res[r0]
             0x00010e84: c0 77:       retsp (u6)      0x0

<xscope_syscall_write>:
             0x00010e86: 38 90:       add (2rus)      r3, r2, 0x0
             0x00010e88: 24 90:       add (2rus)      r2, r1, 0x0
             0x00010e8a: 10 90:       add (2rus)      r1, r0, 0x0
             0x00010e8c: 06 68:       ldc (ru6)       r0, 0x6
             0x00010e8e: 00 f0 18 73: bu (lu6)        0x18 <_DoSyscallErrno>
             0x00010e92: 00 00:       stw (2rus)      r0, r0[0x0]

<xscope_xlink_put_ch>:
             0x00010e94: 01 f0 5d 58: ldw (lru6)      r1, dp[0x5d]
             0x00010e98: 4b 78:       bf (ru6)        r1, 0xb <xscope_xlink_put_ch_ret>
             0x00010e9a: 01 f0 a8 58: ldw (lru6)      r2, dp[0x68]
             0x00010e9e: 87 70:       bt (ru6)        r2, 0x7 <xscope_xlink_outt>
             0x00010ea0: 01 f0 5e 58: ldw (lru6)      r1, dp[0x5e]
             0x00010ea4: 45 78:       bf (ru6)        r1, 0x5 <xscope_xlink_put_ch_ret>
             0x00010ea6: ca 86:       getr (rus)      r2, 0x2
             0x00010ea8: d6 16:       setd (r2r)      res[r2], r1
             0x00010eaa: 01 f0 a8 50: stw (lru6)      r2, dp[0x68]

<xscope_xlink_outt>:
             0x00010eae: d2 0e:       outt (r2r)      res[r2], r0

<xscope_xlink_put_ch_ret>:
             0x00010eb0: c0 77:       retsp (u6)      0x0

<xscope_xlink_put_ct>:
             0x00010eb2: 01 f0 5d 58: ldw (lru6)      r1, dp[0x5d]
             0x00010eb6: 44 78:       bf (ru6)        r1, 0x4 <xscope_xlink_put_ct_ret>
             0x00010eb8: 01 f0 a8 58: ldw (lru6)      r2, dp[0x68]
             0x00010ebc: 81 78:       bf (ru6)        r2, 0x1 <xscope_xlink_put_ct_ret>
             0x00010ebe: d9 4e:       outct (rus)     res[r2], 0x1

<xscope_xlink_put_ct_ret>:
             0x00010ec0: c0 77:       retsp (u6)      0x0

<_DoSyscallErrno>:
             0x00010ec2: 42 77:       entsp (u6)      0x2
             0x00010ec4: 00 f0 4e d4: bl (lu10)       -0x4e <_DoSyscall>
             0x00010ec8: c4 8e:       not (2r)        r1, r0
             0x00010eca: 57 aa:       shr (2rus)      r1, r1, 0x7
             0x00010ecc: 41 78:       bf (ru6)        r1, 0x1 <.label90>
             0x00010ece: c2 77:       retsp (u6)      0x2
.label90     0x00010ed0: c4 96:       neg (2r)        r1, r0
             0x00010ed2: 41 54:       stw (ru6)       r1, sp[0x1]
             0x00010ed4: 00 f0 04 d0: bl (lu10)       0x4 <__errno>
             0x00010ed8: 41 5c:       ldw (ru6)       r1, sp[0x1]
             0x00010eda: 10 00:       stw (2rus)      r1, r0[0x0]
             0x00010edc: d0 a6:       mkmsk (rus)     r0, 0x20
             0x00010ede: c2 77:       retsp (u6)      0x2

<__errno>:
             0x00010ee0: 01 f0 2d 60: ldaw (lru6)     r0, dp[0x6d]
             0x00010ee4: ee 17:       get (0r)        r11, id
             0x00010ee6: 83 fc ec 1f: ldaw (l3r)      r0, r0[r11]
             0x00010eea: c0 77:       retsp (u6)      0x0

<xc_check_maze.coersed..f.7bui.7d.28ui.2cp.28a.2810.3aui.29.29.2cui.2cui.2cui.2cui.2cui.29>:
             0x00010eec: 82 77:       extsp (u6)      0x2
             0x00010eee: c3 5e:       ldw (ru6)       r11, sp[0x3]
             0x00010ef0: c1 56:       stw (ru6)       r11, sp[0x1]
             0x00010ef2: c4 5e:       ldw (ru6)       r11, sp[0x4]
             0x00010ef4: c2 56:       stw (ru6)       r11, sp[0x2]
             0x00010ef6: c5 5e:       ldw (ru6)       r11, sp[0x5]
             0x00010ef8: c3 56:       stw (ru6)       r11, sp[0x3]
             0x00010efa: c5 57:       stw (ru6)       lr, sp[0x5]
             0x00010efc: 5c a7:       mkmsk (rus)     r11, 0x20
             0x00010efe: c4 56:       stw (ru6)       r11, sp[0x4]
             0x00010f00: 00 f0 c0 d6: bl (lu10)       -0x2c0 <xc_check_maze> <xc_check_maze.coersed..f.7bui.7d.28ui.2c.26.28a.28.3aa.2810.3aui.29.29.29.2cui.2cui.2cui.2cui.2cui.29>
             0x00010f04: c5 5f:       ldw (ru6)       lr, sp[0x5]
             0x00010f06: 82 67:       ldaw (ru6)      sp, sp[0x2]
             0x00010f08: c0 77:       retsp (u6)      0x0

<xc_listen_check_wall.coersed..f.7b0.7d.28ui.2cp.28a.2810.3aui.29.29.2cp.28ui.29.2cui.2cui.2cui.2cui.29>:
             0x00010f0a: 83 77:       extsp (u6)      0x3
             0x00010f0c: c4 5e:       ldw (ru6)       r11, sp[0x4]
             0x00010f0e: c1 56:       stw (ru6)       r11, sp[0x1]
             0x00010f10: c5 5e:       ldw (ru6)       r11, sp[0x5]
             0x00010f12: c2 56:       stw (ru6)       r11, sp[0x2]
             0x00010f14: c6 5e:       ldw (ru6)       r11, sp[0x6]
             0x00010f16: c3 56:       stw (ru6)       r11, sp[0x3]
             0x00010f18: c6 57:       stw (ru6)       lr, sp[0x6]
             0x00010f1a: 5c a7:       mkmsk (rus)     r11, 0x20
             0x00010f1c: c4 56:       stw (ru6)       r11, sp[0x4]
             0x00010f1e: c5 56:       stw (ru6)       r11, sp[0x5]
             0x00010f20: 00 f0 ab d6: bl (lu10)       -0x2ab <xc_listen_check_wall> <xc_listen_check_wall.coersed..f.7b0.7d.28ui.2c.26.28a.28.3aa.2810.3aui.29.29.29.2c.26.28a.28.3aui.29.29.2cchd.2cchd.2cchd.2cchd.29>
             0x00010f24: c6 5f:       ldw (ru6)       lr, sp[0x6]
             0x00010f26: 83 67:       ldaw (ru6)      sp, sp[0x3]
             0x00010f28: c0 77:       retsp (u6)      0x0

Disassembly of section .init (size: 92)

<_init>:
.label3      0x00010f2a: 41 77:       entsp (u6)      0x1
             0x00010f2c: 00 f0 7c d8: ldap (lu10)     r11, 0x7c <.label91>
             0x00010f30: 8c 91:       add (2rus)      r0, r11, 0x0
             0x00010f32: 40 68:       ldc (ru6)       r1, 0x0
             0x00010f34: 00 f0 78 d8: ldap (lu10)     r11, 0x78 <.label91>
             0x00010f38: ac 19:       sub (3r)        r2, r11, r0
             0x00010f3a: 00 f0 3f d5: bl (lu10)       -0x13f <.label92>
             0x00010f3e: 00 f0 69 d9: ldap (lu10)     r11, 0x169 <.label93>
             0x00010f42: 8c 91:       add (2rus)      r0, r11, 0x0
             0x00010f44: 40 68:       ldc (ru6)       r1, 0x0
             0x00010f46: 00 f0 93 d9: ldap (lu10)     r11, 0x193 <.label94>
             0x00010f4a: ac 19:       sub (3r)        r2, r11, r0
             0x00010f4c: 00 f0 48 d5: bl (lu10)       -0x148 <.label92>
             0x00010f50: 00 f0 8e d4: bl (lu10)       -0x8e <.label95>
             0x00010f54: 00 f0 3a d8: ldap (lu10)     r11, 0x3a <.label96>
             0x00010f58: 8c 91:       add (2rus)      r0, r11, 0x0
             0x00010f5a: 01 f0 75 60: ldaw (lru6)     r1, dp[0x75]
             0x00010f5e: 80 68:       ldc (ru6)       r2, 0x0
             0x00010f60: c0 68:       ldc (ru6)       r3, 0x0
             0x00010f62: 01 f0 5e d7: bl (lu10)       -0x75e <.label97>
             0x00010f66: 01 f0 1c 59: ldw (lru6)      r4, dp[0x5c]
             0x00010f6a: 02 a9:       shr (2rus)      r4, r4, 0x2
             0x00010f6c: 0b 79:       bf (ru6)        r4, 0xb <do_ctors_end>
             0x00010f6e: 00 f0 55 d8: ldap (lu10)     r11, 0x55 <.label98>
             0x00010f72: dc 91:       add (2rus)      r5, r11, 0x0
             0x00010f74: 01 f0 9b 59: ldw (lru6)      r6, dp[0x5b]
             0x00010f78: 66 1b:       sub (3r)        r6, r5, r6

<do_ctors_loop>:
             0x00010f7a: 01 99:       sub (2rus)      r4, r4, 0x1
             0x00010f7c: 04 4b:       ldw (3r)        r0, r5[r4]
             0x00010f7e: 42 12:       add (3r)        r0, r0, r6
             0x00010f80: e0 27:       bla (1r)        r0
             0x00010f82: 05 75:       bt (ru6)        r4, -0x5 <do_ctors_loop>

<do_ctors_end>:
             0x00010f84: c1 77:       retsp (u6)      0x1

Disassembly of section .fini (size: 58)

<_fini>:
.label60     0x00010f86: 41 77:       entsp (u6)      0x1
             0x00010f88: 85 77:       extsp (u6)      0x5
             0x00010f8a: 01 55:       stw (ru6)       r4, sp[0x1]
             0x00010f8c: 42 55:       stw (ru6)       r5, sp[0x2]
             0x00010f8e: 83 55:       stw (ru6)       r6, sp[0x3]
             0x00010f90: c4 55:       stw (ru6)       r7, sp[0x4]
             0x00010f92: 00 f0 c2 59: ldw (lru6)      r7, dp[0x2]
             0x00010f96: 3e a9:       shr (2rus)      r7, r7, 0x2
             0x00010f98: cd 79:       bf (ru6)        r7, 0xd <do_dtors_end>
             0x00010f9a: 00 69:       ldc (ru6)       r4, 0x0
             0x00010f9c: 00 f0 42 d8: ldap (lu10)     r11, 0x42 <.label99>
             0x00010fa0: dc 91:       add (2rus)      r5, r11, 0x0
             0x00010fa2: 00 f0 81 59: ldw (lru6)      r6, dp[0x1]
             0x00010fa6: 66 1b:       sub (3r)        r6, r5, r6

<do_dtors_loop>:
             0x00010fa8: 04 4b:       ldw (3r)        r0, r5[r4]
             0x00010faa: 42 12:       add (3r)        r0, r0, r6
             0x00010fac: e0 27:       bla (1r)        r0
             0x00010fae: 01 91:       add (2rus)      r4, r4, 0x1
             0x00010fb0: b3 cb:       lsu (3r)        r11, r4, r7
             0x00010fb2: c6 76:       bt (ru6)        r11, -0x6 <do_dtors_loop>

<do_dtors_end>:
             0x00010fb4: 01 5d:       ldw (ru6)       r4, sp[0x1]
             0x00010fb6: 42 5d:       ldw (ru6)       r5, sp[0x2]
             0x00010fb8: 83 5d:       ldw (ru6)       r6, sp[0x3]
             0x00010fba: c4 5d:       ldw (ru6)       r7, sp[0x4]
             0x00010fbc: 85 67:       ldaw (ru6)      sp, sp[0x5]
             0x00010fbe: c1 77:       retsp (u6)      0x1

Disassembly of section .text.__call_exitprocs_impl (size: 2)

<__call_exitprocs_impl>:
.label88     0x00010fc0: c0 77:       retsp (u6)      0x0

Disassembly of section .text._cleanup_impl (size: 2)

<_cleanup_impl>:
.label89     0x00010fc4: c0 77:       retsp (u6)      0x0

Disassembly of section .rodata (size: 4)

<_RamSize>:
.label2      0x00010fc8: 00 00 01 00: 

Disassembly of section .eh_frame (size: 36)

<__EH_FRAME_BEGIN__>:
.label96     0x00010fcc: 0c 00 00 00: 
             0x00010fd0: 00 00 00 00: 
             0x00010fd4: 01 00 01 01: 
             0x00010fd8: 0f 0c 0e 00: 
             0x00010fdc: 0c 00 00 00: 
             0x00010fe0: 00 00 00 00: 
             0x00010fe4: 01 00 01 01: 
             0x00010fe8: 0f 0c 0e 00: 

<__EH_FRAME_END__>:
             0x00010fec: 00 00 00 00: 

Disassembly of section .cp.rodata.cst4 (size: 44)

<.CPM0>:
.label0      0x00010ff0: 02 ff 01 80: 

<.CPM1>:
             0x00010ff4: 00 00 ff 03: 

<.CPM2>:
             0x00010ff8: 00 77 00 f0: 

<.CPM3>:
             0x00010ffc: 00 73 00 f0: 

<.CPM4>:
             0x00011000: 00 e1 f5 05: 

<.CPM5>:
             0x00011004: fe ff ff ff: 

<.CPM6>:
             0x00011008: 95 20 4f 09: 

<.CPM7>:
             0x0001100c: 44 33 22 11: 

<.CPM8>:
             0x00011010: 2d 7f 95 4c: 

<.CPM9>:
             0x00011014: 2d f4 51 58: 

<.CPM10>:
             0x00011018: ff ff ff 7f: 

Disassembly of section .ctors (size: 8)

<_CTOR_LIST_>:
.label98     0x0001101c: 2e 0c 01 00: 
             0x00011020: 6c 0e 01 00: 

Disassembly of section .dtors (size: 4)

<_DTOR_LIST_>:
.label99     0x00011024: 74 0e 01 00: 

Disassembly of section .dp.data (size: 380)

<_dp>:
<_NullPtr>:
.label1      0x00011080: 00 00 00 00: 

<dtor_list_ptr>:
             0x00011084: 24 10 01 00: 

<dtors_size>:
             0x00011088: 04 00 00 00: 
             0x0001108c: 00 00 00 00: 
             0x00011090: 00 00 00 00: 
             0x00011094: 00 00 00 00: 
             0x00011098: 00 00 00 00: 
             0x0001109c: 00 00 00 00: 
             0x000110a0: 00 00 00 00: 
             0x000110a4: 00 00 00 00: 
             0x000110a8: 00 00 00 00: 
             0x000110ac: 00 00 00 00: 
             0x000110b0: 00 00 00 00: 
             0x000110b4: 00 00 00 00: 
             0x000110b8: 00 00 00 00: 
             0x000110bc: 00 00 00 00: 
             0x000110c0: 00 00 00 00: 
             0x000110c4: 00 00 00 00: 
             0x000110c8: 00 00 00 00: 
             0x000110cc: 00 00 00 00: 
             0x000110d0: 00 00 00 00: 
             0x000110d4: 00 00 00 00: 
             0x000110d8: 00 00 00 00: 
             0x000110dc: 00 00 00 00: 
             0x000110e0: 00 00 00 00: 
             0x000110e4: 00 00 00 00: 
             0x000110e8: 00 00 00 00: 
             0x000110ec: 00 00 00 00: 
             0x000110f0: 00 00 00 00: 
             0x000110f4: 00 00 00 00: 
             0x000110f8: 00 00 00 00: 
             0x000110fc: 00 00 00 00: 

<_write_intercept_heap>:
             0x00011100: fe ca be ba: 
             0x00011104: 00 00 00 00: 
             0x00011108: 00 00 00 00: 
             0x0001110c: 00 00 00 00: 
             0x00011110: 00 00 00 00: 
             0x00011114: 00 00 00 00: 
             0x00011118: 00 00 00 00: 
             0x0001111c: 00 00 00 00: 
             0x00011120: 00 00 00 00: 
             0x00011124: 00 00 00 00: 
             0x00011128: 00 00 00 00: 
             0x0001112c: 00 00 00 00: 
             0x00011130: 00 00 00 00: 
             0x00011134: 00 00 00 00: 
             0x00011138: 00 00 00 00: 
             0x0001113c: 00 00 00 00: 
             0x00011140: 00 00 00 00: 
             0x00011144: 00 00 00 00: 
             0x00011148: 00 00 00 00: 
             0x0001114c: 00 00 00 00: 
             0x00011150: 00 00 00 00: 
             0x00011154: 00 00 00 00: 
             0x00011158: 00 00 00 00: 
             0x0001115c: 00 00 00 00: 
             0x00011160: 00 00 00 00: 
             0x00011164: 00 00 00 00: 
             0x00011168: 00 00 00 00: 
             0x0001116c: 00 00 00 00: 
             0x00011170: 00 00 00 00: 
             0x00011174: 00 00 00 00: 
             0x00011178: 00 00 00 00: 
             0x0001117c: 00 00 00 00: 

<printMany>:
.label10     0x00011180: 00 f2 81 68: 
             0x00011184: a9 a4 14 f0: 
             0x00011188: c2 68 2b 40: 
             0x0001118c: ce 86 db 16: 
             0x00011190: df 4e cf ae: 
             0x00011194: df ce 84 68: 
             0x00011198: cb ae c3 ae: 

<printManySendLoop>:
             0x0001119c: 01 98 24 48: 
             0x000111a0: cb ae 04 74: 

<printManyDataSent>:
             0x000111a4: dd ce dd 4e: 
             0x000111a8: e3 17 c0 77: 

<_rand_next>:
             0x000111ac: 01 00 00 00: 
             0x000111b0: 00 00 00 00: 
             0x000111b4: 01 00 00 00: 
             0x000111b8: 00 00 00 00: 
             0x000111bc: 01 00 00 00: 
             0x000111c0: 00 00 00 00: 
             0x000111c4: 01 00 00 00: 
             0x000111c8: 00 00 00 00: 
             0x000111cc: 01 00 00 00: 
             0x000111d0: 00 00 00 00: 
             0x000111d4: 01 00 00 00: 
             0x000111d8: 00 00 00 00: 
             0x000111dc: 01 00 00 00: 
             0x000111e0: 00 00 00 00: 
             0x000111e4: 01 00 00 00: 
             0x000111e8: 00 00 00 00: 

<ctor_list_ptr>:
             0x000111ec: 1c 10 01 00: 

<ctors_size>:
             0x000111f0: 08 00 00 00: 

<__sodFlag>:
             0x000111f4: 00 00 00 00: 

<__sodEnd>:
             0x000111f8: 02 01 00 80: 

Disassembly of section .dp.rodata (size: 21)

<newline>:
             0x000111fc: 0a 00 00 00: 

<digits>:
             0x00011200: 30 31 32 33: 
             0x00011204: 34 35 36 37: 
             0x00011208: 38 39 41 42: 
             0x0001120c: 43 44 45 46: 
             0x00011210: 00:          

Disassembly of section .xtabranch (size: 88)

.label70     0x00000000: 0e 07 01 00: 
             0x00000004: 10 07 01 00: 
             0x00000008: 0e 07 01 00: 
             0x0000000c: 12 07 01 00: 
             0x00000010: 0e 07 01 00: 
             0x00000014: 14 07 01 00: 
             0x00000018: 0e 07 01 00: 
             0x0000001c: 16 07 01 00: 
             0x00000020: 0e 07 01 00: 
             0x00000024: 18 07 01 00: 
             0x00000028: 0e 07 01 00: 
             0x0000002c: 1a 07 01 00: 
             0x00000030: 0e 07 01 00: 
             0x00000034: 1c 07 01 00: 
             0x00000038: fc 09 01 00: 
             0x0000003c: 0e 0a 01 00: 
             0x00000040: fc 09 01 00: 
             0x00000044: c6 0a 01 00: 
             0x00000048: fc 09 01 00: 
             0x0000004c: 8c 0a 01 00: 
             0x00000050: fc 09 01 00: 
             0x00000054: 4a 0a 01 00: 

Disassembly of section .xtacalltable (size: 1418)

.label70     0x00000000: 9f 00 00 00: 
             0x00000004: 00 00 00 00: 
             0x00000008: 2f 68 6f 6d: 
             0x0000000c: 65 2f 73 6c: 
             0x00000010: 64 2d 75 73: 
             0x00000014: 65 72 2f 77: 
             0x00000018: 6f 72 6b 73: 
             0x0000001c: 70 61 63 65: 
             0x00000020: 2f 70 72 69: 
             0x00000024: 6d 73 00 73: 
             0x00000028: 63 6d 61 69: 
             0x0000002c: 6e 5f 33 2e: 
             0x00000030: 78 63 00 18: 
             0x00000034: 00 00 00 b2: 
             0x00000038: 00 01 00 73: 
             0x0000003c: 63 6d 61 69: 
             0x00000040: 6e 5f 33 2e: 
             0x00000044: 78 63 00 1a: 
             0x00000048: 00 00 00 ba: 
             0x0000004c: 00 01 00 73: 
             0x00000050: 63 6d 61 69: 
             0x00000054: 6e 5f 33 2e: 
             0x00000058: 78 63 00 21: 
             0x0000005c: 00 00 00 e4: 
             0x00000060: 00 01 00 73: 
             0x00000064: 63 6d 61 69: 
             0x00000068: 6e 5f 33 2e: 
             0x0000006c: 78 63 00 23: 
             0x00000070: 00 00 00 04: 
             0x00000074: 01 01 00 73: 
             0x00000078: 63 6d 61 69: 
             0x0000007c: 6e 5f 33 2e: 
             0x00000080: 78 63 00 2e: 
             0x00000084: 00 00 00 14: 
             0x00000088: 01 01 00 73: 
             0x0000008c: 63 6d 61 69: 
             0x00000090: 6e 5f 33 2e: 
             0x00000094: 78 63 00 3f: 
             0x00000098: 00 00 00 38: 
             0x0000009c: 01 01 00 27: 
             0x000000a0: 00 00 00 00: 
             0x000000a4: 00 00 00 2f: 
             0x000000a8: 68 6f 6d 65: 
             0x000000ac: 2f 73 6c 64: 
             0x000000b0: 2d 75 73 65: 
             0x000000b4: 72 2f 77 6f: 
             0x000000b8: 72 6b 73 70: 
             0x000000bc: 61 63 65 2f: 
             0x000000c0: 70 72 69 6d: 
             0x000000c4: 73 00 42 00: 
             0x000000c8: 00 00 00 00: 
             0x000000cc: 00 00 2f 68: 
             0x000000d0: 6f 6d 65 2f: 
             0x000000d4: 73 6c 64 2d: 
             0x000000d8: 75 73 65 72: 
             0x000000dc: 2f 77 6f 72: 
             0x000000e0: 6b 73 70 61: 
             0x000000e4: 63 65 2f 70: 
             0x000000e8: 72 69 6d 73: 
             0x000000ec: 00 53 77 61: 
             0x000000f0: 6c 6c 6f 77: 
             0x000000f4: 2d 68 65 6c: 
             0x000000f8: 70 65 72 73: 
             0x000000fc: 2e 78 63 00: 
             0x00000100: 9f 00 00 00: 
             0x00000104: 76 02 01 00: 
             0x00000108: 17 01 00 00: 
             0x0000010c: 00 00 00 00: 
             0x00000110: 2f 68 6f 6d: 
             0x00000114: 65 2f 73 6c: 
             0x00000118: 64 2d 75 73: 
             0x0000011c: 65 72 2f 77: 
             0x00000120: 6f 72 6b 73: 
             0x00000124: 70 61 63 65: 
             0x00000128: 2f 70 72 69: 
             0x0000012c: 6d 73 00 53: 
             0x00000130: 77 61 6c 6c: 
             0x00000134: 6f 77 2d 6e: 
             0x00000138: 4f 53 5f 63: 
             0x0000013c: 6c 69 65 6e: 
             0x00000140: 74 2e 78 63: 
             0x00000144: 00 3d 00 00: 
             0x00000148: 00 96 03 01: 
             0x0000014c: 00 53 77 61: 
             0x00000150: 6c 6c 6f 77: 
             0x00000154: 2d 6e 4f 53: 
             0x00000158: 5f 63 6c 69: 
             0x0000015c: 65 6e 74 2e: 
             0x00000160: 78 63 00 45: 
             0x00000164: 00 00 00 b4: 
             0x00000168: 03 01 00 53: 
             0x0000016c: 77 61 6c 6c: 
             0x00000170: 6f 77 2d 6e: 
             0x00000174: 4f 53 5f 63: 
             0x00000178: 6c 69 65 6e: 
             0x0000017c: 74 2e 78 63: 
             0x00000180: 00 4a 00 00: 
             0x00000184: 00 c8 03 01: 
             0x00000188: 00 53 77 61: 
             0x0000018c: 6c 6c 6f 77: 
             0x00000190: 2d 6e 4f 53: 
             0x00000194: 5f 63 6c 69: 
             0x00000198: 65 6e 74 2e: 
             0x0000019c: 78 63 00 52: 
             0x000001a0: 00 00 00 e4: 
             0x000001a4: 03 01 00 53: 
             0x000001a8: 77 61 6c 6c: 
             0x000001ac: 6f 77 2d 6e: 
             0x000001b0: 4f 53 5f 63: 
             0x000001b4: 6c 69 65 6e: 
             0x000001b8: 74 2e 78 63: 
             0x000001bc: 00 a0 00 00: 
             0x000001c0: 00 fa 03 01: 
             0x000001c4: 00 53 77 61: 
             0x000001c8: 6c 6c 6f 77: 
             0x000001cc: 2d 6e 4f 53: 
             0x000001d0: 5f 63 6c 69: 
             0x000001d4: 65 6e 74 2e: 
             0x000001d8: 78 63 00 a3: 
             0x000001dc: 00 00 00 00: 
             0x000001e0: 04 01 00 53: 
             0x000001e4: 77 61 6c 6c: 
             0x000001e8: 6f 77 2d 6e: 
             0x000001ec: 4f 53 5f 63: 
             0x000001f0: 6c 69 65 6e: 
             0x000001f4: 74 2e 78 63: 
             0x000001f8: 00 a5 00 00: 
             0x000001fc: 00 0e 04 01: 
             0x00000200: 00 53 77 61: 
             0x00000204: 6c 6c 6f 77: 
             0x00000208: 2d 6e 4f 53: 
             0x0000020c: 5f 63 6c 69: 
             0x00000210: 65 6e 74 2e: 
             0x00000214: 78 63 00 ad: 
             0x00000218: 00 00 00 22: 
             0x0000021c: 04 01 00 dc: 
             0x00000220: 01 00 00 00: 
             0x00000224: 00 00 00 2f: 
             0x00000228: 68 6f 6d 65: 
             0x0000022c: 2f 73 6c 64: 
             0x00000230: 2d 75 73 65: 
             0x00000234: 72 2f 77 6f: 
             0x00000238: 72 6b 73 70: 
             0x0000023c: 61 63 65 2f: 
             0x00000240: 70 72 69 6d: 
             0x00000244: 73 00 53 77: 
             0x00000248: 61 6c 6c 6f: 
             0x0000024c: 77 2d 6e 4f: 
             0x00000250: 53 2e 78 63: 
             0x00000254: 00 1a 00 00: 
             0x00000258: 00 7a 06 01: 
             0x0000025c: 00 53 77 61: 
             0x00000260: 6c 6c 6f 77: 
             0x00000264: 2d 6e 4f 53: 
             0x00000268: 2e 78 63 00: 
             0x0000026c: 1b 00 00 00: 
             0x00000270: 88 06 01 00: 
             0x00000274: 53 77 61 6c: 
             0x00000278: 6c 6f 77 2d: 
             0x0000027c: 6e 4f 53 2e: 
             0x00000280: 78 63 00 2a: 
             0x00000284: 00 00 00 de: 
             0x00000288: 06 01 00 53: 
             0x0000028c: 77 61 6c 6c: 
             0x00000290: 6f 77 2d 6e: 
             0x00000294: 4f 53 2e 78: 
             0x00000298: 63 00 2b 00: 
             0x0000029c: 00 00 ea 06: 
             0x000002a0: 01 00 53 77: 
             0x000002a4: 61 6c 6c 6f: 
             0x000002a8: 77 2d 6e 4f: 
             0x000002ac: 53 2e 78 63: 
             0x000002b0: 00 3a 00 00: 
             0x000002b4: 00 14 06 01: 
             0x000002b8: 00 53 77 61: 
             0x000002bc: 6c 6c 6f 77: 
             0x000002c0: 2d 6e 4f 53: 
             0x000002c4: 2e 78 63 00: 
             0x000002c8: 4c 00 00 00: 
             0x000002cc: 26 07 01 00: 
             0x000002d0: 53 77 61 6c: 
             0x000002d4: 6c 6f 77 2d: 
             0x000002d8: 6e 4f 53 2e: 
             0x000002dc: 78 63 00 4d: 
             0x000002e0: 00 00 00 30: 
             0x000002e4: 07 01 00 53: 
             0x000002e8: 77 61 6c 6c: 
             0x000002ec: 6f 77 2d 6e: 
             0x000002f0: 4f 53 2e 78: 
             0x000002f4: 63 00 4e 00: 
             0x000002f8: 00 00 3e 07: 
             0x000002fc: 01 00 53 77: 
             0x00000300: 61 6c 6c 6f: 
             0x00000304: 77 2d 6e 4f: 
             0x00000308: 53 2e 78 63: 
             0x0000030c: 00 56 00 00: 
             0x00000310: 00 44 07 01: 
             0x00000314: 00 53 77 61: 
             0x00000318: 6c 6c 6f 77: 
             0x0000031c: 2d 6e 4f 53: 
             0x00000320: 2e 78 63 00: 
             0x00000324: 57 00 00 00: 
             0x00000328: 54 07 01 00: 
             0x0000032c: 53 77 61 6c: 
             0x00000330: 6c 6f 77 2d: 
             0x00000334: 6e 4f 53 2e: 
             0x00000338: 78 63 00 5e: 
             0x0000033c: 00 00 00 60: 
             0x00000340: 07 01 00 53: 
             0x00000344: 77 61 6c 6c: 
             0x00000348: 6f 77 2d 6e: 
             0x0000034c: 4f 53 2e 78: 
             0x00000350: 63 00 66 00: 
             0x00000354: 00 00 70 07: 
             0x00000358: 01 00 53 77: 
             0x0000035c: 61 6c 6c 6f: 
             0x00000360: 77 2d 6e 4f: 
             0x00000364: 53 2e 78 63: 
             0x00000368: 00 6e 00 00: 
             0x0000036c: 00 82 07 01: 
             0x00000370: 00 53 77 61: 
             0x00000374: 6c 6c 6f 77: 
             0x00000378: 2d 6e 4f 53: 
             0x0000037c: 2e 78 63 00: 
             0x00000380: 78 00 00 00: 
             0x00000384: b0 07 01 00: 
             0x00000388: 53 77 61 6c: 
             0x0000038c: 6c 6f 77 2d: 
             0x00000390: 6e 4f 53 2e: 
             0x00000394: 78 63 00 81: 
             0x00000398: 00 00 00 ba: 
             0x0000039c: 07 01 00 53: 
             0x000003a0: 77 61 6c 6c: 
             0x000003a4: 6f 77 2d 6e: 
             0x000003a8: 4f 53 2e 78: 
             0x000003ac: 63 00 82 00: 
             0x000003b0: 00 00 c6 07: 
             0x000003b4: 01 00 53 77: 
             0x000003b8: 61 6c 6c 6f: 
             0x000003bc: 77 2d 6e 4f: 
             0x000003c0: 53 2e 78 63: 
             0x000003c4: 00 97 00 00: 
             0x000003c8: 00 e8 05 01: 
             0x000003cc: 00 53 77 61: 
             0x000003d0: 6c 6c 6f 77: 
             0x000003d4: 2d 6e 4f 53: 
             0x000003d8: 2e 78 63 00: 
             0x000003dc: c5 00 00 00: 
             0x000003e0: 00 06 01 00: 
             0x000003e4: 53 77 61 6c: 
             0x000003e8: 6c 6f 77 2d: 
             0x000003ec: 6e 4f 53 2e: 
             0x000003f0: 78 63 00 d9: 
             0x000003f4: 00 00 00 54: 
             0x000003f8: 06 01 00 8f: 
             0x000003fc: 01 00 00 00: 
             0x00000400: 00 00 00 2f: 
             0x00000404: 68 6f 6d 65: 
             0x00000408: 2f 73 6c 64: 
             0x0000040c: 2d 75 73 65: 
             0x00000410: 72 2f 77 6f: 
             0x00000414: 72 6b 73 70: 
             0x00000418: 61 63 65 2f: 
             0x0000041c: 70 72 69 6d: 
             0x00000420: 73 00 53 77: 
             0x00000424: 61 6c 6c 6f: 
             0x00000428: 77 2d 70 72: 
             0x0000042c: 69 6d 2e 78: 
             0x00000430: 63 00 52 00: 
             0x00000434: 00 00 2e 08: 
             0x00000438: 01 00 53 77: 
             0x0000043c: 61 6c 6c 6f: 
             0x00000440: 77 2d 70 72: 
             0x00000444: 69 6d 2e 78: 
             0x00000448: 63 00 54 00: 
             0x0000044c: 00 00 c8 09: 
             0x00000450: 01 00 53 77: 
             0x00000454: 61 6c 6c 6f: 
             0x00000458: 77 2d 70 72: 
             0x0000045c: 69 6d 2e 78: 
             0x00000460: 63 00 6b 00: 
             0x00000464: 00 00 5e 08: 
             0x00000468: 01 00 53 77: 
             0x0000046c: 61 6c 6c 6f: 
             0x00000470: 77 2d 70 72: 
             0x00000474: 69 6d 2e 78: 
             0x00000478: 63 00 6f 00: 
             0x0000047c: 00 00 68 08: 
             0x00000480: 01 00 53 77: 
             0x00000484: 61 6c 6c 6f: 
             0x00000488: 77 2d 70 72: 
             0x0000048c: 69 6d 2e 78: 
             0x00000490: 63 00 70 00: 
             0x00000494: 00 00 76 08: 
             0x00000498: 01 00 53 77: 
             0x0000049c: 61 6c 6c 6f: 
             0x000004a0: 77 2d 70 72: 
             0x000004a4: 69 6d 2e 78: 
             0x000004a8: 63 00 71 00: 
             0x000004ac: 00 00 8a 08: 
             0x000004b0: 01 00 53 77: 
             0x000004b4: 61 6c 6c 6f: 
             0x000004b8: 77 2d 70 72: 
             0x000004bc: 69 6d 2e 78: 
             0x000004c0: 63 00 72 00: 
             0x000004c4: 00 00 94 08: 
             0x000004c8: 01 00 53 77: 
             0x000004cc: 61 6c 6c 6f: 
             0x000004d0: 77 2d 70 72: 
             0x000004d4: 69 6d 2e 78: 
             0x000004d8: 63 00 7a 00: 
             0x000004dc: 00 00 b0 08: 
             0x000004e0: 01 00 53 77: 
             0x000004e4: 61 6c 6c 6f: 
             0x000004e8: 77 2d 70 72: 
             0x000004ec: 69 6d 2e 78: 
             0x000004f0: 63 00 7d 00: 
             0x000004f4: 00 00 b8 08: 
             0x000004f8: 01 00 53 77: 
             0x000004fc: 61 6c 6c 6f: 
             0x00000500: 77 2d 70 72: 
             0x00000504: 69 6d 2e 78: 
             0x00000508: 63 00 7e 00: 
             0x0000050c: 00 00 c2 08: 
             0x00000510: 01 00 53 77: 
             0x00000514: 61 6c 6c 6f: 
             0x00000518: 77 2d 70 72: 
             0x0000051c: 69 6d 2e 78: 
             0x00000520: 63 00 7f 00: 
             0x00000524: 00 00 ca 08: 
             0x00000528: 01 00 53 77: 
             0x0000052c: 61 6c 6c 6f: 
             0x00000530: 77 2d 70 72: 
             0x00000534: 69 6d 2e 78: 
             0x00000538: 63 00 80 00: 
             0x0000053c: 00 00 d2 08: 
             0x00000540: 01 00 53 77: 
             0x00000544: 61 6c 6c 6f: 
             0x00000548: 77 2d 70 72: 
             0x0000054c: 69 6d 2e 78: 
             0x00000550: 63 00 84 00: 
             0x00000554: 00 00 dc 08: 
             0x00000558: 01 00 53 77: 
             0x0000055c: 61 6c 6c 6f: 
             0x00000560: 77 2d 70 72: 
             0x00000564: 69 6d 2e 78: 
             0x00000568: 63 00 8b 00: 
             0x0000056c: 00 00 fe 08: 
             0x00000570: 01 00 53 77: 
             0x00000574: 61 6c 6c 6f: 
             0x00000578: 77 2d 70 72: 
             0x0000057c: 69 6d 2e 78: 
             0x00000580: 63 00 98 00: 
             0x00000584: 00 00 50 09: 
             0x00000588: 01 00:       

Disassembly of section .xtaendpointtable (size: 726)

.label70     0x00000000: 27 00 00 00: 
             0x00000004: 00 00 00 00: 
             0x00000008: 2f 68 6f 6d: 
             0x0000000c: 65 2f 73 6c: 
             0x00000010: 64 2d 75 73: 
             0x00000014: 65 72 2f 77: 
             0x00000018: 6f 72 6b 73: 
             0x0000001c: 70 61 63 65: 
             0x00000020: 2f 70 72 69: 
             0x00000024: 6d 73 00 57: 
             0x00000028: 00 00 00 00: 
             0x0000002c: 00 00 00 2f: 
             0x00000030: 68 6f 6d 65: 
             0x00000034: 2f 73 6c 64: 
             0x00000038: 2d 75 73 65: 
             0x0000003c: 72 2f 77 6f: 
             0x00000040: 72 6b 73 70: 
             0x00000044: 61 63 65 2f: 
             0x00000048: 70 72 69 6d: 
             0x0000004c: 73 00 53 77: 
             0x00000050: 61 6c 6c 6f: 
             0x00000054: 77 2d 77 61: 
             0x00000058: 69 74 2e 78: 
             0x0000005c: 63 00 0f 00: 
             0x00000060: 00 00 34 02: 
             0x00000064: 01 00 53 77: 
             0x00000068: 61 6c 6c 6f: 
             0x0000006c: 77 2d 77 61: 
             0x00000070: 69 74 2e 78: 
             0x00000074: 63 00 13 00: 
             0x00000078: 00 00 40 02: 
             0x0000007c: 01 00 27 00: 
             0x00000080: 00 00 00 00: 
             0x00000084: 00 00 2f 68: 
             0x00000088: 6f 6d 65 2f: 
             0x0000008c: 73 6c 64 2d: 
             0x00000090: 75 73 65 72: 
             0x00000094: 2f 77 6f 72: 
             0x00000098: 6b 73 70 61: 
             0x0000009c: 63 65 2f 70: 
             0x000000a0: 72 69 6d 73: 
             0x000000a4: 00 27 00 00: 
             0x000000a8: 00 00 00 00: 
             0x000000ac: 00 2f 68 6f: 
             0x000000b0: 6d 65 2f 73: 
             0x000000b4: 6c 64 2d 75: 
             0x000000b8: 73 65 72 2f: 
             0x000000bc: 77 6f 72 6b: 
             0x000000c0: 73 70 61 63: 
             0x000000c4: 65 2f 70 72: 
             0x000000c8: 69 6d 73 00: 
             0x000000cc: 55 00 00 00: 
             0x000000d0: 00 00 00 00: 
             0x000000d4: 2f 68 6f 6d: 
             0x000000d8: 65 2f 73 6c: 
             0x000000dc: 64 2d 75 73: 
             0x000000e0: 65 72 2f 77: 
             0x000000e4: 6f 72 6b 73: 
             0x000000e8: 70 61 63 65: 
             0x000000ec: 2f 70 72 69: 
             0x000000f0: 6d 73 00 53: 
             0x000000f4: 77 61 6c 6c: 
             0x000000f8: 6f 77 2d 6e: 
             0x000000fc: 4f 53 2e 78: 
             0x00000100: 63 00 b8 00: 
             0x00000104: 00 00 f6 05: 
             0x00000108: 01 00 53 77: 
             0x0000010c: 61 6c 6c 6f: 
             0x00000110: 77 2d 6e 4f: 
             0x00000114: 53 2e 78 63: 
             0x00000118: 00 d7 00 00: 
             0x0000011c: 00 42 06 01: 
             0x00000120: 00 47 01 00: 
             0x00000124: 00 00 00 00: 
             0x00000128: 00 2f 68 6f: 
             0x0000012c: 6d 65 2f 73: 
             0x00000130: 6c 64 2d 75: 
             0x00000134: 73 65 72 2f: 
             0x00000138: 77 6f 72 6b: 
             0x0000013c: 73 70 61 63: 
             0x00000140: 65 2f 70 72: 
             0x00000144: 69 6d 73 00: 
             0x00000148: 53 77 61 6c: 
             0x0000014c: 6c 6f 77 2d: 
             0x00000150: 70 72 69 6d: 
             0x00000154: 2e 78 63 00: 
             0x00000158: 22 01 00 00: 
             0x0000015c: 12 0a 01 00: 
             0x00000160: 53 77 61 6c: 
             0x00000164: 6c 6f 77 2d: 
             0x00000168: 70 72 69 6d: 
             0x0000016c: 2e 78 63 00: 
             0x00000170: 22 01 00 00: 
             0x00000174: 52 0a 01 00: 
             0x00000178: 53 77 61 6c: 
             0x0000017c: 6c 6f 77 2d: 
             0x00000180: 70 72 69 6d: 
             0x00000184: 2e 78 63 00: 
             0x00000188: 22 01 00 00: 
             0x0000018c: 94 0a 01 00: 
             0x00000190: 53 77 61 6c: 
             0x00000194: 6c 6f 77 2d: 
             0x00000198: 70 72 69 6d: 
             0x0000019c: 2e 78 63 00: 
             0x000001a0: 22 01 00 00: 
             0x000001a4: ce 0a 01 00: 
             0x000001a8: 53 77 61 6c: 
             0x000001ac: 6c 6f 77 2d: 
             0x000001b0: 70 72 69 6d: 
             0x000001b4: 2e 78 63 00: 
             0x000001b8: 2a 01 00 00: 
             0x000001bc: 04 0a 01 00: 
             0x000001c0: 53 77 61 6c: 
             0x000001c4: 6c 6f 77 2d: 
             0x000001c8: 70 72 69 6d: 
             0x000001cc: 2e 78 63 00: 
             0x000001d0: 2e 01 00 00: 
             0x000001d4: 30 0a 01 00: 
             0x000001d8: 53 77 61 6c: 
             0x000001dc: 6c 6f 77 2d: 
             0x000001e0: 70 72 69 6d: 
             0x000001e4: 2e 78 63 00: 
             0x000001e8: 3a 01 00 00: 
             0x000001ec: 40 0a 01 00: 
             0x000001f0: 53 77 61 6c: 
             0x000001f4: 6c 6f 77 2d: 
             0x000001f8: 70 72 69 6d: 
             0x000001fc: 2e 78 63 00: 
             0x00000200: 3f 01 00 00: 
             0x00000204: 76 0a 01 00: 
             0x00000208: 53 77 61 6c: 
             0x0000020c: 6c 6f 77 2d: 
             0x00000210: 70 72 69 6d: 
             0x00000214: 2e 78 63 00: 
             0x00000218: 4a 01 00 00: 
             0x0000021c: 84 0a 01 00: 
             0x00000220: 53 77 61 6c: 
             0x00000224: 6c 6f 77 2d: 
             0x00000228: 70 72 69 6d: 
             0x0000022c: 2e 78 63 00: 
             0x00000230: 4e 01 00 00: 
             0x00000234: b0 0a 01 00: 
             0x00000238: 53 77 61 6c: 
             0x0000023c: 6c 6f 77 2d: 
             0x00000240: 70 72 69 6d: 
             0x00000244: 2e 78 63 00: 
             0x00000248: 59 01 00 00: 
             0x0000024c: be 0a 01 00: 
             0x00000250: 53 77 61 6c: 
             0x00000254: 6c 6f 77 2d: 
             0x00000258: 70 72 69 6d: 
             0x0000025c: 2e 78 63 00: 
             0x00000260: 5e 01 00 00: 
             0x00000264: f2 0a 01 00: 
             0x00000268: 6e 00 00 00: 
             0x0000026c: 00 00 00 00: 
             0x00000270: 2f 62 75 69: 
             0x00000274: 6c 64 2f 73: 
             0x00000278: 77 6e 62 2f: 
             0x0000027c: 61 75 74 6f: 
             0x00000280: 62 75 69 6c: 
             0x00000284: 64 2f 73 77: 
             0x00000288: 72 65 6c 65: 
             0x0000028c: 61 73 65 5f: 
             0x00000290: 31 32 5f 30: 
             0x00000294: 2f 43 65 6e: 
             0x00000298: 74 6f 73 36: 
             0x0000029c: 34 2f 62 75: 
             0x000002a0: 69 6c 64 2f: 
             0x000002a4: 73 62 2f 74: 
             0x000002a8: 6f 6f 6c 73: 
             0x000002ac: 5f 78 74 72: 
             0x000002b0: 61 63 65 2f: 
             0x000002b4: 78 70 72 6f: 
             0x000002b8: 62 65 5f 61: 
             0x000002bc: 70 69 2f 64: 
             0x000002c0: 65 76 69 63: 
             0x000002c4: 65 00 74 69: 
             0x000002c8: 6d 65 2e 78: 
             0x000002cc: 63 00 07 00: 
             0x000002d0: 00 00 82 0e: 
             0x000002d4: 01 00:       

Disassembly of section .xtalabeltable (size: 6941)

.label70     0x00000000: 87 00 00 00: 
             0x00000004: 00 00 00 00: 
             0x00000008: 2f 68 6f 6d: 
             0x0000000c: 65 2f 73 6c: 
             0x00000010: 64 2d 75 73: 
             0x00000014: 65 72 2f 77: 
             0x00000018: 6f 72 6b 73: 
             0x0000001c: 70 61 63 65: 
             0x00000020: 2f 70 72 69: 
             0x00000024: 6d 73 00 73: 
             0x00000028: 63 6d 61 69: 
             0x0000002c: 6e 5f 33 2e: 
             0x00000030: 78 63 00 15: 
             0x00000034: 00 00 00 28: 
             0x00000038: 00 00 00 ac: 
             0x0000003c: 00 01 00 73: 
             0x00000040: 63 6d 61 69: 
             0x00000044: 6e 5f 33 2e: 
             0x00000048: 78 63 00 2c: 
             0x0000004c: 00 00 00 2f: 
             0x00000050: 00 00 00 12: 
             0x00000054: 01 01 00 73: 
             0x00000058: 63 6d 61 69: 
             0x0000005c: 6e 5f 33 2e: 
             0x00000060: 78 63 00 3d: 
             0x00000064: 00 00 00 42: 
             0x00000068: 00 00 00 12: 
             0x0000006c: 01 01 00 73: 
             0x00000070: 63 6d 61 69: 
             0x00000074: 6e 5f 33 2e: 
             0x00000078: 78 63 00 50: 
             0x0000007c: 00 00 00 52: 
             0x00000080: 00 00 00 12: 
             0x00000084: 01 01 00 05: 
             0x00000088: 0e 00 00 00: 
             0x0000008c: 00 00 00 2f: 
             0x00000090: 68 6f 6d 65: 
             0x00000094: 2f 73 6c 64: 
             0x00000098: 2d 75 73 65: 
             0x0000009c: 72 2f 77 6f: 
             0x000000a0: 72 6b 73 70: 
             0x000000a4: 61 63 65 2f: 
             0x000000a8: 70 72 69 6d: 
             0x000000ac: 73 00 2f 68: 
             0x000000b0: 6f 6d 65 2f: 
             0x000000b4: 73 6c 64 2d: 
             0x000000b8: 75 73 65 72: 
             0x000000bc: 2f 73 77 61: 
             0x000000c0: 6c 6c 6f 77: 
             0x000000c4: 5f 74 6f 6f: 
             0x000000c8: 6c 73 2f 74: 
             0x000000cc: 6f 6f 6c 5f: 
             0x000000d0: 78 6d 70 31: 
             0x000000d4: 36 5f 6d 61: 
             0x000000d8: 6e 79 63 6f: 
             0x000000dc: 72 65 2f 74: 
             0x000000e0: 6f 6f 6c 73: 
             0x000000e4: 2f 2e 2e 2f: 
             0x000000e8: 63 6f 64 65: 
             0x000000ec: 2f 73 63 5f: 
             0x000000f0: 73 77 61 6c: 
             0x000000f4: 6c 6f 77 5f: 
             0x000000f8: 63 6f 6d 6d: 
             0x000000fc: 75 6e 69 63: 
             0x00000100: 61 74 69 6f: 
             0x00000104: 6e 2f 6d 6f: 
             0x00000108: 64 75 6c 65: 
             0x0000010c: 5f 73 77 61: 
             0x00000110: 6c 6c 6f 77: 
             0x00000114: 5f 63 6f 6d: 
             0x00000118: 6d 73 2f 73: 
             0x0000011c: 72 63 2f 73: 
             0x00000120: 77 61 6c 6c: 
             0x00000124: 6f 77 5f 63: 
             0x00000128: 6f 6d 6d 73: 
             0x0000012c: 2e 78 63 00: 
             0x00000130: 29 00 00 00: 
             0x00000134: 2e 00 00 00: 
             0x00000138: 42 01 01 00: 
             0x0000013c: 2f 68 6f 6d: 
             0x00000140: 65 2f 73 6c: 
             0x00000144: 64 2d 75 73: 
             0x00000148: 65 72 2f 73: 
             0x0000014c: 77 61 6c 6c: 
             0x00000150: 6f 77 5f 74: 
             0x00000154: 6f 6f 6c 73: 
             0x00000158: 2f 74 6f 6f: 
             0x0000015c: 6c 5f 78 6d: 
             0x00000160: 70 31 36 5f: 
             0x00000164: 6d 61 6e 79: 
             0x00000168: 63 6f 72 65: 
             0x0000016c: 2f 74 6f 6f: 
             0x00000170: 6c 73 2f 2e: 
             0x00000174: 2e 2f 63 6f: 
             0x00000178: 64 65 2f 73: 
             0x0000017c: 63 5f 73 77: 
             0x00000180: 61 6c 6c 6f: 
             0x00000184: 77 5f 63 6f: 
             0x00000188: 6d 6d 75 6e: 
             0x0000018c: 69 63 61 74: 
             0x00000190: 69 6f 6e 2f: 
             0x00000194: 6d 6f 64 75: 
             0x00000198: 6c 65 5f 73: 
             0x0000019c: 77 61 6c 6c: 
             0x000001a0: 6f 77 5f 63: 
             0x000001a4: 6f 6d 6d 73: 
             0x000001a8: 2f 73 72 63: 
             0x000001ac: 2f 73 77 61: 
             0x000001b0: 6c 6c 6f 77: 
             0x000001b4: 5f 63 6f 6d: 
             0x000001b8: 6d 73 2e 78: 
             0x000001bc: 63 00 29 00: 
             0x000001c0: 00 00 2e 00: 
             0x000001c4: 00 00 5c 01: 
             0x000001c8: 01 00 2f 68: 
             0x000001cc: 6f 6d 65 2f: 
             0x000001d0: 73 6c 64 2d: 
             0x000001d4: 75 73 65 72: 
             0x000001d8: 2f 73 77 61: 
             0x000001dc: 6c 6c 6f 77: 
             0x000001e0: 5f 74 6f 6f: 
             0x000001e4: 6c 73 2f 74: 
             0x000001e8: 6f 6f 6c 5f: 
             0x000001ec: 78 6d 70 31: 
             0x000001f0: 36 5f 6d 61: 
             0x000001f4: 6e 79 63 6f: 
             0x000001f8: 72 65 2f 74: 
             0x000001fc: 6f 6f 6c 73: 
             0x00000200: 2f 2e 2e 2f: 
             0x00000204: 63 6f 64 65: 
             0x00000208: 2f 73 63 5f: 
             0x0000020c: 73 77 61 6c: 
             0x00000210: 6c 6f 77 5f: 
             0x00000214: 63 6f 6d 6d: 
             0x00000218: 75 6e 69 63: 
             0x0000021c: 61 74 69 6f: 
             0x00000220: 6e 2f 6d 6f: 
             0x00000224: 64 75 6c 65: 
             0x00000228: 5f 73 77 61: 
             0x0000022c: 6c 6c 6f 77: 
             0x00000230: 5f 63 6f 6d: 
             0x00000234: 6d 73 2f 73: 
             0x00000238: 72 63 2f 73: 
             0x0000023c: 77 61 6c 6c: 
             0x00000240: 6f 77 5f 63: 
             0x00000244: 6f 6d 6d 73: 
             0x00000248: 2e 78 63 00: 
             0x0000024c: 29 00 00 00: 
             0x00000250: 2e 00 00 00: 
             0x00000254: 76 01 01 00: 
             0x00000258: 2f 68 6f 6d: 
             0x0000025c: 65 2f 73 6c: 
             0x00000260: 64 2d 75 73: 
             0x00000264: 65 72 2f 73: 
             0x00000268: 77 61 6c 6c: 
             0x0000026c: 6f 77 5f 74: 
             0x00000270: 6f 6f 6c 73: 
             0x00000274: 2f 74 6f 6f: 
             0x00000278: 6c 5f 78 6d: 
             0x0000027c: 70 31 36 5f: 
             0x00000280: 6d 61 6e 79: 
             0x00000284: 63 6f 72 65: 
             0x00000288: 2f 74 6f 6f: 
             0x0000028c: 6c 73 2f 2e: 
             0x00000290: 2e 2f 63 6f: 
             0x00000294: 64 65 2f 73: 
             0x00000298: 63 5f 73 77: 
             0x0000029c: 61 6c 6c 6f: 
             0x000002a0: 77 5f 63 6f: 
             0x000002a4: 6d 6d 75 6e: 
             0x000002a8: 69 63 61 74: 
             0x000002ac: 69 6f 6e 2f: 
             0x000002b0: 6d 6f 64 75: 
             0x000002b4: 6c 65 5f 73: 
             0x000002b8: 77 61 6c 6c: 
             0x000002bc: 6f 77 5f 63: 
             0x000002c0: 6f 6d 6d 73: 
             0x000002c4: 2f 73 72 63: 
             0x000002c8: 2f 73 77 61: 
             0x000002cc: 6c 6c 6f 77: 
             0x000002d0: 5f 63 6f 6d: 
             0x000002d4: 6d 73 2e 78: 
             0x000002d8: 63 00 29 00: 
             0x000002dc: 00 00 2e 00: 
             0x000002e0: 00 00 7a 01: 
             0x000002e4: 01 00 2f 68: 
             0x000002e8: 6f 6d 65 2f: 
             0x000002ec: 73 6c 64 2d: 
             0x000002f0: 75 73 65 72: 
             0x000002f4: 2f 73 77 61: 
             0x000002f8: 6c 6c 6f 77: 
             0x000002fc: 5f 74 6f 6f: 
             0x00000300: 6c 73 2f 74: 
             0x00000304: 6f 6f 6c 5f: 
             0x00000308: 78 6d 70 31: 
             0x0000030c: 36 5f 6d 61: 
             0x00000310: 6e 79 63 6f: 
             0x00000314: 72 65 2f 74: 
             0x00000318: 6f 6f 6c 73: 
             0x0000031c: 2f 2e 2e 2f: 
             0x00000320: 63 6f 64 65: 
             0x00000324: 2f 73 63 5f: 
             0x00000328: 73 77 61 6c: 
             0x0000032c: 6c 6f 77 5f: 
             0x00000330: 63 6f 6d 6d: 
             0x00000334: 75 6e 69 63: 
             0x00000338: 61 74 69 6f: 
             0x0000033c: 6e 2f 6d 6f: 
             0x00000340: 64 75 6c 65: 
             0x00000344: 5f 73 77 61: 
             0x00000348: 6c 6c 6f 77: 
             0x0000034c: 5f 63 6f 6d: 
             0x00000350: 6d 73 2f 73: 
             0x00000354: 72 63 2f 73: 
             0x00000358: 77 61 6c 6c: 
             0x0000035c: 6f 77 5f 63: 
             0x00000360: 6f 6d 6d 73: 
             0x00000364: 2e 78 63 00: 
             0x00000368: 29 00 00 00: 
             0x0000036c: 2e 00 00 00: 
             0x00000370: 60 01 01 00: 
             0x00000374: 2f 68 6f 6d: 
             0x00000378: 65 2f 73 6c: 
             0x0000037c: 64 2d 75 73: 
             0x00000380: 65 72 2f 73: 
             0x00000384: 77 61 6c 6c: 
             0x00000388: 6f 77 5f 74: 
             0x0000038c: 6f 6f 6c 73: 
             0x00000390: 2f 74 6f 6f: 
             0x00000394: 6c 5f 78 6d: 
             0x00000398: 70 31 36 5f: 
             0x0000039c: 6d 61 6e 79: 
             0x000003a0: 63 6f 72 65: 
             0x000003a4: 2f 74 6f 6f: 
             0x000003a8: 6c 73 2f 2e: 
             0x000003ac: 2e 2f 63 6f: 
             0x000003b0: 64 65 2f 73: 
             0x000003b4: 63 5f 73 77: 
             0x000003b8: 61 6c 6c 6f: 
             0x000003bc: 77 5f 63 6f: 
             0x000003c0: 6d 6d 75 6e: 
             0x000003c4: 69 63 61 74: 
             0x000003c8: 69 6f 6e 2f: 
             0x000003cc: 6d 6f 64 75: 
             0x000003d0: 6c 65 5f 73: 
             0x000003d4: 77 61 6c 6c: 
             0x000003d8: 6f 77 5f 63: 
             0x000003dc: 6f 6d 6d 73: 
             0x000003e0: 2f 73 72 63: 
             0x000003e4: 2f 73 77 61: 
             0x000003e8: 6c 6c 6f 77: 
             0x000003ec: 5f 63 6f 6d: 
             0x000003f0: 6d 73 2e 78: 
             0x000003f4: 63 00 33 00: 
             0x000003f8: 00 00 34 00: 
             0x000003fc: 00 00 42 01: 
             0x00000400: 01 00 2f 68: 
             0x00000404: 6f 6d 65 2f: 
             0x00000408: 73 6c 64 2d: 
             0x0000040c: 75 73 65 72: 
             0x00000410: 2f 73 77 61: 
             0x00000414: 6c 6c 6f 77: 
             0x00000418: 5f 74 6f 6f: 
             0x0000041c: 6c 73 2f 74: 
             0x00000420: 6f 6f 6c 5f: 
             0x00000424: 78 6d 70 31: 
             0x00000428: 36 5f 6d 61: 
             0x0000042c: 6e 79 63 6f: 
             0x00000430: 72 65 2f 74: 
             0x00000434: 6f 6f 6c 73: 
             0x00000438: 2f 2e 2e 2f: 
             0x0000043c: 63 6f 64 65: 
             0x00000440: 2f 73 63 5f: 
             0x00000444: 73 77 61 6c: 
             0x00000448: 6c 6f 77 5f: 
             0x0000044c: 63 6f 6d 6d: 
             0x00000450: 75 6e 69 63: 
             0x00000454: 61 74 69 6f: 
             0x00000458: 6e 2f 6d 6f: 
             0x0000045c: 64 75 6c 65: 
             0x00000460: 5f 73 77 61: 
             0x00000464: 6c 6c 6f 77: 
             0x00000468: 5f 63 6f 6d: 
             0x0000046c: 6d 73 2f 73: 
             0x00000470: 72 63 2f 73: 
             0x00000474: 77 61 6c 6c: 
             0x00000478: 6f 77 5f 63: 
             0x0000047c: 6f 6d 6d 73: 
             0x00000480: 2e 78 63 00: 
             0x00000484: 33 00 00 00: 
             0x00000488: 34 00 00 00: 
             0x0000048c: 5c 01 01 00: 
             0x00000490: 2f 68 6f 6d: 
             0x00000494: 65 2f 73 6c: 
             0x00000498: 64 2d 75 73: 
             0x0000049c: 65 72 2f 73: 
             0x000004a0: 77 61 6c 6c: 
             0x000004a4: 6f 77 5f 74: 
             0x000004a8: 6f 6f 6c 73: 
             0x000004ac: 2f 74 6f 6f: 
             0x000004b0: 6c 5f 78 6d: 
             0x000004b4: 70 31 36 5f: 
             0x000004b8: 6d 61 6e 79: 
             0x000004bc: 63 6f 72 65: 
             0x000004c0: 2f 74 6f 6f: 
             0x000004c4: 6c 73 2f 2e: 
             0x000004c8: 2e 2f 63 6f: 
             0x000004cc: 64 65 2f 73: 
             0x000004d0: 63 5f 73 77: 
             0x000004d4: 61 6c 6c 6f: 
             0x000004d8: 77 5f 63 6f: 
             0x000004dc: 6d 6d 75 6e: 
             0x000004e0: 69 63 61 74: 
             0x000004e4: 69 6f 6e 2f: 
             0x000004e8: 6d 6f 64 75: 
             0x000004ec: 6c 65 5f 73: 
             0x000004f0: 77 61 6c 6c: 
             0x000004f4: 6f 77 5f 63: 
             0x000004f8: 6f 6d 6d 73: 
             0x000004fc: 2f 73 72 63: 
             0x00000500: 2f 73 77 61: 
             0x00000504: 6c 6c 6f 77: 
             0x00000508: 5f 63 6f 6d: 
             0x0000050c: 6d 73 2e 78: 
             0x00000510: 63 00 33 00: 
             0x00000514: 00 00 34 00: 
             0x00000518: 00 00 76 01: 
             0x0000051c: 01 00 2f 68: 
             0x00000520: 6f 6d 65 2f: 
             0x00000524: 73 6c 64 2d: 
             0x00000528: 75 73 65 72: 
             0x0000052c: 2f 73 77 61: 
             0x00000530: 6c 6c 6f 77: 
             0x00000534: 5f 74 6f 6f: 
             0x00000538: 6c 73 2f 74: 
             0x0000053c: 6f 6f 6c 5f: 
             0x00000540: 78 6d 70 31: 
             0x00000544: 36 5f 6d 61: 
             0x00000548: 6e 79 63 6f: 
             0x0000054c: 72 65 2f 74: 
             0x00000550: 6f 6f 6c 73: 
             0x00000554: 2f 2e 2e 2f: 
             0x00000558: 63 6f 64 65: 
             0x0000055c: 2f 73 63 5f: 
             0x00000560: 73 77 61 6c: 
             0x00000564: 6c 6f 77 5f: 
             0x00000568: 63 6f 6d 6d: 
             0x0000056c: 75 6e 69 63: 
             0x00000570: 61 74 69 6f: 
             0x00000574: 6e 2f 6d 6f: 
             0x00000578: 64 75 6c 65: 
             0x0000057c: 5f 73 77 61: 
             0x00000580: 6c 6c 6f 77: 
             0x00000584: 5f 63 6f 6d: 
             0x00000588: 6d 73 2f 73: 
             0x0000058c: 72 63 2f 73: 
             0x00000590: 77 61 6c 6c: 
             0x00000594: 6f 77 5f 63: 
             0x00000598: 6f 6d 6d 73: 
             0x0000059c: 2e 78 63 00: 
             0x000005a0: 33 00 00 00: 
             0x000005a4: 34 00 00 00: 
             0x000005a8: 60 01 01 00: 
             0x000005ac: 2f 68 6f 6d: 
             0x000005b0: 65 2f 73 6c: 
             0x000005b4: 64 2d 75 73: 
             0x000005b8: 65 72 2f 73: 
             0x000005bc: 77 61 6c 6c: 
             0x000005c0: 6f 77 5f 74: 
             0x000005c4: 6f 6f 6c 73: 
             0x000005c8: 2f 74 6f 6f: 
             0x000005cc: 6c 5f 78 6d: 
             0x000005d0: 70 31 36 5f: 
             0x000005d4: 6d 61 6e 79: 
             0x000005d8: 63 6f 72 65: 
             0x000005dc: 2f 74 6f 6f: 
             0x000005e0: 6c 73 2f 2e: 
             0x000005e4: 2e 2f 63 6f: 
             0x000005e8: 64 65 2f 73: 
             0x000005ec: 63 5f 73 77: 
             0x000005f0: 61 6c 6c 6f: 
             0x000005f4: 77 5f 63 6f: 
             0x000005f8: 6d 6d 75 6e: 
             0x000005fc: 69 63 61 74: 
             0x00000600: 69 6f 6e 2f: 
             0x00000604: 6d 6f 64 75: 
             0x00000608: 6c 65 5f 73: 
             0x0000060c: 77 61 6c 6c: 
             0x00000610: 6f 77 5f 63: 
             0x00000614: 6f 6d 6d 73: 
             0x00000618: 2f 73 72 63: 
             0x0000061c: 2f 73 77 61: 
             0x00000620: 6c 6c 6f 77: 
             0x00000624: 5f 63 6f 6d: 
             0x00000628: 6d 73 2e 78: 
             0x0000062c: 63 00 33 00: 
             0x00000630: 00 00 34 00: 
             0x00000634: 00 00 7a 01: 
             0x00000638: 01 00 2f 68: 
             0x0000063c: 6f 6d 65 2f: 
             0x00000640: 73 6c 64 2d: 
             0x00000644: 75 73 65 72: 
             0x00000648: 2f 73 77 61: 
             0x0000064c: 6c 6c 6f 77: 
             0x00000650: 5f 74 6f 6f: 
             0x00000654: 6c 73 2f 74: 
             0x00000658: 6f 6f 6c 5f: 
             0x0000065c: 78 6d 70 31: 
             0x00000660: 36 5f 6d 61: 
             0x00000664: 6e 79 63 6f: 
             0x00000668: 72 65 2f 74: 
             0x0000066c: 6f 6f 6c 73: 
             0x00000670: 2f 2e 2e 2f: 
             0x00000674: 63 6f 64 65: 
             0x00000678: 2f 73 63 5f: 
             0x0000067c: 73 77 61 6c: 
             0x00000680: 6c 6f 77 5f: 
             0x00000684: 63 6f 6d 6d: 
             0x00000688: 75 6e 69 63: 
             0x0000068c: 61 74 69 6f: 
             0x00000690: 6e 2f 6d 6f: 
             0x00000694: 64 75 6c 65: 
             0x00000698: 5f 73 77 61: 
             0x0000069c: 6c 6c 6f 77: 
             0x000006a0: 5f 63 6f 6d: 
             0x000006a4: 6d 73 2f 73: 
             0x000006a8: 72 63 2f 73: 
             0x000006ac: 77 61 6c 6c: 
             0x000006b0: 6f 77 5f 63: 
             0x000006b4: 6f 6d 6d 73: 
             0x000006b8: 2e 78 63 00: 
             0x000006bc: 35 00 00 00: 
             0x000006c0: 38 00 00 00: 
             0x000006c4: 76 01 01 00: 
             0x000006c8: 2f 68 6f 6d: 
             0x000006cc: 65 2f 73 6c: 
             0x000006d0: 64 2d 75 73: 
             0x000006d4: 65 72 2f 73: 
             0x000006d8: 77 61 6c 6c: 
             0x000006dc: 6f 77 5f 74: 
             0x000006e0: 6f 6f 6c 73: 
             0x000006e4: 2f 74 6f 6f: 
             0x000006e8: 6c 5f 78 6d: 
             0x000006ec: 70 31 36 5f: 
             0x000006f0: 6d 61 6e 79: 
             0x000006f4: 63 6f 72 65: 
             0x000006f8: 2f 74 6f 6f: 
             0x000006fc: 6c 73 2f 2e: 
             0x00000700: 2e 2f 63 6f: 
             0x00000704: 64 65 2f 73: 
             0x00000708: 63 5f 73 77: 
             0x0000070c: 61 6c 6c 6f: 
             0x00000710: 77 5f 63 6f: 
             0x00000714: 6d 6d 75 6e: 
             0x00000718: 69 63 61 74: 
             0x0000071c: 69 6f 6e 2f: 
             0x00000720: 6d 6f 64 75: 
             0x00000724: 6c 65 5f 73: 
             0x00000728: 77 61 6c 6c: 
             0x0000072c: 6f 77 5f 63: 
             0x00000730: 6f 6d 6d 73: 
             0x00000734: 2f 73 72 63: 
             0x00000738: 2f 73 77 61: 
             0x0000073c: 6c 6c 6f 77: 
             0x00000740: 5f 63 6f 6d: 
             0x00000744: 6d 73 2e 78: 
             0x00000748: 63 00 35 00: 
             0x0000074c: 00 00 38 00: 
             0x00000750: 00 00 60 01: 
             0x00000754: 01 00 2f 68: 
             0x00000758: 6f 6d 65 2f: 
             0x0000075c: 73 6c 64 2d: 
             0x00000760: 75 73 65 72: 
             0x00000764: 2f 73 77 61: 
             0x00000768: 6c 6c 6f 77: 
             0x0000076c: 5f 74 6f 6f: 
             0x00000770: 6c 73 2f 74: 
             0x00000774: 6f 6f 6c 5f: 
             0x00000778: 78 6d 70 31: 
             0x0000077c: 36 5f 6d 61: 
             0x00000780: 6e 79 63 6f: 
             0x00000784: 72 65 2f 74: 
             0x00000788: 6f 6f 6c 73: 
             0x0000078c: 2f 2e 2e 2f: 
             0x00000790: 63 6f 64 65: 
             0x00000794: 2f 73 63 5f: 
             0x00000798: 73 77 61 6c: 
             0x0000079c: 6c 6f 77 5f: 
             0x000007a0: 63 6f 6d 6d: 
             0x000007a4: 75 6e 69 63: 
             0x000007a8: 61 74 69 6f: 
             0x000007ac: 6e 2f 6d 6f: 
             0x000007b0: 64 75 6c 65: 
             0x000007b4: 5f 73 77 61: 
             0x000007b8: 6c 6c 6f 77: 
             0x000007bc: 5f 63 6f 6d: 
             0x000007c0: 6d 73 2f 73: 
             0x000007c4: 72 63 2f 73: 
             0x000007c8: 77 61 6c 6c: 
             0x000007cc: 6f 77 5f 63: 
             0x000007d0: 6f 6d 6d 73: 
             0x000007d4: 2e 78 63 00: 
             0x000007d8: 35 00 00 00: 
             0x000007dc: 38 00 00 00: 
             0x000007e0: 7a 01 01 00: 
             0x000007e4: 2f 68 6f 6d: 
             0x000007e8: 65 2f 73 6c: 
             0x000007ec: 64 2d 75 73: 
             0x000007f0: 65 72 2f 73: 
             0x000007f4: 77 61 6c 6c: 
             0x000007f8: 6f 77 5f 74: 
             0x000007fc: 6f 6f 6c 73: 
             0x00000800: 2f 74 6f 6f: 
             0x00000804: 6c 5f 78 6d: 
             0x00000808: 70 31 36 5f: 
             0x0000080c: 6d 61 6e 79: 
             0x00000810: 63 6f 72 65: 
             0x00000814: 2f 74 6f 6f: 
             0x00000818: 6c 73 2f 2e: 
             0x0000081c: 2e 2f 63 6f: 
             0x00000820: 64 65 2f 73: 
             0x00000824: 63 5f 73 77: 
             0x00000828: 61 6c 6c 6f: 
             0x0000082c: 77 5f 63 6f: 
             0x00000830: 6d 6d 75 6e: 
             0x00000834: 69 63 61 74: 
             0x00000838: 69 6f 6e 2f: 
             0x0000083c: 6d 6f 64 75: 
             0x00000840: 6c 65 5f 73: 
             0x00000844: 77 61 6c 6c: 
             0x00000848: 6f 77 5f 63: 
             0x0000084c: 6f 6d 6d 73: 
             0x00000850: 2f 73 72 63: 
             0x00000854: 2f 73 77 61: 
             0x00000858: 6c 6c 6f 77: 
             0x0000085c: 5f 63 6f 6d: 
             0x00000860: 6d 73 2e 78: 
             0x00000864: 63 00 35 00: 
             0x00000868: 00 00 38 00: 
             0x0000086c: 00 00 5c 01: 
             0x00000870: 01 00 2f 68: 
             0x00000874: 6f 6d 65 2f: 
             0x00000878: 73 6c 64 2d: 
             0x0000087c: 75 73 65 72: 
             0x00000880: 2f 73 77 61: 
             0x00000884: 6c 6c 6f 77: 
             0x00000888: 5f 74 6f 6f: 
             0x0000088c: 6c 73 2f 74: 
             0x00000890: 6f 6f 6c 5f: 
             0x00000894: 78 6d 70 31: 
             0x00000898: 36 5f 6d 61: 
             0x0000089c: 6e 79 63 6f: 
             0x000008a0: 72 65 2f 74: 
             0x000008a4: 6f 6f 6c 73: 
             0x000008a8: 2f 2e 2e 2f: 
             0x000008ac: 63 6f 64 65: 
             0x000008b0: 2f 73 63 5f: 
             0x000008b4: 73 77 61 6c: 
             0x000008b8: 6c 6f 77 5f: 
             0x000008bc: 63 6f 6d 6d: 
             0x000008c0: 75 6e 69 63: 
             0x000008c4: 61 74 69 6f: 
             0x000008c8: 6e 2f 6d 6f: 
             0x000008cc: 64 75 6c 65: 
             0x000008d0: 5f 73 77 61: 
             0x000008d4: 6c 6c 6f 77: 
             0x000008d8: 5f 63 6f 6d: 
             0x000008dc: 6d 73 2f 73: 
             0x000008e0: 72 63 2f 73: 
             0x000008e4: 77 61 6c 6c: 
             0x000008e8: 6f 77 5f 63: 
             0x000008ec: 6f 6d 6d 73: 
             0x000008f0: 2e 78 63 00: 
             0x000008f4: 35 00 00 00: 
             0x000008f8: 38 00 00 00: 
             0x000008fc: 42 01 01 00: 
             0x00000900: 2f 68 6f 6d: 
             0x00000904: 65 2f 73 6c: 
             0x00000908: 64 2d 75 73: 
             0x0000090c: 65 72 2f 73: 
             0x00000910: 77 61 6c 6c: 
             0x00000914: 6f 77 5f 74: 
             0x00000918: 6f 6f 6c 73: 
             0x0000091c: 2f 74 6f 6f: 
             0x00000920: 6c 5f 78 6d: 
             0x00000924: 70 31 36 5f: 
             0x00000928: 6d 61 6e 79: 
             0x0000092c: 63 6f 72 65: 
             0x00000930: 2f 74 6f 6f: 
             0x00000934: 6c 73 2f 2e: 
             0x00000938: 2e 2f 63 6f: 
             0x0000093c: 64 65 2f 73: 
             0x00000940: 63 5f 73 77: 
             0x00000944: 61 6c 6c 6f: 
             0x00000948: 77 5f 63 6f: 
             0x0000094c: 6d 6d 75 6e: 
             0x00000950: 69 63 61 74: 
             0x00000954: 69 6f 6e 2f: 
             0x00000958: 6d 6f 64 75: 
             0x0000095c: 6c 65 5f 73: 
             0x00000960: 77 61 6c 6c: 
             0x00000964: 6f 77 5f 63: 
             0x00000968: 6f 6d 6d 73: 
             0x0000096c: 2f 73 72 63: 
             0x00000970: 2f 73 77 61: 
             0x00000974: 6c 6c 6f 77: 
             0x00000978: 5f 63 6f 6d: 
             0x0000097c: 6d 73 2e 78: 
             0x00000980: 63 00 3f 00: 
             0x00000984: 00 00 40 00: 
             0x00000988: 00 00 7a 01: 
             0x0000098c: 01 00 2f 68: 
             0x00000990: 6f 6d 65 2f: 
             0x00000994: 73 6c 64 2d: 
             0x00000998: 75 73 65 72: 
             0x0000099c: 2f 73 77 61: 
             0x000009a0: 6c 6c 6f 77: 
             0x000009a4: 5f 74 6f 6f: 
             0x000009a8: 6c 73 2f 74: 
             0x000009ac: 6f 6f 6c 5f: 
             0x000009b0: 78 6d 70 31: 
             0x000009b4: 36 5f 6d 61: 
             0x000009b8: 6e 79 63 6f: 
             0x000009bc: 72 65 2f 74: 
             0x000009c0: 6f 6f 6c 73: 
             0x000009c4: 2f 2e 2e 2f: 
             0x000009c8: 63 6f 64 65: 
             0x000009cc: 2f 73 63 5f: 
             0x000009d0: 73 77 61 6c: 
             0x000009d4: 6c 6f 77 5f: 
             0x000009d8: 63 6f 6d 6d: 
             0x000009dc: 75 6e 69 63: 
             0x000009e0: 61 74 69 6f: 
             0x000009e4: 6e 2f 6d 6f: 
             0x000009e8: 64 75 6c 65: 
             0x000009ec: 5f 73 77 61: 
             0x000009f0: 6c 6c 6f 77: 
             0x000009f4: 5f 63 6f 6d: 
             0x000009f8: 6d 73 2f 73: 
             0x000009fc: 72 63 2f 73: 
             0x00000a00: 77 61 6c 6c: 
             0x00000a04: 6f 77 5f 63: 
             0x00000a08: 6f 6d 6d 73: 
             0x00000a0c: 2e 78 63 00: 
             0x00000a10: 3f 00 00 00: 
             0x00000a14: 40 00 00 00: 
             0x00000a18: 76 01 01 00: 
             0x00000a1c: 2f 68 6f 6d: 
             0x00000a20: 65 2f 73 6c: 
             0x00000a24: 64 2d 75 73: 
             0x00000a28: 65 72 2f 73: 
             0x00000a2c: 77 61 6c 6c: 
             0x00000a30: 6f 77 5f 74: 
             0x00000a34: 6f 6f 6c 73: 
             0x00000a38: 2f 74 6f 6f: 
             0x00000a3c: 6c 5f 78 6d: 
             0x00000a40: 70 31 36 5f: 
             0x00000a44: 6d 61 6e 79: 
             0x00000a48: 63 6f 72 65: 
             0x00000a4c: 2f 74 6f 6f: 
             0x00000a50: 6c 73 2f 2e: 
             0x00000a54: 2e 2f 63 6f: 
             0x00000a58: 64 65 2f 73: 
             0x00000a5c: 63 5f 73 77: 
             0x00000a60: 61 6c 6c 6f: 
             0x00000a64: 77 5f 63 6f: 
             0x00000a68: 6d 6d 75 6e: 
             0x00000a6c: 69 63 61 74: 
             0x00000a70: 69 6f 6e 2f: 
             0x00000a74: 6d 6f 64 75: 
             0x00000a78: 6c 65 5f 73: 
             0x00000a7c: 77 61 6c 6c: 
             0x00000a80: 6f 77 5f 63: 
             0x00000a84: 6f 6d 6d 73: 
             0x00000a88: 2f 73 72 63: 
             0x00000a8c: 2f 73 77 61: 
             0x00000a90: 6c 6c 6f 77: 
             0x00000a94: 5f 63 6f 6d: 
             0x00000a98: 6d 73 2e 78: 
             0x00000a9c: 63 00 3f 00: 
             0x00000aa0: 00 00 40 00: 
             0x00000aa4: 00 00 60 01: 
             0x00000aa8: 01 00 2f 68: 
             0x00000aac: 6f 6d 65 2f: 
             0x00000ab0: 73 6c 64 2d: 
             0x00000ab4: 75 73 65 72: 
             0x00000ab8: 2f 73 77 61: 
             0x00000abc: 6c 6c 6f 77: 
             0x00000ac0: 5f 74 6f 6f: 
             0x00000ac4: 6c 73 2f 74: 
             0x00000ac8: 6f 6f 6c 5f: 
             0x00000acc: 78 6d 70 31: 
             0x00000ad0: 36 5f 6d 61: 
             0x00000ad4: 6e 79 63 6f: 
             0x00000ad8: 72 65 2f 74: 
             0x00000adc: 6f 6f 6c 73: 
             0x00000ae0: 2f 2e 2e 2f: 
             0x00000ae4: 63 6f 64 65: 
             0x00000ae8: 2f 73 63 5f: 
             0x00000aec: 73 77 61 6c: 
             0x00000af0: 6c 6f 77 5f: 
             0x00000af4: 63 6f 6d 6d: 
             0x00000af8: 75 6e 69 63: 
             0x00000afc: 61 74 69 6f: 
             0x00000b00: 6e 2f 6d 6f: 
             0x00000b04: 64 75 6c 65: 
             0x00000b08: 5f 73 77 61: 
             0x00000b0c: 6c 6c 6f 77: 
             0x00000b10: 5f 63 6f 6d: 
             0x00000b14: 6d 73 2f 73: 
             0x00000b18: 72 63 2f 73: 
             0x00000b1c: 77 61 6c 6c: 
             0x00000b20: 6f 77 5f 63: 
             0x00000b24: 6f 6d 6d 73: 
             0x00000b28: 2e 78 63 00: 
             0x00000b2c: 3f 00 00 00: 
             0x00000b30: 40 00 00 00: 
             0x00000b34: 5c 01 01 00: 
             0x00000b38: 2f 68 6f 6d: 
             0x00000b3c: 65 2f 73 6c: 
             0x00000b40: 64 2d 75 73: 
             0x00000b44: 65 72 2f 73: 
             0x00000b48: 77 61 6c 6c: 
             0x00000b4c: 6f 77 5f 74: 
             0x00000b50: 6f 6f 6c 73: 
             0x00000b54: 2f 74 6f 6f: 
             0x00000b58: 6c 5f 78 6d: 
             0x00000b5c: 70 31 36 5f: 
             0x00000b60: 6d 61 6e 79: 
             0x00000b64: 63 6f 72 65: 
             0x00000b68: 2f 74 6f 6f: 
             0x00000b6c: 6c 73 2f 2e: 
             0x00000b70: 2e 2f 63 6f: 
             0x00000b74: 64 65 2f 73: 
             0x00000b78: 63 5f 73 77: 
             0x00000b7c: 61 6c 6c 6f: 
             0x00000b80: 77 5f 63 6f: 
             0x00000b84: 6d 6d 75 6e: 
             0x00000b88: 69 63 61 74: 
             0x00000b8c: 69 6f 6e 2f: 
             0x00000b90: 6d 6f 64 75: 
             0x00000b94: 6c 65 5f 73: 
             0x00000b98: 77 61 6c 6c: 
             0x00000b9c: 6f 77 5f 63: 
             0x00000ba0: 6f 6d 6d 73: 
             0x00000ba4: 2f 73 72 63: 
             0x00000ba8: 2f 73 77 61: 
             0x00000bac: 6c 6c 6f 77: 
             0x00000bb0: 5f 63 6f 6d: 
             0x00000bb4: 6d 73 2e 78: 
             0x00000bb8: 63 00 3f 00: 
             0x00000bbc: 00 00 40 00: 
             0x00000bc0: 00 00 42 01: 
             0x00000bc4: 01 00 2f 68: 
             0x00000bc8: 6f 6d 65 2f: 
             0x00000bcc: 73 6c 64 2d: 
             0x00000bd0: 75 73 65 72: 
             0x00000bd4: 2f 73 77 61: 
             0x00000bd8: 6c 6c 6f 77: 
             0x00000bdc: 5f 74 6f 6f: 
             0x00000be0: 6c 73 2f 74: 
             0x00000be4: 6f 6f 6c 5f: 
             0x00000be8: 78 6d 70 31: 
             0x00000bec: 36 5f 6d 61: 
             0x00000bf0: 6e 79 63 6f: 
             0x00000bf4: 72 65 2f 74: 
             0x00000bf8: 6f 6f 6c 73: 
             0x00000bfc: 2f 2e 2e 2f: 
             0x00000c00: 63 6f 64 65: 
             0x00000c04: 2f 73 63 5f: 
             0x00000c08: 73 77 61 6c: 
             0x00000c0c: 6c 6f 77 5f: 
             0x00000c10: 63 6f 6d 6d: 
             0x00000c14: 75 6e 69 63: 
             0x00000c18: 61 74 69 6f: 
             0x00000c1c: 6e 2f 6d 6f: 
             0x00000c20: 64 75 6c 65: 
             0x00000c24: 5f 73 77 61: 
             0x00000c28: 6c 6c 6f 77: 
             0x00000c2c: 5f 63 6f 6d: 
             0x00000c30: 6d 73 2f 73: 
             0x00000c34: 72 63 2f 73: 
             0x00000c38: 77 61 6c 6c: 
             0x00000c3c: 6f 77 5f 63: 
             0x00000c40: 6f 6d 6d 73: 
             0x00000c44: 2e 78 63 00: 
             0x00000c48: 42 00 00 00: 
             0x00000c4c: 43 00 00 00: 
             0x00000c50: 76 01 01 00: 
             0x00000c54: 2f 68 6f 6d: 
             0x00000c58: 65 2f 73 6c: 
             0x00000c5c: 64 2d 75 73: 
             0x00000c60: 65 72 2f 73: 
             0x00000c64: 77 61 6c 6c: 
             0x00000c68: 6f 77 5f 74: 
             0x00000c6c: 6f 6f 6c 73: 
             0x00000c70: 2f 74 6f 6f: 
             0x00000c74: 6c 5f 78 6d: 
             0x00000c78: 70 31 36 5f: 
             0x00000c7c: 6d 61 6e 79: 
             0x00000c80: 63 6f 72 65: 
             0x00000c84: 2f 74 6f 6f: 
             0x00000c88: 6c 73 2f 2e: 
             0x00000c8c: 2e 2f 63 6f: 
             0x00000c90: 64 65 2f 73: 
             0x00000c94: 63 5f 73 77: 
             0x00000c98: 61 6c 6c 6f: 
             0x00000c9c: 77 5f 63 6f: 
             0x00000ca0: 6d 6d 75 6e: 
             0x00000ca4: 69 63 61 74: 
             0x00000ca8: 69 6f 6e 2f: 
             0x00000cac: 6d 6f 64 75: 
             0x00000cb0: 6c 65 5f 73: 
             0x00000cb4: 77 61 6c 6c: 
             0x00000cb8: 6f 77 5f 63: 
             0x00000cbc: 6f 6d 6d 73: 
             0x00000cc0: 2f 73 72 63: 
             0x00000cc4: 2f 73 77 61: 
             0x00000cc8: 6c 6c 6f 77: 
             0x00000ccc: 5f 63 6f 6d: 
             0x00000cd0: 6d 73 2e 78: 
             0x00000cd4: 63 00 42 00: 
             0x00000cd8: 00 00 43 00: 
             0x00000cdc: 00 00 60 01: 
             0x00000ce0: 01 00 2f 68: 
             0x00000ce4: 6f 6d 65 2f: 
             0x00000ce8: 73 6c 64 2d: 
             0x00000cec: 75 73 65 72: 
             0x00000cf0: 2f 73 77 61: 
             0x00000cf4: 6c 6c 6f 77: 
             0x00000cf8: 5f 74 6f 6f: 
             0x00000cfc: 6c 73 2f 74: 
             0x00000d00: 6f 6f 6c 5f: 
             0x00000d04: 78 6d 70 31: 
             0x00000d08: 36 5f 6d 61: 
             0x00000d0c: 6e 79 63 6f: 
             0x00000d10: 72 65 2f 74: 
             0x00000d14: 6f 6f 6c 73: 
             0x00000d18: 2f 2e 2e 2f: 
             0x00000d1c: 63 6f 64 65: 
             0x00000d20: 2f 73 63 5f: 
             0x00000d24: 73 77 61 6c: 
             0x00000d28: 6c 6f 77 5f: 
             0x00000d2c: 63 6f 6d 6d: 
             0x00000d30: 75 6e 69 63: 
             0x00000d34: 61 74 69 6f: 
             0x00000d38: 6e 2f 6d 6f: 
             0x00000d3c: 64 75 6c 65: 
             0x00000d40: 5f 73 77 61: 
             0x00000d44: 6c 6c 6f 77: 
             0x00000d48: 5f 63 6f 6d: 
             0x00000d4c: 6d 73 2f 73: 
             0x00000d50: 72 63 2f 73: 
             0x00000d54: 77 61 6c 6c: 
             0x00000d58: 6f 77 5f 63: 
             0x00000d5c: 6f 6d 6d 73: 
             0x00000d60: 2e 78 63 00: 
             0x00000d64: 42 00 00 00: 
             0x00000d68: 43 00 00 00: 
             0x00000d6c: 5c 01 01 00: 
             0x00000d70: 2f 68 6f 6d: 
             0x00000d74: 65 2f 73 6c: 
             0x00000d78: 64 2d 75 73: 
             0x00000d7c: 65 72 2f 73: 
             0x00000d80: 77 61 6c 6c: 
             0x00000d84: 6f 77 5f 74: 
             0x00000d88: 6f 6f 6c 73: 
             0x00000d8c: 2f 74 6f 6f: 
             0x00000d90: 6c 5f 78 6d: 
             0x00000d94: 70 31 36 5f: 
             0x00000d98: 6d 61 6e 79: 
             0x00000d9c: 63 6f 72 65: 
             0x00000da0: 2f 74 6f 6f: 
             0x00000da4: 6c 73 2f 2e: 
             0x00000da8: 2e 2f 63 6f: 
             0x00000dac: 64 65 2f 73: 
             0x00000db0: 63 5f 73 77: 
             0x00000db4: 61 6c 6c 6f: 
             0x00000db8: 77 5f 63 6f: 
             0x00000dbc: 6d 6d 75 6e: 
             0x00000dc0: 69 63 61 74: 
             0x00000dc4: 69 6f 6e 2f: 
             0x00000dc8: 6d 6f 64 75: 
             0x00000dcc: 6c 65 5f 73: 
             0x00000dd0: 77 61 6c 6c: 
             0x00000dd4: 6f 77 5f 63: 
             0x00000dd8: 6f 6d 6d 73: 
             0x00000ddc: 2f 73 72 63: 
             0x00000de0: 2f 73 77 61: 
             0x00000de4: 6c 6c 6f 77: 
             0x00000de8: 5f 63 6f 6d: 
             0x00000dec: 6d 73 2e 78: 
             0x00000df0: 63 00 42 00: 
             0x00000df4: 00 00 43 00: 
             0x00000df8: 00 00 7a 01: 
             0x00000dfc: 01 00 2f 68: 
             0x00000e00: 6f 6d 65 2f: 
             0x00000e04: 73 6c 64 2d: 
             0x00000e08: 75 73 65 72: 
             0x00000e0c: 2f 73 77 61: 
             0x00000e10: 6c 6c 6f 77: 
             0x00000e14: 5f 74 6f 6f: 
             0x00000e18: 6c 73 2f 74: 
             0x00000e1c: 6f 6f 6c 5f: 
             0x00000e20: 78 6d 70 31: 
             0x00000e24: 36 5f 6d 61: 
             0x00000e28: 6e 79 63 6f: 
             0x00000e2c: 72 65 2f 74: 
             0x00000e30: 6f 6f 6c 73: 
             0x00000e34: 2f 2e 2e 2f: 
             0x00000e38: 63 6f 64 65: 
             0x00000e3c: 2f 73 63 5f: 
             0x00000e40: 73 77 61 6c: 
             0x00000e44: 6c 6f 77 5f: 
             0x00000e48: 63 6f 6d 6d: 
             0x00000e4c: 75 6e 69 63: 
             0x00000e50: 61 74 69 6f: 
             0x00000e54: 6e 2f 6d 6f: 
             0x00000e58: 64 75 6c 65: 
             0x00000e5c: 5f 73 77 61: 
             0x00000e60: 6c 6c 6f 77: 
             0x00000e64: 5f 63 6f 6d: 
             0x00000e68: 6d 73 2f 73: 
             0x00000e6c: 72 63 2f 73: 
             0x00000e70: 77 61 6c 6c: 
             0x00000e74: 6f 77 5f 63: 
             0x00000e78: 6f 6d 6d 73: 
             0x00000e7c: 2e 78 63 00: 
             0x00000e80: 42 00 00 00: 
             0x00000e84: 43 00 00 00: 
             0x00000e88: 42 01 01 00: 
             0x00000e8c: 43 00 00 00: 
             0x00000e90: 00 00 00 00: 
             0x00000e94: 2f 68 6f 6d: 
             0x00000e98: 65 2f 73 6c: 
             0x00000e9c: 64 2d 75 73: 
             0x00000ea0: 65 72 2f 77: 
             0x00000ea4: 6f 72 6b 73: 
             0x00000ea8: 70 61 63 65: 
             0x00000eac: 2f 70 72 69: 
             0x00000eb0: 6d 73 00 53: 
             0x00000eb4: 77 61 6c 6c: 
             0x00000eb8: 6f 77 2d 77: 
             0x00000ebc: 61 69 74 2e: 
             0x00000ec0: 78 63 00 0b: 
             0x00000ec4: 00 00 00 17: 
             0x00000ec8: 00 00 00 30: 
             0x00000ecc: 02 01 00 5d: 
             0x00000ed0: 01 00 00 00: 
             0x00000ed4: 00 00 00 2f: 
             0x00000ed8: 68 6f 6d 65: 
             0x00000edc: 2f 73 6c 64: 
             0x00000ee0: 2d 75 73 65: 
             0x00000ee4: 72 2f 77 6f: 
             0x00000ee8: 72 6b 73 70: 
             0x00000eec: 61 63 65 2f: 
             0x00000ef0: 70 72 69 6d: 
             0x00000ef4: 73 00 53 77: 
             0x00000ef8: 61 6c 6c 6f: 
             0x00000efc: 77 2d 68 65: 
             0x00000f00: 6c 70 65 72: 
             0x00000f04: 73 2e 78 63: 
             0x00000f08: 00 29 00 00: 
             0x00000f0c: 00 2b 00 00: 
             0x00000f10: 00 46 02 01: 
             0x00000f14: 00 53 77 61: 
             0x00000f18: 6c 6c 6f 77: 
             0x00000f1c: 2d 68 65 6c: 
             0x00000f20: 70 65 72 73: 
             0x00000f24: 2e 78 63 00: 
             0x00000f28: 3a 00 00 00: 
             0x00000f2c: 3e 00 00 00: 
             0x00000f30: 5e 02 01 00: 
             0x00000f34: 53 77 61 6c: 
             0x00000f38: 6c 6f 77 2d: 
             0x00000f3c: 68 65 6c 70: 
             0x00000f40: 65 72 73 2e: 
             0x00000f44: 78 63 00 4d: 
             0x00000f48: 00 00 00 53: 
             0x00000f4c: 00 00 00 62: 
             0x00000f50: 02 01 00 53: 
             0x00000f54: 77 61 6c 6c: 
             0x00000f58: 6f 77 2d 68: 
             0x00000f5c: 65 6c 70 65: 
             0x00000f60: 72 73 2e 78: 
             0x00000f64: 63 00 74 00: 
             0x00000f68: 00 00 7c 00: 
             0x00000f6c: 00 00 bc 02: 
             0x00000f70: 01 00 53 77: 
             0x00000f74: 61 6c 6c 6f: 
             0x00000f78: 77 2d 68 65: 
             0x00000f7c: 6c 70 65 72: 
             0x00000f80: 73 2e 78 63: 
             0x00000f84: 00 98 00 00: 
             0x00000f88: 00 a2 00 00: 
             0x00000f8c: 00 6e 02 01: 
             0x00000f90: 00 53 77 61: 
             0x00000f94: 6c 6c 6f 77: 
             0x00000f98: 2d 68 65 6c: 
             0x00000f9c: 70 65 72 73: 
             0x00000fa0: 2e 78 63 00: 
             0x00000fa4: a3 00 00 00: 
             0x00000fa8: a4 00 00 00: 
             0x00000fac: 88 02 01 00: 
             0x00000fb0: 53 77 61 6c: 
             0x00000fb4: 6c 6f 77 2d: 
             0x00000fb8: 68 65 6c 70: 
             0x00000fbc: 65 72 73 2e: 
             0x00000fc0: 78 63 00 a6: 
             0x00000fc4: 00 00 00 a9: 
             0x00000fc8: 00 00 00 88: 
             0x00000fcc: 02 01 00 53: 
             0x00000fd0: 77 61 6c 6c: 
             0x00000fd4: 6f 77 2d 68: 
             0x00000fd8: 65 6c 70 65: 
             0x00000fdc: 72 73 2e 78: 
             0x00000fe0: 63 00 aa 00: 
             0x00000fe4: 00 00 af 00: 
             0x00000fe8: 00 00 9c 02: 
             0x00000fec: 01 00 53 77: 
             0x00000ff0: 61 6c 6c 6f: 
             0x00000ff4: 77 2d 68 65: 
             0x00000ff8: 6c 70 65 72: 
             0x00000ffc: 73 2e 78 63: 
             0x00001000: 00 b0 00 00: 
             0x00001004: 00 b3 00 00: 
             0x00001008: 00 a4 02 01: 
             0x0000100c: 00 53 77 61: 
             0x00001010: 6c 6c 6f 77: 
             0x00001014: 2d 68 65 6c: 
             0x00001018: 70 65 72 73: 
             0x0000101c: 2e 78 63 00: 
             0x00001020: b4 00 00 00: 
             0x00001024: b6 00 00 00: 
             0x00001028: b4 02 01 00: 
             0x0000102c: 8d 00 00 00: 
             0x00001030: 00 00 00 00: 
             0x00001034: 2f 68 6f 6d: 
             0x00001038: 65 2f 73 6c: 
             0x0000103c: 64 2d 75 73: 
             0x00001040: 65 72 2f 77: 
             0x00001044: 6f 72 6b 73: 
             0x00001048: 70 61 63 65: 
             0x0000104c: 2f 70 72 69: 
             0x00001050: 6d 73 00 53: 
             0x00001054: 77 61 6c 6c: 
             0x00001058: 6f 77 2d 6e: 
             0x0000105c: 4f 53 5f 63: 
             0x00001060: 6c 69 65 6e: 
             0x00001064: 74 2e 78 63: 
             0x00001068: 00 3c 00 00: 
             0x0000106c: 00 46 00 00: 
             0x00001070: 00 8a 03 01: 
             0x00001074: 00 53 77 61: 
             0x00001078: 6c 6c 6f 77: 
             0x0000107c: 2d 6e 4f 53: 
             0x00001080: 5f 63 6c 69: 
             0x00001084: 65 6e 74 2e: 
             0x00001088: 78 63 00 49: 
             0x0000108c: 00 00 00 53: 
             0x00001090: 00 00 00 c0: 
             0x00001094: 03 01 00 53: 
             0x00001098: 77 61 6c 6c: 
             0x0000109c: 6f 77 2d 6e: 
             0x000010a0: 4f 53 5f 63: 
             0x000010a4: 6c 69 65 6e: 
             0x000010a8: 74 2e 78 63: 
             0x000010ac: 00 9c 00 00: 
             0x000010b0: 00 ae 00 00: 
             0x000010b4: 00 ee 03 01: 
             0x000010b8: 00 af 02 00: 
             0x000010bc: 00 00 00 00: 
             0x000010c0: 00 2f 68 6f: 
             0x000010c4: 6d 65 2f 73: 
             0x000010c8: 6c 64 2d 75: 
             0x000010cc: 73 65 72 2f: 
             0x000010d0: 77 6f 72 6b: 
             0x000010d4: 73 70 61 63: 
             0x000010d8: 65 2f 70 72: 
             0x000010dc: 69 6d 73 00: 
             0x000010e0: 53 77 61 6c: 
             0x000010e4: 6c 6f 77 2d: 
             0x000010e8: 6e 4f 53 2e: 
             0x000010ec: 78 63 00 13: 
             0x000010f0: 00 00 00 1e: 
             0x000010f4: 00 00 00 5a: 
             0x000010f8: 06 01 00 53: 
             0x000010fc: 77 61 6c 6c: 
             0x00001100: 6f 77 2d 6e: 
             0x00001104: 4f 53 2e 78: 
             0x00001108: 63 00 21 00: 
             0x0000110c: 00 00 2e 00: 
             0x00001110: 00 00 b2 06: 
             0x00001114: 01 00 53 77: 
             0x00001118: 61 6c 6c 6f: 
             0x0000111c: 77 2d 6e 4f: 
             0x00001120: 53 2e 78 63: 
             0x00001124: 00 36 00 00: 
             0x00001128: 00 3c 00 00: 
             0x0000112c: 00 04 06 01: 
             0x00001130: 00 53 77 61: 
             0x00001134: 6c 6c 6f 77: 
             0x00001138: 2d 6e 4f 53: 
             0x0000113c: 2e 78 63 00: 
             0x00001140: 3e 00 00 00: 
             0x00001144: 4b 00 00 00: 
             0x00001148: 0c 07 01 00: 
             0x0000114c: 53 77 61 6c: 
             0x00001150: 6c 6f 77 2d: 
             0x00001154: 6e 4f 53 2e: 
             0x00001158: 78 63 00 3e: 
             0x0000115c: 00 00 00 4b: 
             0x00001160: 00 00 00 f4: 
             0x00001164: 06 01 00 53: 
             0x00001168: 77 61 6c 6c: 
             0x0000116c: 6f 77 2d 6e: 
             0x00001170: 4f 53 2e 78: 
             0x00001174: 63 00 4c 00: 
             0x00001178: 00 00 55 00: 
             0x0000117c: 00 00 26 07: 
             0x00001180: 01 00 53 77: 
             0x00001184: 61 6c 6c 6f: 
             0x00001188: 77 2d 6e 4f: 
             0x0000118c: 53 2e 78 63: 
             0x00001190: 00 56 00 00: 
             0x00001194: 00 5d 00 00: 
             0x00001198: 00 44 07 01: 
             0x0000119c: 00 53 77 61: 
             0x000011a0: 6c 6c 6f 77: 
             0x000011a4: 2d 6e 4f 53: 
             0x000011a8: 2e 78 63 00: 
             0x000011ac: 5e 00 00 00: 
             0x000011b0: 65 00 00 00: 
             0x000011b4: 58 07 01 00: 
             0x000011b8: 53 77 61 6c: 
             0x000011bc: 6c 6f 77 2d: 
             0x000011c0: 6e 4f 53 2e: 
             0x000011c4: 78 63 00 66: 
             0x000011c8: 00 00 00 6d: 
             0x000011cc: 00 00 00 68: 
             0x000011d0: 07 01 00 53: 
             0x000011d4: 77 61 6c 6c: 
             0x000011d8: 6f 77 2d 6e: 
             0x000011dc: 4f 53 2e 78: 
             0x000011e0: 63 00 6e 00: 
             0x000011e4: 00 00 77 00: 
             0x000011e8: 00 00 78 07: 
             0x000011ec: 01 00 53 77: 
             0x000011f0: 61 6c 6c 6f: 
             0x000011f4: 77 2d 6e 4f: 
             0x000011f8: 53 2e 78 63: 
             0x000011fc: 00 78 00 00: 
             0x00001200: 00 80 00 00: 
             0x00001204: 00 a8 07 01: 
             0x00001208: 00 53 77 61: 
             0x0000120c: 6c 6c 6f 77: 
             0x00001210: 2d 6e 4f 53: 
             0x00001214: 2e 78 63 00: 
             0x00001218: 81 00 00 00: 
             0x0000121c: 84 00 00 00: 
             0x00001220: b6 07 01 00: 
             0x00001224: 53 77 61 6c: 
             0x00001228: 6c 6f 77 2d: 
             0x0000122c: 6e 4f 53 2e: 
             0x00001230: 78 63 00 85: 
             0x00001234: 00 00 00 85: 
             0x00001238: 00 00 00 f4: 
             0x0000123c: 06 01 00 53: 
             0x00001240: 77 61 6c 6c: 
             0x00001244: 6f 77 2d 6e: 
             0x00001248: 4f 53 2e 78: 
             0x0000124c: 63 00 85 00: 
             0x00001250: 00 00 85 00: 
             0x00001254: 00 00 0c 07: 
             0x00001258: 01 00 53 77: 
             0x0000125c: 61 6c 6c 6f: 
             0x00001260: 77 2d 6e 4f: 
             0x00001264: 53 2e 78 63: 
             0x00001268: 00 92 00 00: 
             0x0000126c: 00 a4 00 00: 
             0x00001270: 00 c6 05 01: 
             0x00001274: 00 53 77 61: 
             0x00001278: 6c 6c 6f 77: 
             0x0000127c: 2d 6e 4f 53: 
             0x00001280: 2e 78 63 00: 
             0x00001284: b7 00 00 00: 
             0x00001288: b9 00 00 00: 
             0x0000128c: c6 05 01 00: 
             0x00001290: 53 77 61 6c: 
             0x00001294: 6c 6f 77 2d: 
             0x00001298: 6e 4f 53 2e: 
             0x0000129c: 78 63 00 c3: 
             0x000012a0: 00 00 00 c3: 
             0x000012a4: 00 00 00 c6: 
             0x000012a8: 05 01 00 53: 
             0x000012ac: 77 61 6c 6c: 
             0x000012b0: 6f 77 2d 6e: 
             0x000012b4: 4f 53 2e 78: 
             0x000012b8: 63 00 c4 00: 
             0x000012bc: 00 00 c6 00: 
             0x000012c0: 00 00 fe 05: 
             0x000012c4: 01 00 53 77: 
             0x000012c8: 61 6c 6c 6f: 
             0x000012cc: 77 2d 6e 4f: 
             0x000012d0: 53 2e 78 63: 
             0x000012d4: 00 c7 00 00: 
             0x000012d8: 00 cb 00 00: 
             0x000012dc: 00 04 06 01: 
             0x000012e0: 00 53 77 61: 
             0x000012e4: 6c 6c 6f 77: 
             0x000012e8: 2d 6e 4f 53: 
             0x000012ec: 2e 78 63 00: 
             0x000012f0: cc 00 00 00: 
             0x000012f4: ce 00 00 00: 
             0x000012f8: 26 06 01 00: 
             0x000012fc: 53 77 61 6c: 
             0x00001300: 6c 6f 77 2d: 
             0x00001304: 6e 4f 53 2e: 
             0x00001308: 78 63 00 cf: 
             0x0000130c: 00 00 00 cf: 
             0x00001310: 00 00 00 28: 
             0x00001314: 06 01 00 53: 
             0x00001318: 77 61 6c 6c: 
             0x0000131c: 6f 77 2d 6e: 
             0x00001320: 4f 53 2e 78: 
             0x00001324: 63 00 d0 00: 
             0x00001328: 00 00 d0 00: 
             0x0000132c: 00 00 38 06: 
             0x00001330: 01 00 53 77: 
             0x00001334: 61 6c 6c 6f: 
             0x00001338: 77 2d 6e 4f: 
             0x0000133c: 53 2e 78 63: 
             0x00001340: 00 d1 00 00: 
             0x00001344: 00 d8 00 00: 
             0x00001348: 00 3e 06 01: 
             0x0000134c: 00 53 77 61: 
             0x00001350: 6c 6c 6f 77: 
             0x00001354: 2d 6e 4f 53: 
             0x00001358: 2e 78 63 00: 
             0x0000135c: d9 00 00 00: 
             0x00001360: de 00 00 00: 
             0x00001364: 4e 06 01 00: 
             0x00001368: 43 07 00 00: 
             0x0000136c: 00 00 00 00: 
             0x00001370: 2f 68 6f 6d: 
             0x00001374: 65 2f 73 6c: 
             0x00001378: 64 2d 75 73: 
             0x0000137c: 65 72 2f 77: 
             0x00001380: 6f 72 6b 73: 
             0x00001384: 70 61 63 65: 
             0x00001388: 2f 70 72 69: 
             0x0000138c: 6d 73 00 53: 
             0x00001390: 77 61 6c 6c: 
             0x00001394: 6f 77 2d 70: 
             0x00001398: 72 69 6d 2e: 
             0x0000139c: 78 63 00 4c: 
             0x000013a0: 00 00 00 56: 
             0x000013a4: 00 00 00 d8: 
             0x000013a8: 07 01 00 53: 
             0x000013ac: 77 61 6c 6c: 
             0x000013b0: 6f 77 2d 70: 
             0x000013b4: 72 69 6d 2e: 
             0x000013b8: 78 63 00 59: 
             0x000013bc: 00 00 00 6f: 
             0x000013c0: 00 00 00 44: 
             0x000013c4: 08 01 00 53: 
             0x000013c8: 77 61 6c 6c: 
             0x000013cc: 6f 77 2d 70: 
             0x000013d0: 72 69 6d 2e: 
             0x000013d4: 78 63 00 70: 
             0x000013d8: 00 00 00 70: 
             0x000013dc: 00 00 00 6e: 
             0x000013e0: 08 01 00 53: 
             0x000013e4: 77 61 6c 6c: 
             0x000013e8: 6f 77 2d 70: 
             0x000013ec: 72 69 6d 2e: 
             0x000013f0: 78 63 00 71: 
             0x000013f4: 00 00 00 71: 
             0x000013f8: 00 00 00 7c: 
             0x000013fc: 08 01 00 53: 
             0x00001400: 77 61 6c 6c: 
             0x00001404: 6f 77 2d 70: 
             0x00001408: 72 69 6d 2e: 
             0x0000140c: 78 63 00 72: 
             0x00001410: 00 00 00 72: 
             0x00001414: 00 00 00 90: 
             0x00001418: 08 01 00 53: 
             0x0000141c: 77 61 6c 6c: 
             0x00001420: 6f 77 2d 70: 
             0x00001424: 72 69 6d 2e: 
             0x00001428: 78 63 00 73: 
             0x0000142c: 00 00 00 7d: 
             0x00001430: 00 00 00 9a: 
             0x00001434: 08 01 00 53: 
             0x00001438: 77 61 6c 6c: 
             0x0000143c: 6f 77 2d 70: 
             0x00001440: 72 69 6d 2e: 
             0x00001444: 78 63 00 7e: 
             0x00001448: 00 00 00 7e: 
             0x0000144c: 00 00 00 bc: 
             0x00001450: 08 01 00 53: 
             0x00001454: 77 61 6c 6c: 
             0x00001458: 6f 77 2d 70: 
             0x0000145c: 72 69 6d 2e: 
             0x00001460: 78 63 00 7f: 
             0x00001464: 00 00 00 7f: 
             0x00001468: 00 00 00 c6: 
             0x0000146c: 08 01 00 53: 
             0x00001470: 77 61 6c 6c: 
             0x00001474: 6f 77 2d 70: 
             0x00001478: 72 69 6d 2e: 
             0x0000147c: 78 63 00 80: 
             0x00001480: 00 00 00 80: 
             0x00001484: 00 00 00 ce: 
             0x00001488: 08 01 00 53: 
             0x0000148c: 77 61 6c 6c: 
             0x00001490: 6f 77 2d 70: 
             0x00001494: 72 69 6d 2e: 
             0x00001498: 78 63 00 81: 
             0x0000149c: 00 00 00 86: 
             0x000014a0: 00 00 00 d6: 
             0x000014a4: 08 01 00 53: 
             0x000014a8: 77 61 6c 6c: 
             0x000014ac: 6f 77 2d 70: 
             0x000014b0: 72 69 6d 2e: 
             0x000014b4: 78 63 00 87: 
             0x000014b8: 00 00 00 88: 
             0x000014bc: 00 00 00 e4: 
             0x000014c0: 08 01 00 53: 
             0x000014c4: 77 61 6c 6c: 
             0x000014c8: 6f 77 2d 70: 
             0x000014cc: 72 69 6d 2e: 
             0x000014d0: 78 63 00 8b: 
             0x000014d4: 00 00 00 8d: 
             0x000014d8: 00 00 00 fe: 
             0x000014dc: 08 01 00 53: 
             0x000014e0: 77 61 6c 6c: 
             0x000014e4: 6f 77 2d 70: 
             0x000014e8: 72 69 6d 2e: 
             0x000014ec: 78 63 00 8e: 
             0x000014f0: 00 00 00 8f: 
             0x000014f4: 00 00 00 20: 
             0x000014f8: 09 01 00 53: 
             0x000014fc: 77 61 6c 6c: 
             0x00001500: 6f 77 2d 70: 
             0x00001504: 72 69 6d 2e: 
             0x00001508: 78 63 00 90: 
             0x0000150c: 00 00 00 90: 
             0x00001510: 00 00 00 34: 
             0x00001514: 09 01 00 53: 
             0x00001518: 77 61 6c 6c: 
             0x0000151c: 6f 77 2d 70: 
             0x00001520: 72 69 6d 2e: 
             0x00001524: 78 63 00 90: 
             0x00001528: 00 00 00 90: 
             0x0000152c: 00 00 00 34: 
             0x00001530: 09 01 00 53: 
             0x00001534: 77 61 6c 6c: 
             0x00001538: 6f 77 2d 70: 
             0x0000153c: 72 69 6d 2e: 
             0x00001540: 78 63 00 90: 
             0x00001544: 00 00 00 90: 
             0x00001548: 00 00 00 30: 
             0x0000154c: 09 01 00 53: 
             0x00001550: 77 61 6c 6c: 
             0x00001554: 6f 77 2d 70: 
             0x00001558: 72 69 6d 2e: 
             0x0000155c: 78 63 00 90: 
             0x00001560: 00 00 00 90: 
             0x00001564: 00 00 00 30: 
             0x00001568: 09 01 00 53: 
             0x0000156c: 77 61 6c 6c: 
             0x00001570: 6f 77 2d 70: 
             0x00001574: 72 69 6d 2e: 
             0x00001578: 78 63 00 91: 
             0x0000157c: 00 00 00 91: 
             0x00001580: 00 00 00 30: 
             0x00001584: 09 01 00 53: 
             0x00001588: 77 61 6c 6c: 
             0x0000158c: 6f 77 2d 70: 
             0x00001590: 72 69 6d 2e: 
             0x00001594: 78 63 00 91: 
             0x00001598: 00 00 00 91: 
             0x0000159c: 00 00 00 30: 
             0x000015a0: 09 01 00 53: 
             0x000015a4: 77 61 6c 6c: 
             0x000015a8: 6f 77 2d 70: 
             0x000015ac: 72 69 6d 2e: 
             0x000015b0: 78 63 00 91: 
             0x000015b4: 00 00 00 91: 
             0x000015b8: 00 00 00 34: 
             0x000015bc: 09 01 00 53: 
             0x000015c0: 77 61 6c 6c: 
             0x000015c4: 6f 77 2d 70: 
             0x000015c8: 72 69 6d 2e: 
             0x000015cc: 78 63 00 91: 
             0x000015d0: 00 00 00 91: 
             0x000015d4: 00 00 00 34: 
             0x000015d8: 09 01 00 53: 
             0x000015dc: 77 61 6c 6c: 
             0x000015e0: 6f 77 2d 70: 
             0x000015e4: 72 69 6d 2e: 
             0x000015e8: 78 63 00 92: 
             0x000015ec: 00 00 00 93: 
             0x000015f0: 00 00 00 30: 
             0x000015f4: 09 01 00 53: 
             0x000015f8: 77 61 6c 6c: 
             0x000015fc: 6f 77 2d 70: 
             0x00001600: 72 69 6d 2e: 
             0x00001604: 78 63 00 92: 
             0x00001608: 00 00 00 93: 
             0x0000160c: 00 00 00 30: 
             0x00001610: 09 01 00 53: 
             0x00001614: 77 61 6c 6c: 
             0x00001618: 6f 77 2d 70: 
             0x0000161c: 72 69 6d 2e: 
             0x00001620: 78 63 00 92: 
             0x00001624: 00 00 00 93: 
             0x00001628: 00 00 00 34: 
             0x0000162c: 09 01 00 53: 
             0x00001630: 77 61 6c 6c: 
             0x00001634: 6f 77 2d 70: 
             0x00001638: 72 69 6d 2e: 
             0x0000163c: 78 63 00 92: 
             0x00001640: 00 00 00 93: 
             0x00001644: 00 00 00 34: 
             0x00001648: 09 01 00 53: 
             0x0000164c: 77 61 6c 6c: 
             0x00001650: 6f 77 2d 70: 
             0x00001654: 72 69 6d 2e: 
             0x00001658: 78 63 00 95: 
             0x0000165c: 00 00 00 98: 
             0x00001660: 00 00 00 3a: 
             0x00001664: 09 01 00 53: 
             0x00001668: 77 61 6c 6c: 
             0x0000166c: 6f 77 2d 70: 
             0x00001670: 72 69 6d 2e: 
             0x00001674: 78 63 00 99: 
             0x00001678: 00 00 00 9c: 
             0x0000167c: 00 00 00 66: 
             0x00001680: 09 01 00 53: 
             0x00001684: 77 61 6c 6c: 
             0x00001688: 6f 77 2d 70: 
             0x0000168c: 72 69 6d 2e: 
             0x00001690: 78 63 00 9d: 
             0x00001694: 00 00 00 9e: 
             0x00001698: 00 00 00 56: 
             0x0000169c: 09 01 00 53: 
             0x000016a0: 77 61 6c 6c: 
             0x000016a4: 6f 77 2d 70: 
             0x000016a8: 72 69 6d 2e: 
             0x000016ac: 78 63 00 9d: 
             0x000016b0: 00 00 00 9e: 
             0x000016b4: 00 00 00 56: 
             0x000016b8: 09 01 00 53: 
             0x000016bc: 77 61 6c 6c: 
             0x000016c0: 6f 77 2d 70: 
             0x000016c4: 72 69 6d 2e: 
             0x000016c8: 78 63 00 9d: 
             0x000016cc: 00 00 00 9e: 
             0x000016d0: 00 00 00 60: 
             0x000016d4: 09 01 00 53: 
             0x000016d8: 77 61 6c 6c: 
             0x000016dc: 6f 77 2d 70: 
             0x000016e0: 72 69 6d 2e: 
             0x000016e4: 78 63 00 9d: 
             0x000016e8: 00 00 00 9e: 
             0x000016ec: 00 00 00 60: 
             0x000016f0: 09 01 00 53: 
             0x000016f4: 77 61 6c 6c: 
             0x000016f8: 6f 77 2d 70: 
             0x000016fc: 72 69 6d 2e: 
             0x00001700: 78 63 00 a9: 
             0x00001704: 00 00 00 a9: 
             0x00001708: 00 00 00 66: 
             0x0000170c: 09 01 00 53: 
             0x00001710: 77 61 6c 6c: 
             0x00001714: 6f 77 2d 70: 
             0x00001718: 72 69 6d 2e: 
             0x0000171c: 78 63 00 aa: 
             0x00001720: 00 00 00 ac: 
             0x00001724: 00 00 00 74: 
             0x00001728: 09 01 00 53: 
             0x0000172c: 77 61 6c 6c: 
             0x00001730: 6f 77 2d 70: 
             0x00001734: 72 69 6d 2e: 
             0x00001738: 78 63 00 af: 
             0x0000173c: 00 00 00 b3: 
             0x00001740: 00 00 00 84: 
             0x00001744: 09 01 00 53: 
             0x00001748: 77 61 6c 6c: 
             0x0000174c: 6f 77 2d 70: 
             0x00001750: 72 69 6d 2e: 
             0x00001754: 78 63 00 b4: 
             0x00001758: 00 00 00 bb: 
             0x0000175c: 00 00 00 8e: 
             0x00001760: 09 01 00 53: 
             0x00001764: 77 61 6c 6c: 
             0x00001768: 6f 77 2d 70: 
             0x0000176c: 72 69 6d 2e: 
             0x00001770: 78 63 00 c6: 
             0x00001774: 00 00 00 ca: 
             0x00001778: 00 00 00 8e: 
             0x0000177c: 09 01 00 53: 
             0x00001780: 77 61 6c 6c: 
             0x00001784: 6f 77 2d 70: 
             0x00001788: 72 69 6d 2e: 
             0x0000178c: 78 63 00 cb: 
             0x00001790: 00 00 00 cc: 
             0x00001794: 00 00 00 98: 
             0x00001798: 09 01 00 53: 
             0x0000179c: 77 61 6c 6c: 
             0x000017a0: 6f 77 2d 70: 
             0x000017a4: 72 69 6d 2e: 
             0x000017a8: 78 63 00 cd: 
             0x000017ac: 00 00 00 cd: 
             0x000017b0: 00 00 00 98: 
             0x000017b4: 09 01 00 53: 
             0x000017b8: 77 61 6c 6c: 
             0x000017bc: 6f 77 2d 70: 
             0x000017c0: 72 69 6d 2e: 
             0x000017c4: 78 63 00 ce: 
             0x000017c8: 00 00 00 cf: 
             0x000017cc: 00 00 00 a0: 
             0x000017d0: 09 01 00 53: 
             0x000017d4: 77 61 6c 6c: 
             0x000017d8: 6f 77 2d 70: 
             0x000017dc: 72 69 6d 2e: 
             0x000017e0: 78 63 00 d0: 
             0x000017e4: 00 00 00 d0: 
             0x000017e8: 00 00 00 a0: 
             0x000017ec: 09 01 00 53: 
             0x000017f0: 77 61 6c 6c: 
             0x000017f4: 6f 77 2d 70: 
             0x000017f8: 72 69 6d 2e: 
             0x000017fc: 78 63 00 d1: 
             0x00001800: 00 00 00 d1: 
             0x00001804: 00 00 00 a0: 
             0x00001808: 09 01 00 53: 
             0x0000180c: 77 61 6c 6c: 
             0x00001810: 6f 77 2d 70: 
             0x00001814: 72 69 6d 2e: 
             0x00001818: 78 63 00 d2: 
             0x0000181c: 00 00 00 d2: 
             0x00001820: 00 00 00 a0: 
             0x00001824: 09 01 00 53: 
             0x00001828: 77 61 6c 6c: 
             0x0000182c: 6f 77 2d 70: 
             0x00001830: 72 69 6d 2e: 
             0x00001834: 78 63 00 d3: 
             0x00001838: 00 00 00 d4: 
             0x0000183c: 00 00 00 a0: 
             0x00001840: 09 01 00 53: 
             0x00001844: 77 61 6c 6c: 
             0x00001848: 6f 77 2d 70: 
             0x0000184c: 72 69 6d 2e: 
             0x00001850: 78 63 00 d6: 
             0x00001854: 00 00 00 dc: 
             0x00001858: 00 00 00 a8: 
             0x0000185c: 09 01 00 53: 
             0x00001860: 77 61 6c 6c: 
             0x00001864: 6f 77 2d 70: 
             0x00001868: 72 69 6d 2e: 
             0x0000186c: 78 63 00 e5: 
             0x00001870: 00 00 00 e8: 
             0x00001874: 00 00 00 a8: 
             0x00001878: 09 01 00 53: 
             0x0000187c: 77 61 6c 6c: 
             0x00001880: 6f 77 2d 70: 
             0x00001884: 72 69 6d 2e: 
             0x00001888: 78 63 00 e9: 
             0x0000188c: 00 00 00 ea: 
             0x00001890: 00 00 00 b4: 
             0x00001894: 09 01 00 53: 
             0x00001898: 77 61 6c 6c: 
             0x0000189c: 6f 77 2d 70: 
             0x000018a0: 72 69 6d 2e: 
             0x000018a4: 78 63 00 eb: 
             0x000018a8: 00 00 00 eb: 
             0x000018ac: 00 00 00 b4: 
             0x000018b0: 09 01 00 53: 
             0x000018b4: 77 61 6c 6c: 
             0x000018b8: 6f 77 2d 70: 
             0x000018bc: 72 69 6d 2e: 
             0x000018c0: 78 63 00 ec: 
             0x000018c4: 00 00 00 ed: 
             0x000018c8: 00 00 00 bc: 
             0x000018cc: 09 01 00 53: 
             0x000018d0: 77 61 6c 6c: 
             0x000018d4: 6f 77 2d 70: 
             0x000018d8: 72 69 6d 2e: 
             0x000018dc: 78 63 00 ee: 
             0x000018e0: 00 00 00 ee: 
             0x000018e4: 00 00 00 bc: 
             0x000018e8: 09 01 00 53: 
             0x000018ec: 77 61 6c 6c: 
             0x000018f0: 6f 77 2d 70: 
             0x000018f4: 72 69 6d 2e: 
             0x000018f8: 78 63 00 ef: 
             0x000018fc: 00 00 00 ef: 
             0x00001900: 00 00 00 bc: 
             0x00001904: 09 01 00 53: 
             0x00001908: 77 61 6c 6c: 
             0x0000190c: 6f 77 2d 70: 
             0x00001910: 72 69 6d 2e: 
             0x00001914: 78 63 00 f0: 
             0x00001918: 00 00 00 f0: 
             0x0000191c: 00 00 00 bc: 
             0x00001920: 09 01 00 53: 
             0x00001924: 77 61 6c 6c: 
             0x00001928: 6f 77 2d 70: 
             0x0000192c: 72 69 6d 2e: 
             0x00001930: 78 63 00 f1: 
             0x00001934: 00 00 00 f2: 
             0x00001938: 00 00 00 bc: 
             0x0000193c: 09 01 00 53: 
             0x00001940: 77 61 6c 6c: 
             0x00001944: 6f 77 2d 70: 
             0x00001948: 72 69 6d 2e: 
             0x0000194c: 78 63 00 1d: 
             0x00001950: 01 00 00 23: 
             0x00001954: 01 00 00 ce: 
             0x00001958: 09 01 00 53: 
             0x0000195c: 77 61 6c 6c: 
             0x00001960: 6f 77 2d 70: 
             0x00001964: 72 69 6d 2e: 
             0x00001968: 78 63 00 24: 
             0x0000196c: 01 00 00 29: 
             0x00001970: 01 00 00 0e: 
             0x00001974: 0a 01 00 53: 
             0x00001978: 77 61 6c 6c: 
             0x0000197c: 6f 77 2d 70: 
             0x00001980: 72 69 6d 2e: 
             0x00001984: 78 63 00 2a: 
             0x00001988: 01 00 00 2a: 
             0x0000198c: 01 00 00 fe: 
             0x00001990: 09 01 00 53: 
             0x00001994: 77 61 6c 6c: 
             0x00001998: 6f 77 2d 70: 
             0x0000199c: 72 69 6d 2e: 
             0x000019a0: 78 63 00 2b: 
             0x000019a4: 01 00 00 2f: 
             0x000019a8: 01 00 00 20: 
             0x000019ac: 0a 01 00 53: 
             0x000019b0: 77 61 6c 6c: 
             0x000019b4: 6f 77 2d 70: 
             0x000019b8: 72 69 6d 2e: 
             0x000019bc: 78 63 00 32: 
             0x000019c0: 01 00 00 39: 
             0x000019c4: 01 00 00 4a: 
             0x000019c8: 0a 01 00 53: 
             0x000019cc: 77 61 6c 6c: 
             0x000019d0: 6f 77 2d 70: 
             0x000019d4: 72 69 6d 2e: 
             0x000019d8: 78 63 00 3a: 
             0x000019dc: 01 00 00 3a: 
             0x000019e0: 01 00 00 3a: 
             0x000019e4: 0a 01 00 53: 
             0x000019e8: 77 61 6c 6c: 
             0x000019ec: 6f 77 2d 70: 
             0x000019f0: 72 69 6d 2e: 
             0x000019f4: 78 63 00 3b: 
             0x000019f8: 01 00 00 40: 
             0x000019fc: 01 00 00 60: 
             0x00001a00: 0a 01 00 53: 
             0x00001a04: 77 61 6c 6c: 
             0x00001a08: 6f 77 2d 70: 
             0x00001a0c: 72 69 6d 2e: 
             0x00001a10: 78 63 00 43: 
             0x00001a14: 01 00 00 49: 
             0x00001a18: 01 00 00 8c: 
             0x00001a1c: 0a 01 00 53: 
             0x00001a20: 77 61 6c 6c: 
             0x00001a24: 6f 77 2d 70: 
             0x00001a28: 72 69 6d 2e: 
             0x00001a2c: 78 63 00 4a: 
             0x00001a30: 01 00 00 4a: 
             0x00001a34: 01 00 00 7e: 
             0x00001a38: 0a 01 00 53: 
             0x00001a3c: 77 61 6c 6c: 
             0x00001a40: 6f 77 2d 70: 
             0x00001a44: 72 69 6d 2e: 
             0x00001a48: 78 63 00 4b: 
             0x00001a4c: 01 00 00 4f: 
             0x00001a50: 01 00 00 a2: 
             0x00001a54: 0a 01 00 53: 
             0x00001a58: 77 61 6c 6c: 
             0x00001a5c: 6f 77 2d 70: 
             0x00001a60: 72 69 6d 2e: 
             0x00001a64: 78 63 00 52: 
             0x00001a68: 01 00 00 58: 
             0x00001a6c: 01 00 00 c6: 
             0x00001a70: 0a 01 00 53: 
             0x00001a74: 77 61 6c 6c: 
             0x00001a78: 6f 77 2d 70: 
             0x00001a7c: 72 69 6d 2e: 
             0x00001a80: 78 63 00 59: 
             0x00001a84: 01 00 00 59: 
             0x00001a88: 01 00 00 b8: 
             0x00001a8c: 0a 01 00 53: 
             0x00001a90: 77 61 6c 6c: 
             0x00001a94: 6f 77 2d 70: 
             0x00001a98: 72 69 6d 2e: 
             0x00001a9c: 78 63 00 5a: 
             0x00001aa0: 01 00 00 5f: 
             0x00001aa4: 01 00 00 dc: 
             0x00001aa8: 0a 01 00 72: 
             0x00001aac: 00 00 00 00: 
             0x00001ab0: 00 00 00 2f: 
             0x00001ab4: 62 75 69 6c: 
             0x00001ab8: 64 2f 73 77: 
             0x00001abc: 6e 62 2f 61: 
             0x00001ac0: 75 74 6f 62: 
             0x00001ac4: 75 69 6c 64: 
             0x00001ac8: 2f 73 77 72: 
             0x00001acc: 65 6c 65 61: 
             0x00001ad0: 73 65 5f 31: 
             0x00001ad4: 32 5f 30 2f: 
             0x00001ad8: 43 65 6e 74: 
             0x00001adc: 6f 73 36 34: 
             0x00001ae0: 2f 62 75 69: 
             0x00001ae4: 6c 64 2f 73: 
             0x00001ae8: 62 2f 74 6f: 
             0x00001aec: 6f 6c 73 5f: 
             0x00001af0: 78 74 72 61: 
             0x00001af4: 63 65 2f 78: 
             0x00001af8: 70 72 6f 62: 
             0x00001afc: 65 5f 61 70: 
             0x00001b00: 69 2f 64 65: 
             0x00001b04: 76 69 63 65: 
             0x00001b08: 00 74 69 6d: 
             0x00001b0c: 65 2e 78 63: 
             0x00001b10: 00 06 00 00: 
             0x00001b14: 00 09 00 00: 
             0x00001b18: 00 7c 0e 01: 
             0x00001b1c: 00:          

Disassembly of section .xtalooplabeltable (size: 414)

.label70     0x00000000: 27 00 00 00: 
             0x00000004: 00 00 00 00: 
             0x00000008: 2f 68 6f 6d: 
             0x0000000c: 65 2f 73 6c: 
             0x00000010: 64 2d 75 73: 
             0x00000014: 65 72 2f 77: 
             0x00000018: 6f 72 6b 73: 
             0x0000001c: 70 61 63 65: 
             0x00000020: 2f 70 72 69: 
             0x00000024: 6d 73 00 84: 
             0x00000028: 00 00 00 00: 
             0x0000002c: 00 00 00 2f: 
             0x00000030: 68 6f 6d 65: 
             0x00000034: 2f 73 6c 64: 
             0x00000038: 2d 75 73 65: 
             0x0000003c: 72 2f 77 6f: 
             0x00000040: 72 6b 73 70: 
             0x00000044: 61 63 65 2f: 
             0x00000048: 70 72 69 6d: 
             0x0000004c: 73 00 53 77: 
             0x00000050: 61 6c 6c 6f: 
             0x00000054: 77 2d 68 65: 
             0x00000058: 6c 70 65 72: 
             0x0000005c: 73 2e 78 63: 
             0x00000060: 00 a3 00 00: 
             0x00000064: 00 a4 00 00: 
             0x00000068: 00 98 02 01: 
             0x0000006c: 00 53 77 61: 
             0x00000070: 6c 6c 6f 77: 
             0x00000074: 2d 68 65 6c: 
             0x00000078: 70 65 72 73: 
             0x0000007c: 2e 78 63 00: 
             0x00000080: a6 00 00 00: 
             0x00000084: a9 00 00 00: 
             0x00000088: 98 02 01 00: 
             0x0000008c: 53 77 61 6c: 
             0x00000090: 6c 6f 77 2d: 
             0x00000094: 68 65 6c 70: 
             0x00000098: 65 72 73 2e: 
             0x0000009c: 78 63 00 b0: 
             0x000000a0: 00 00 00 b3: 
             0x000000a4: 00 00 00 ac: 
             0x000000a8: 02 01 00 78: 
             0x000000ac: 00 00 00 00: 
             0x000000b0: 00 00 00 2f: 
             0x000000b4: 68 6f 6d 65: 
             0x000000b8: 2f 73 6c 64: 
             0x000000bc: 2d 75 73 65: 
             0x000000c0: 72 2f 77 6f: 
             0x000000c4: 72 6b 73 70: 
             0x000000c8: 61 63 65 2f: 
             0x000000cc: 70 72 69 6d: 
             0x000000d0: 73 00 53 77: 
             0x000000d4: 61 6c 6c 6f: 
             0x000000d8: 77 2d 6e 4f: 
             0x000000dc: 53 2e 78 63: 
             0x000000e0: 00 cc 00 00: 
             0x000000e4: 00 ce 00 00: 
             0x000000e8: 00 3c 06 01: 
             0x000000ec: 00 53 77 61: 
             0x000000f0: 6c 6c 6f 77: 
             0x000000f4: 2d 6e 4f 53: 
             0x000000f8: 2e 78 63 00: 
             0x000000fc: cf 00 00 00: 
             0x00000100: cf 00 00 00: 
             0x00000104: 36 06 01 00: 
             0x00000108: 53 77 61 6c: 
             0x0000010c: 6c 6f 77 2d: 
             0x00000110: 6e 4f 53 2e: 
             0x00000114: 78 63 00 d0: 
             0x00000118: 00 00 00 d0: 
             0x0000011c: 00 00 00 3c: 
             0x00000120: 06 01 00 7b: 
             0x00000124: 00 00 00 00: 
             0x00000128: 00 00 00 2f: 
             0x0000012c: 68 6f 6d 65: 
             0x00000130: 2f 73 6c 64: 
             0x00000134: 2d 75 73 65: 
             0x00000138: 72 2f 77 6f: 
             0x0000013c: 72 6b 73 70: 
             0x00000140: 61 63 65 2f: 
             0x00000144: 70 72 69 6d: 
             0x00000148: 73 00 53 77: 
             0x0000014c: 61 6c 6c 6f: 
             0x00000150: 77 2d 70 72: 
             0x00000154: 69 6d 2e 78: 
             0x00000158: 63 00 87 00: 
             0x0000015c: 00 00 88 00: 
             0x00000160: 00 00 f8 08: 
             0x00000164: 01 00 53 77: 
             0x00000168: 61 6c 6c 6f: 
             0x0000016c: 77 2d 70 72: 
             0x00000170: 69 6d 2e 78: 
             0x00000174: 63 00 8b 00: 
             0x00000178: 00 00 8d 00: 
             0x0000017c: 00 00 72 09: 
             0x00000180: 01 00 53 77: 
             0x00000184: 61 6c 6c 6f: 
             0x00000188: 77 2d 70 72: 
             0x0000018c: 69 6d 2e 78: 
             0x00000190: 63 00 a9 00: 
             0x00000194: 00 00 a9 00: 
             0x00000198: 00 00 72 09: 
             0x0000019c: 01 00:       

Disassembly of section .xtasystem (size: 46)

.label70     0x00000000: 2e 00 00 00: 
             0x00000004: 00 00 00 00: 
             0x00000008: 64 69 72 00: 
             0x0000000c: 66 63 6c 6f: 
             0x00000010: 73 65 00 63: 
             0x00000014: 72 74 31 2e: 
             0x00000018: 73 00 00 00: 
             0x0000001c: 00 00 65 78: 
             0x00000020: 69 74 00 63: 
             0x00000024: 72 74 31 2e: 
             0x00000028: 73 00 00 00: 
             0x0000002c: 00 00:       

Disassembly of section .xtathreadstart (size: 12)

.label70     0x00000000: 00 00 01 00: 
             0x00000004: 84 00 01 00: 
             0x00000008: c4 09 01 00: 

Disassembly of section .xtathreadstop (size: 20)

.label70     0x00000000: 88 00 01 00: 
             0x00000004: 04 0b 01 00: 
             0x00000008: 0c 0b 01 00: 
             0x0000000c: 30 0b 01 00: 
             0x00000010: 68 0e 01 00: 

Disassembly of section .xmosnote (size: 20)

.label70     0x00000000: 04 00 00 00: 
             0x00000004: 03 00 00 00: 
             0x00000008: 02 00 00 00: 
             0x0000000c: 58 4d 4f 53: 
             0x00000010: 58 53 31 00: 

Disassembly of section .xmosnote (size: 20)

.label70     0x00000000: 04 00 00 00: 
             0x00000004: 04 00 00 00: 
             0x00000008: 03 00 00 00: 
             0x0000000c: 58 4d 4f 53: 
             0x00000010: 52 45 56 42: 

Disassembly of section .xmosnote (size: 36)

.label70     0x00000000: 04 00 00 00: 
             0x00000004: 14 00 00 00: 
             0x00000008: 01 00 00 00: 
             0x0000000c: 58 4d 4f 53: 
             0x00000010: 31 32 2e 32: 
             0x00000014: 2e 30 20 28: 
             0x00000018: 62 75 69 6c: 
             0x0000001c: 64 20 37 37: 
             0x00000020: 34 31 29 00: 

Disassembly of section .expr (size: 13040)

.label70     0x00000000: 41 00 00 00: 
             0x00000004: 0d 00 00 00: 
             0x00000008: 12 00 00 00: 
             0x0000000c: 00 00 00 00: 
             0x00000010: 00 00 00 00: 
             0x00000014: 01 07 00 00: 
             0x00000018: 0e 00 00 00: 
             0x0000001c: 0f 00 00 00: 
             0x00000020: 00 00 00 00: 
             0x00000024: 00 00 00 00: 
             0x00000028: 01 03 00 00: 
             0x0000002c: 10 00 00 00: 
             0x00000030: 13 00 00 00: 
             0x00000034: 00 00 00 00: 
             0x00000038: 00 00 00 00: 
             0x0000003c: 01 03 00 00: 
             0x00000040: 10 00 00 00: 
             0x00000044: 14 00 00 00: 
             0x00000048: 00 00 00 00: 
             0x0000004c: 00 00 00 00: 
             0x00000050: 01 03 00 00: 
             0x00000054: 10 00 00 00: 
             0x00000058: 15 00 00 00: 
             0x0000005c: 00 00 00 00: 
             0x00000060: 00 00 00 00: 
             0x00000064: 01 03 00 00: 
             0x00000068: 10 00 00 00: 
             0x0000006c: 16 00 00 00: 
             0x00000070: 00 00 00 00: 
             0x00000074: 00 00 00 00: 
             0x00000078: 01 03 00 00: 
             0x0000007c: 10 00 00 00: 
             0x00000080: 17 00 00 00: 
             0x00000084: 00 00 00 00: 
             0x00000088: 00 00 00 00: 
             0x0000008c: 01 03 00 00: 
             0x00000090: 10 00 00 00: 
             0x00000094: 18 00 00 00: 
             0x00000098: 00 00 00 00: 
             0x0000009c: 00 00 00 00: 
             0x000000a0: 01 03 00 00: 
             0x000000a4: 10 00 00 00: 
             0x000000a8: 19 00 00 00: 
             0x000000ac: 00 00 00 00: 
             0x000000b0: 00 00 00 00: 
             0x000000b4: 01 03 00 00: 
             0x000000b8: 10 00 00 00: 
             0x000000bc: 1a 00 00 00: 
             0x000000c0: 00 00 00 00: 
             0x000000c4: 00 00 00 00: 
             0x000000c8: 41 04 00 00: 
             0x000000cc: 10 00 00 00: 
             0x000000d0: 1b 00 00 00: 
             0x000000d4: 00 00 00 00: 
             0x000000d8: 00 00 00 00: 
             0x000000dc: c1 04 00 00: 
             0x000000e0: 10 00 00 00: 
             0x000000e4: 1c 00 00 00: 
             0x000000e8: 00 00 00 00: 
             0x000000ec: 00 00 00 00: 
             0x000000f0: 01 05 00 00: 
             0x000000f4: 10 00 00 00: 
             0x000000f8: 1d 00 00 00: 
             0x000000fc: 00 00 00 00: 
             0x00000100: 00 00 00 00: 
             0x00000104: 41 05 00 00: 
             0x00000108: 10 00 00 00: 
             0x0000010c: 1e 00 00 00: 
             0x00000110: 00 00 00 00: 
             0x00000114: 00 00 00 00: 
             0x00000118: 42 09 00 00: 
             0x0000011c: 10 00 00 00: 
             0x00000120: 80 86 00 00: 
             0x00000124: 00 00 00 00: 
             0x00000128: 00 00 00 00: 
             0x0000012c: 41 04 00 00: 
             0x00000130: 13 00 00 00: 
             0x00000134: 1f 00 00 00: 
             0x00000138: 00 00 00 00: 
             0x0000013c: 00 00 00 00: 
             0x00000140: c1 04 00 00: 
             0x00000144: 13 00 00 00: 
             0x00000148: 26 00 00 00: 
             0x0000014c: 00 00 00 00: 
             0x00000150: 00 00 00 00: 
             0x00000154: 01 05 00 00: 
             0x00000158: 13 00 00 00: 
             0x0000015c: 2e 00 00 00: 
             0x00000160: 00 00 00 00: 
             0x00000164: 00 00 00 00: 
             0x00000168: 41 05 00 00: 
             0x0000016c: 13 00 00 00: 
             0x00000170: 36 00 00 00: 
             0x00000174: 00 00 00 00: 
             0x00000178: 00 00 00 00: 
             0x0000017c: 41 04 00 00: 
             0x00000180: 14 00 00 00: 
             0x00000184: 20 00 00 00: 
             0x00000188: 00 00 00 00: 
             0x0000018c: 00 00 00 00: 
             0x00000190: c1 04 00 00: 
             0x00000194: 14 00 00 00: 
             0x00000198: 27 00 00 00: 
             0x0000019c: 00 00 00 00: 
             0x000001a0: 00 00 00 00: 
             0x000001a4: 01 05 00 00: 
             0x000001a8: 14 00 00 00: 
             0x000001ac: 2f 00 00 00: 
             0x000001b0: 00 00 00 00: 
             0x000001b4: 00 00 00 00: 
             0x000001b8: 41 05 00 00: 
             0x000001bc: 14 00 00 00: 
             0x000001c0: 37 00 00 00: 
             0x000001c4: 00 00 00 00: 
             0x000001c8: 00 00 00 00: 
             0x000001cc: 41 04 00 00: 
             0x000001d0: 15 00 00 00: 
             0x000001d4: 21 00 00 00: 
             0x000001d8: 00 00 00 00: 
             0x000001dc: 00 00 00 00: 
             0x000001e0: c1 04 00 00: 
             0x000001e4: 15 00 00 00: 
             0x000001e8: 28 00 00 00: 
             0x000001ec: 00 00 00 00: 
             0x000001f0: 00 00 00 00: 
             0x000001f4: 01 05 00 00: 
             0x000001f8: 15 00 00 00: 
             0x000001fc: 30 00 00 00: 
             0x00000200: 00 00 00 00: 
             0x00000204: 00 00 00 00: 
             0x00000208: 41 05 00 00: 
             0x0000020c: 15 00 00 00: 
             0x00000210: 38 00 00 00: 
             0x00000214: 00 00 00 00: 
             0x00000218: 00 00 00 00: 
             0x0000021c: 41 04 00 00: 
             0x00000220: 16 00 00 00: 
             0x00000224: 22 00 00 00: 
             0x00000228: 00 00 00 00: 
             0x0000022c: 00 00 00 00: 
             0x00000230: c1 04 00 00: 
             0x00000234: 16 00 00 00: 
             0x00000238: 29 00 00 00: 
             0x0000023c: 00 00 00 00: 
             0x00000240: 00 00 00 00: 
             0x00000244: 01 05 00 00: 
             0x00000248: 16 00 00 00: 
             0x0000024c: 31 00 00 00: 
             0x00000250: 00 00 00 00: 
             0x00000254: 00 00 00 00: 
             0x00000258: 41 05 00 00: 
             0x0000025c: 16 00 00 00: 
             0x00000260: 39 00 00 00: 
             0x00000264: 00 00 00 00: 
             0x00000268: 00 00 00 00: 
             0x0000026c: 41 04 00 00: 
             0x00000270: 17 00 00 00: 
             0x00000274: 23 00 00 00: 
             0x00000278: 00 00 00 00: 
             0x0000027c: 00 00 00 00: 
             0x00000280: c1 04 00 00: 
             0x00000284: 17 00 00 00: 
             0x00000288: 2a 00 00 00: 
             0x0000028c: 00 00 00 00: 
             0x00000290: 00 00 00 00: 
             0x00000294: 01 05 00 00: 
             0x00000298: 17 00 00 00: 
             0x0000029c: 32 00 00 00: 
             0x000002a0: 00 00 00 00: 
             0x000002a4: 00 00 00 00: 
             0x000002a8: 41 05 00 00: 
             0x000002ac: 17 00 00 00: 
             0x000002b0: 3a 00 00 00: 
             0x000002b4: 00 00 00 00: 
             0x000002b8: 00 00 00 00: 
             0x000002bc: c9 03 00 00: 
             0x000002c0: 18 00 00 00: 
             0x000002c4: 5b 00 00 00: 
             0x000002c8: 88 86 00 00: 
             0x000002cc: 00 00 00 00: 
             0x000002d0: 01 03 00 00: 
             0x000002d4: 18 00 00 00: 
             0x000002d8: 5e 00 00 00: 
             0x000002dc: 00 00 00 00: 
             0x000002e0: 00 00 00 00: 
             0x000002e4: 01 03 00 00: 
             0x000002e8: 18 00 00 00: 
             0x000002ec: 5c 00 00 00: 
             0x000002f0: 00 00 00 00: 
             0x000002f4: 00 00 00 00: 
             0x000002f8: 01 06 00 00: 
             0x000002fc: 18 00 00 00: 
             0x00000300: 61 00 00 00: 
             0x00000304: 00 00 00 00: 
             0x00000308: 00 00 00 00: 
             0x0000030c: c1 07 00 00: 
             0x00000310: 18 00 00 00: 
             0x00000314: 63 00 00 00: 
             0x00000318: 00 00 00 00: 
             0x0000031c: 00 00 00 00: 
             0x00000320: 41 04 00 00: 
             0x00000324: 18 00 00 00: 
             0x00000328: 0f 00 00 00: 
             0x0000032c: 00 00 00 00: 
             0x00000330: 00 00 00 00: 
             0x00000334: c1 04 00 00: 
             0x00000338: 18 00 00 00: 
             0x0000033c: 2b 00 00 00: 
             0x00000340: 00 00 00 00: 
             0x00000344: 00 00 00 00: 
             0x00000348: 01 05 00 00: 
             0x0000034c: 18 00 00 00: 
             0x00000350: 33 00 00 00: 
             0x00000354: 00 00 00 00: 
             0x00000358: 00 00 00 00: 
             0x0000035c: 41 05 00 00: 
             0x00000360: 18 00 00 00: 
             0x00000364: 3b 00 00 00: 
             0x00000368: 00 00 00 00: 
             0x0000036c: 00 00 00 00: 
             0x00000370: 42 09 00 00: 
             0x00000374: 18 00 00 00: 
             0x00000378: b4 86 00 00: 
             0x0000037c: 00 00 00 00: 
             0x00000380: 00 00 00 00: 
             0x00000384: 01 06 00 00: 
             0x00000388: 19 00 00 00: 
             0x0000038c: 1b 03 00 00: 
             0x00000390: 00 00 00 00: 
             0x00000394: 00 00 00 00: 
             0x00000398: c1 07 00 00: 
             0x0000039c: 19 00 00 00: 
             0x000003a0: 1c 03 00 00: 
             0x000003a4: 00 00 00 00: 
             0x000003a8: 00 00 00 00: 
             0x000003ac: 41 04 00 00: 
             0x000003b0: 19 00 00 00: 
             0x000003b4: 24 00 00 00: 
             0x000003b8: 00 00 00 00: 
             0x000003bc: 00 00 00 00: 
             0x000003c0: c1 04 00 00: 
             0x000003c4: 19 00 00 00: 
             0x000003c8: 2c 00 00 00: 
             0x000003cc: 00 00 00 00: 
             0x000003d0: 00 00 00 00: 
             0x000003d4: 01 05 00 00: 
             0x000003d8: 19 00 00 00: 
             0x000003dc: 34 00 00 00: 
             0x000003e0: 00 00 00 00: 
             0x000003e4: 00 00 00 00: 
             0x000003e8: 41 05 00 00: 
             0x000003ec: 19 00 00 00: 
             0x000003f0: 3c 00 00 00: 
             0x000003f4: 00 00 00 00: 
             0x000003f8: 00 00 00 00: 
             0x000003fc: 42 09 00 00: 
             0x00000400: 19 00 00 00: 
             0x00000404: 80 86 00 00: 
             0x00000408: 00 00 00 00: 
             0x0000040c: 00 00 00 00: 
             0x00000410: 01 06 00 00: 
             0x00000414: 1a 00 00 00: 
             0x00000418: 38 03 00 00: 
             0x0000041c: 00 00 00 00: 
             0x00000420: 00 00 00 00: 
             0x00000424: c1 07 00 00: 
             0x00000428: 1a 00 00 00: 
             0x0000042c: 39 03 00 00: 
             0x00000430: 00 00 00 00: 
             0x00000434: 00 00 00 00: 
             0x00000438: 41 04 00 00: 
             0x0000043c: 1a 00 00 00: 
             0x00000440: 25 00 00 00: 
             0x00000444: 00 00 00 00: 
             0x00000448: 00 00 00 00: 
             0x0000044c: c1 04 00 00: 
             0x00000450: 1a 00 00 00: 
             0x00000454: 2d 00 00 00: 
             0x00000458: 00 00 00 00: 
             0x0000045c: 00 00 00 00: 
             0x00000460: 01 05 00 00: 
             0x00000464: 1a 00 00 00: 
             0x00000468: 35 00 00 00: 
             0x0000046c: 00 00 00 00: 
             0x00000470: 00 00 00 00: 
             0x00000474: 41 05 00 00: 
             0x00000478: 1a 00 00 00: 
             0x0000047c: 3d 00 00 00: 
             0x00000480: 00 00 00 00: 
             0x00000484: 00 00 00 00: 
             0x00000488: 42 09 00 00: 
             0x0000048c: 1a 00 00 00: 
             0x00000490: bc 86 00 00: 
             0x00000494: 00 00 00 00: 
             0x00000498: 00 00 00 00: 
             0x0000049c: 01 06 00 00: 
             0x000004a0: 44 00 00 00: 
             0x000004a4: 4e 04 00 00: 
             0x000004a8: 00 00 00 00: 
             0x000004ac: 00 00 00 00: 
             0x000004b0: c1 07 00 00: 
             0x000004b4: 44 00 00 00: 
             0x000004b8: 4f 04 00 00: 
             0x000004bc: 00 00 00 00: 
             0x000004c0: 00 00 00 00: 
             0x000004c4: 41 04 00 00: 
             0x000004c8: 44 00 00 00: 
             0x000004cc: 66 04 00 00: 
             0x000004d0: 00 00 00 00: 
             0x000004d4: 00 00 00 00: 
             0x000004d8: c1 04 00 00: 
             0x000004dc: 44 00 00 00: 
             0x000004e0: 67 04 00 00: 
             0x000004e4: 00 00 00 00: 
             0x000004e8: 00 00 00 00: 
             0x000004ec: 01 05 00 00: 
             0x000004f0: 44 00 00 00: 
             0x000004f4: 68 04 00 00: 
             0x000004f8: 00 00 00 00: 
             0x000004fc: 00 00 00 00: 
             0x00000500: 41 05 00 00: 
             0x00000504: 44 00 00 00: 
             0x00000508: 69 04 00 00: 
             0x0000050c: 00 00 00 00: 
             0x00000510: 00 00 00 00: 
             0x00000514: 42 09 00 00: 
             0x00000518: 44 00 00 00: 
             0x0000051c: 80 86 00 00: 
             0x00000520: 00 00 00 00: 
             0x00000524: 00 00 00 00: 
             0x00000528: 41 04 00 00: 
             0x0000052c: 47 00 00 00: 
             0x00000530: 48 00 00 00: 
             0x00000534: 00 00 00 00: 
             0x00000538: 00 00 00 00: 
             0x0000053c: 41 05 00 00: 
             0x00000540: 47 00 00 00: 
             0x00000544: 49 00 00 00: 
             0x00000548: 00 00 00 00: 
             0x0000054c: 00 00 00 00: 
             0x00000550: 01 05 00 00: 
             0x00000554: 47 00 00 00: 
             0x00000558: 4a 00 00 00: 
             0x0000055c: 00 00 00 00: 
             0x00000560: 00 00 00 00: 
             0x00000564: c1 04 00 00: 
             0x00000568: 47 00 00 00: 
             0x0000056c: 4b 00 00 00: 
             0x00000570: 00 00 00 00: 
             0x00000574: 00 00 00 00: 
             0x00000578: 42 09 00 00: 
             0x0000057c: 47 00 00 00: 
             0x00000580: 80 86 00 00: 
             0x00000584: 00 00 00 00: 
             0x00000588: 00 00 00 00: 
             0x0000058c: 42 09 00 00: 
             0x00000590: 47 00 00 00: 
             0x00000594: 80 86 00 00: 
             0x00000598: 00 00 00 00: 
             0x0000059c: 00 00 00 00: 
             0x000005a0: c1 07 00 00: 
             0x000005a4: 4e 00 00 00: 
             0x000005a8: 2d 03 00 00: 
             0x000005ac: 00 00 00 00: 
             0x000005b0: 00 00 00 00: 
             0x000005b4: 41 04 00 00: 
             0x000005b8: 4e 00 00 00: 
             0x000005bc: 2e 03 00 00: 
             0x000005c0: 00 00 00 00: 
             0x000005c4: 00 00 00 00: 
             0x000005c8: 41 05 00 00: 
             0x000005cc: 4e 00 00 00: 
             0x000005d0: 2f 03 00 00: 
             0x000005d4: 00 00 00 00: 
             0x000005d8: 00 00 00 00: 
             0x000005dc: 01 05 00 00: 
             0x000005e0: 4e 00 00 00: 
             0x000005e4: 30 03 00 00: 
             0x000005e8: 00 00 00 00: 
             0x000005ec: 00 00 00 00: 
             0x000005f0: c1 04 00 00: 
             0x000005f4: 4e 00 00 00: 
             0x000005f8: 31 03 00 00: 
             0x000005fc: 00 00 00 00: 
             0x00000600: 00 00 00 00: 
             0x00000604: 42 09 00 00: 
             0x00000608: 4e 00 00 00: 
             0x0000060c: bc 86 00 00: 
             0x00000610: 00 00 00 00: 
             0x00000614: 00 00 00 00: 
             0x00000618: 42 09 00 00: 
             0x0000061c: 4e 00 00 00: 
             0x00000620: bc 86 00 00: 
             0x00000624: 00 00 00 00: 
             0x00000628: 00 00 00 00: 
             0x0000062c: c1 07 00 00: 
             0x00000630: 4f 00 00 00: 
             0x00000634: 0d 03 00 00: 
             0x00000638: 00 00 00 00: 
             0x0000063c: 00 00 00 00: 
             0x00000640: 41 04 00 00: 
             0x00000644: 4f 00 00 00: 
             0x00000648: 0e 03 00 00: 
             0x0000064c: 00 00 00 00: 
             0x00000650: 00 00 00 00: 
             0x00000654: 41 05 00 00: 
             0x00000658: 4f 00 00 00: 
             0x0000065c: 0f 03 00 00: 
             0x00000660: 00 00 00 00: 
             0x00000664: 00 00 00 00: 
             0x00000668: 01 05 00 00: 
             0x0000066c: 4f 00 00 00: 
             0x00000670: 10 03 00 00: 
             0x00000674: 00 00 00 00: 
             0x00000678: 00 00 00 00: 
             0x0000067c: c1 04 00 00: 
             0x00000680: 4f 00 00 00: 
             0x00000684: 11 03 00 00: 
             0x00000688: 00 00 00 00: 
             0x0000068c: 00 00 00 00: 
             0x00000690: 41 04 00 00: 
             0x00000694: 51 00 00 00: 
             0x00000698: 5b 02 00 00: 
             0x0000069c: 00 00 00 00: 
             0x000006a0: 00 00 00 00: 
             0x000006a4: 41 05 00 00: 
             0x000006a8: 51 00 00 00: 
             0x000006ac: ba 03 00 00: 
             0x000006b0: 00 00 00 00: 
             0x000006b4: 00 00 00 00: 
             0x000006b8: 01 05 00 00: 
             0x000006bc: 51 00 00 00: 
             0x000006c0: bb 03 00 00: 
             0x000006c4: 00 00 00 00: 
             0x000006c8: 00 00 00 00: 
             0x000006cc: c1 04 00 00: 
             0x000006d0: 51 00 00 00: 
             0x000006d4: bc 03 00 00: 
             0x000006d8: 00 00 00 00: 
             0x000006dc: 00 00 00 00: 
             0x000006e0: c1 07 00 00: 
             0x000006e4: 51 00 00 00: 
             0x000006e8: bd 03 00 00: 
             0x000006ec: 00 00 00 00: 
             0x000006f0: 00 00 00 00: 
             0x000006f4: 42 09 00 00: 
             0x000006f8: 5b 00 00 00: 
             0x000006fc: c5 86 00 00: 
             0x00000700: 00 00 00 00: 
             0x00000704: 00 00 00 00: 
             0x00000708: 42 09 00 00: 
             0x0000070c: 5b 00 00 00: 
             0x00000710: c5 86 00 00: 
             0x00000714: 00 00 00 00: 
             0x00000718: 00 00 00 00: 
             0x0000071c: 42 09 00 00: 
             0x00000720: 5b 00 00 00: 
             0x00000724: c5 86 00 00: 
             0x00000728: 00 00 00 00: 
             0x0000072c: 00 00 00 00: 
             0x00000730: 09 04 00 00: 
             0x00000734: 5c 00 00 00: 
             0x00000738: 5b 00 00 00: 
             0x0000073c: c8 86 00 00: 
             0x00000740: 00 00 00 00: 
             0x00000744: 09 04 00 00: 
             0x00000748: 5c 00 00 00: 
             0x0000074c: 5d 00 00 00: 
             0x00000750: f4 86 00 00: 
             0x00000754: 00 00 00 00: 
             0x00000758: 01 03 00 00: 
             0x0000075c: 5c 00 00 00: 
             0x00000760: 5f 00 00 00: 
             0x00000764: 00 00 00 00: 
             0x00000768: 00 00 00 00: 
             0x0000076c: 01 03 00 00: 
             0x00000770: 5c 00 00 00: 
             0x00000774: 60 00 00 00: 
             0x00000778: 00 00 00 00: 
             0x0000077c: 00 00 00 00: 
             0x00000780: c1 07 00 00: 
             0x00000784: 5c 00 00 00: 
             0x00000788: 62 00 00 00: 
             0x0000078c: 00 00 00 00: 
             0x00000790: 00 00 00 00: 
             0x00000794: 41 04 00 00: 
             0x00000798: 5c 00 00 00: 
             0x0000079c: 64 00 00 00: 
             0x000007a0: 00 00 00 00: 
             0x000007a4: 00 00 00 00: 
             0x000007a8: c1 04 00 00: 
             0x000007ac: 5c 00 00 00: 
             0x000007b0: 67 00 00 00: 
             0x000007b4: 00 00 00 00: 
             0x000007b8: 00 00 00 00: 
             0x000007bc: 01 05 00 00: 
             0x000007c0: 5c 00 00 00: 
             0x000007c4: 6a 00 00 00: 
             0x000007c8: 00 00 00 00: 
             0x000007cc: 00 00 00 00: 
             0x000007d0: 41 05 00 00: 
             0x000007d4: 5c 00 00 00: 
             0x000007d8: 6d 00 00 00: 
             0x000007dc: 00 00 00 00: 
             0x000007e0: 00 00 00 00: 
             0x000007e4: 42 09 00 00: 
             0x000007e8: 5c 00 00 00: 
             0x000007ec: 20 87 00 00: 
             0x000007f0: 00 00 00 00: 
             0x000007f4: 00 00 00 00: 
             0x000007f8: 42 09 00 00: 
             0x000007fc: 5d 00 00 00: 
             0x00000800: c5 86 00 00: 
             0x00000804: 00 00 00 00: 
             0x00000808: 00 00 00 00: 
             0x0000080c: 42 09 00 00: 
             0x00000810: 5d 00 00 00: 
             0x00000814: c5 86 00 00: 
             0x00000818: 00 00 00 00: 
             0x0000081c: 00 00 00 00: 
             0x00000820: 01 03 00 00: 
             0x00000824: 5e 00 00 00: 
             0x00000828: 76 02 00 00: 
             0x0000082c: 00 00 00 00: 
             0x00000830: 00 00 00 00: 
             0x00000834: 01 03 00 00: 
             0x00000838: 5e 00 00 00: 
             0x0000083c: 9c 01 00 00: 
             0x00000840: 00 00 00 00: 
             0x00000844: 00 00 00 00: 
             0x00000848: 01 03 00 00: 
             0x0000084c: 5e 00 00 00: 
             0x00000850: 77 00 00 00: 
             0x00000854: 00 00 00 00: 
             0x00000858: 00 00 00 00: 
             0x0000085c: 01 03 00 00: 
             0x00000860: 5e 00 00 00: 
             0x00000864: 19 01 00 00: 
             0x00000868: 00 00 00 00: 
             0x0000086c: 00 00 00 00: 
             0x00000870: 01 03 00 00: 
             0x00000874: 5e 00 00 00: 
             0x00000878: 77 02 00 00: 
             0x0000087c: 00 00 00 00: 
             0x00000880: 00 00 00 00: 
             0x00000884: 01 03 00 00: 
             0x00000888: 5e 00 00 00: 
             0x0000088c: cc 01 00 00: 
             0x00000890: 00 00 00 00: 
             0x00000894: 00 00 00 00: 
             0x00000898: 41 04 00 00: 
             0x0000089c: 5e 00 00 00: 
             0x000008a0: 70 00 00 00: 
             0x000008a4: 00 00 00 00: 
             0x000008a8: 00 00 00 00: 
             0x000008ac: c1 04 00 00: 
             0x000008b0: 5e 00 00 00: 
             0x000008b4: 71 00 00 00: 
             0x000008b8: 00 00 00 00: 
             0x000008bc: 00 00 00 00: 
             0x000008c0: 01 05 00 00: 
             0x000008c4: 5e 00 00 00: 
             0x000008c8: 72 00 00 00: 
             0x000008cc: 00 00 00 00: 
             0x000008d0: 00 00 00 00: 
             0x000008d4: 41 05 00 00: 
             0x000008d8: 5e 00 00 00: 
             0x000008dc: 73 00 00 00: 
             0x000008e0: 00 00 00 00: 
             0x000008e4: 00 00 00 00: 
             0x000008e8: 42 09 00 00: 
             0x000008ec: 5e 00 00 00: 
             0x000008f0: 27 87 00 00: 
             0x000008f4: 00 00 00 00: 
             0x000008f8: 00 00 00 00: 
             0x000008fc: 42 09 00 00: 
             0x00000900: 5e 00 00 00: 
             0x00000904: 35 87 00 00: 
             0x00000908: 00 00 00 00: 
             0x0000090c: 00 00 00 00: 
             0x00000910: 42 09 00 00: 
             0x00000914: 5e 00 00 00: 
             0x00000918: 27 87 00 00: 
             0x0000091c: 00 00 00 00: 
             0x00000920: 00 00 00 00: 
             0x00000924: 01 06 00 00: 
             0x00000928: 5f 00 00 00: 
             0x0000092c: 78 00 00 00: 
             0x00000930: 00 00 00 00: 
             0x00000934: 00 00 00 00: 
             0x00000938: c1 07 00 00: 
             0x0000093c: 5f 00 00 00: 
             0x00000940: 7a 00 00 00: 
             0x00000944: 00 00 00 00: 
             0x00000948: 00 00 00 00: 
             0x0000094c: 41 04 00 00: 
             0x00000950: 5f 00 00 00: 
             0x00000954: 65 00 00 00: 
             0x00000958: 00 00 00 00: 
             0x0000095c: 00 00 00 00: 
             0x00000960: c1 04 00 00: 
             0x00000964: 5f 00 00 00: 
             0x00000968: 69 00 00 00: 
             0x0000096c: 00 00 00 00: 
             0x00000970: 00 00 00 00: 
             0x00000974: 01 05 00 00: 
             0x00000978: 5f 00 00 00: 
             0x0000097c: 6c 00 00 00: 
             0x00000980: 00 00 00 00: 
             0x00000984: 00 00 00 00: 
             0x00000988: 41 05 00 00: 
             0x0000098c: 5f 00 00 00: 
             0x00000990: 6f 00 00 00: 
             0x00000994: 00 00 00 00: 
             0x00000998: 00 00 00 00: 
             0x0000099c: 42 09 00 00: 
             0x000009a0: 5f 00 00 00: 
             0x000009a4: 20 87 00 00: 
             0x000009a8: 00 00 00 00: 
             0x000009ac: 00 00 00 00: 
             0x000009b0: 42 09 00 00: 
             0x000009b4: 5f 00 00 00: 
             0x000009b8: 20 87 00 00: 
             0x000009bc: 00 00 00 00: 
             0x000009c0: 00 00 00 00: 
             0x000009c4: 41 04 00 00: 
             0x000009c8: 60 00 00 00: 
             0x000009cc: 66 00 00 00: 
             0x000009d0: 00 00 00 00: 
             0x000009d4: 00 00 00 00: 
             0x000009d8: 01 05 00 00: 
             0x000009dc: 60 00 00 00: 
             0x000009e0: 6b 00 00 00: 
             0x000009e4: 00 00 00 00: 
             0x000009e8: 00 00 00 00: 
             0x000009ec: 41 05 00 00: 
             0x000009f0: 60 00 00 00: 
             0x000009f4: 6e 00 00 00: 
             0x000009f8: 00 00 00 00: 
             0x000009fc: 00 00 00 00: 
             0x00000a00: c1 04 00 00: 
             0x00000a04: 60 00 00 00: 
             0x00000a08: 68 00 00 00: 
             0x00000a0c: 00 00 00 00: 
             0x00000a10: 00 00 00 00: 
             0x00000a14: 42 09 00 00: 
             0x00000a18: 60 00 00 00: 
             0x00000a1c: 41 87 00 00: 
             0x00000a20: 00 00 00 00: 
             0x00000a24: 00 00 00 00: 
             0x00000a28: 41 04 00 00: 
             0x00000a2c: 74 00 00 00: 
             0x00000a30: 75 00 00 00: 
             0x00000a34: 00 00 00 00: 
             0x00000a38: 00 00 00 00: 
             0x00000a3c: 41 00 00 00: 
             0x00000a40: 74 00 00 00: 
             0x00000a44: 5e 00 00 00: 
             0x00000a48: 00 00 00 00: 
             0x00000a4c: 00 00 00 00: 
             0x00000a50: 42 09 00 00: 
             0x00000a54: 74 00 00 00: 
             0x00000a58: 35 87 00 00: 
             0x00000a5c: 00 00 00 00: 
             0x00000a60: 00 00 00 00: 
             0x00000a64: 41 00 00 00: 
             0x00000a68: 75 00 00 00: 
             0x00000a6c: 70 00 00 00: 
             0x00000a70: 00 00 00 00: 
             0x00000a74: 00 00 00 00: 
             0x00000a78: 41 04 00 00: 
             0x00000a7c: 77 00 00 00: 
             0x00000a80: 7f 00 00 00: 
             0x00000a84: 00 00 00 00: 
             0x00000a88: 00 00 00 00: 
             0x00000a8c: c1 04 00 00: 
             0x00000a90: 77 00 00 00: 
             0x00000a94: 82 00 00 00: 
             0x00000a98: 00 00 00 00: 
             0x00000a9c: 00 00 00 00: 
             0x00000aa0: 01 05 00 00: 
             0x00000aa4: 77 00 00 00: 
             0x00000aa8: 85 00 00 00: 
             0x00000aac: 00 00 00 00: 
             0x00000ab0: 00 00 00 00: 
             0x00000ab4: 41 05 00 00: 
             0x00000ab8: 77 00 00 00: 
             0x00000abc: 88 00 00 00: 
             0x00000ac0: 00 00 00 00: 
             0x00000ac4: 00 00 00 00: 
             0x00000ac8: 42 09 00 00: 
             0x00000acc: 77 00 00 00: 
             0x00000ad0: 4b 87 00 00: 
             0x00000ad4: 00 00 00 00: 
             0x00000ad8: 00 00 00 00: 
             0x00000adc: 42 09 00 00: 
             0x00000ae0: 77 00 00 00: 
             0x00000ae4: 54 87 00 00: 
             0x00000ae8: 00 00 00 00: 
             0x00000aec: 00 00 00 00: 
             0x00000af0: 42 09 00 00: 
             0x00000af4: 77 00 00 00: 
             0x00000af8: 54 87 00 00: 
             0x00000afc: 00 00 00 00: 
             0x00000b00: 00 00 00 00: 
             0x00000b04: 42 09 00 00: 
             0x00000b08: 77 00 00 00: 
             0x00000b0c: 54 87 00 00: 
             0x00000b10: 00 00 00 00: 
             0x00000b14: 00 00 00 00: 
             0x00000b18: 42 09 00 00: 
             0x00000b1c: 77 00 00 00: 
             0x00000b20: 4b 87 00 00: 
             0x00000b24: 00 00 00 00: 
             0x00000b28: 00 00 00 00: 
             0x00000b2c: 42 09 00 00: 
             0x00000b30: 77 00 00 00: 
             0x00000b34: 54 87 00 00: 
             0x00000b38: 00 00 00 00: 
             0x00000b3c: 00 00 00 00: 
             0x00000b40: 42 09 00 00: 
             0x00000b44: 77 00 00 00: 
             0x00000b48: 54 87 00 00: 
             0x00000b4c: 00 00 00 00: 
             0x00000b50: 00 00 00 00: 
             0x00000b54: 42 09 00 00: 
             0x00000b58: 77 00 00 00: 
             0x00000b5c: 4b 87 00 00: 
             0x00000b60: 00 00 00 00: 
             0x00000b64: 00 00 00 00: 
             0x00000b68: 85 00 00 00: 
             0x00000b6c: 01 01 00 00: 
             0x00000b70: af 03 00 00: 
             0x00000b74: a7 03 00 00: 
             0x00000b78: 00 00 00 00: 
             0x00000b7c: 01 06 00 00: 
             0x00000b80: 9d 00 00 00: 
             0x00000b84: 4a 03 00 00: 
             0x00000b88: 00 00 00 00: 
             0x00000b8c: 00 00 00 00: 
             0x00000b90: c1 07 00 00: 
             0x00000b94: 9d 00 00 00: 
             0x00000b98: 4b 03 00 00: 
             0x00000b9c: 00 00 00 00: 
             0x00000ba0: 00 00 00 00: 
             0x00000ba4: 41 04 00 00: 
             0x00000ba8: 9d 00 00 00: 
             0x00000bac: 66 03 00 00: 
             0x00000bb0: 00 00 00 00: 
             0x00000bb4: 00 00 00 00: 
             0x00000bb8: c1 04 00 00: 
             0x00000bbc: 9d 00 00 00: 
             0x00000bc0: 68 03 00 00: 
             0x00000bc4: 00 00 00 00: 
             0x00000bc8: 00 00 00 00: 
             0x00000bcc: 01 05 00 00: 
             0x00000bd0: 9d 00 00 00: 
             0x00000bd4: 6a 03 00 00: 
             0x00000bd8: 00 00 00 00: 
             0x00000bdc: 00 00 00 00: 
             0x00000be0: 41 05 00 00: 
             0x00000be4: 9d 00 00 00: 
             0x00000be8: 6c 03 00 00: 
             0x00000bec: 00 00 00 00: 
             0x00000bf0: 00 00 00 00: 
             0x00000bf4: 42 09 00 00: 
             0x00000bf8: 9d 00 00 00: 
             0x00000bfc: 5c 87 00 00: 
             0x00000c00: 00 00 00 00: 
             0x00000c04: 00 00 00 00: 
             0x00000c08: 49 03 00 00: 
             0x00000c0c: 9d 00 00 00: 
             0x00000c10: c3 03 00 00: 
             0x00000c14: 71 87 00 00: 
             0x00000c18: 00 00 00 00: 
             0x00000c1c: 49 03 00 00: 
             0x00000c20: 9d 00 00 00: 
             0x00000c24: c3 03 00 00: 
             0x00000c28: c7 87 00 00: 
             0x00000c2c: 00 00 00 00: 
             0x00000c30: 49 03 00 00: 
             0x00000c34: 9d 00 00 00: 
             0x00000c38: c3 03 00 00: 
             0x00000c3c: 22 88 00 00: 
             0x00000c40: 00 00 00 00: 
             0x00000c44: 49 03 00 00: 
             0x00000c48: 9d 00 00 00: 
             0x00000c4c: c3 03 00 00: 
             0x00000c50: 78 88 00 00: 
             0x00000c54: 00 00 00 00: 
             0x00000c58: 49 03 00 00: 
             0x00000c5c: 9d 00 00 00: 
             0x00000c60: c3 03 00 00: 
             0x00000c64: d0 88 00 00: 
             0x00000c68: 00 00 00 00: 
             0x00000c6c: 49 03 00 00: 
             0x00000c70: 9d 00 00 00: 
             0x00000c74: c3 03 00 00: 
             0x00000c78: 29 89 00 00: 
             0x00000c7c: 00 00 00 00: 
             0x00000c80: 49 03 00 00: 
             0x00000c84: 9d 00 00 00: 
             0x00000c88: c3 03 00 00: 
             0x00000c8c: 7f 89 00 00: 
             0x00000c90: 00 00 00 00: 
             0x00000c94: 42 09 00 00: 
             0x00000c98: 9d 00 00 00: 
             0x00000c9c: d6 89 00 00: 
             0x00000ca0: 00 00 00 00: 
             0x00000ca4: 00 00 00 00: 
             0x00000ca8: 42 09 00 00: 
             0x00000cac: 9d 00 00 00: 
             0x00000cb0: 5c 87 00 00: 
             0x00000cb4: 00 00 00 00: 
             0x00000cb8: 00 00 00 00: 
             0x00000cbc: 41 04 00 00: 
             0x00000cc0: 9e 00 00 00: 
             0x00000cc4: d9 00 00 00: 
             0x00000cc8: 00 00 00 00: 
             0x00000ccc: 00 00 00 00: 
             0x00000cd0: 01 05 00 00: 
             0x00000cd4: 9e 00 00 00: 
             0x00000cd8: da 00 00 00: 
             0x00000cdc: 00 00 00 00: 
             0x00000ce0: 00 00 00 00: 
             0x00000ce4: 41 05 00 00: 
             0x00000ce8: 9e 00 00 00: 
             0x00000cec: db 00 00 00: 
             0x00000cf0: 00 00 00 00: 
             0x00000cf4: 00 00 00 00: 
             0x00000cf8: c1 04 00 00: 
             0x00000cfc: 9e 00 00 00: 
             0x00000d00: dc 00 00 00: 
             0x00000d04: 00 00 00 00: 
             0x00000d08: 00 00 00 00: 
             0x00000d0c: 41 04 00 00: 
             0x00000d10: e4 00 00 00: 
             0x00000d14: e5 00 00 00: 
             0x00000d18: 00 00 00 00: 
             0x00000d1c: 00 00 00 00: 
             0x00000d20: 01 05 00 00: 
             0x00000d24: e4 00 00 00: 
             0x00000d28: e6 00 00 00: 
             0x00000d2c: 00 00 00 00: 
             0x00000d30: 00 00 00 00: 
             0x00000d34: 41 05 00 00: 
             0x00000d38: e4 00 00 00: 
             0x00000d3c: e7 00 00 00: 
             0x00000d40: 00 00 00 00: 
             0x00000d44: 00 00 00 00: 
             0x00000d48: c1 04 00 00: 
             0x00000d4c: e4 00 00 00: 
             0x00000d50: e8 00 00 00: 
             0x00000d54: 00 00 00 00: 
             0x00000d58: 00 00 00 00: 
             0x00000d5c: 42 09 00 00: 
             0x00000d60: e4 00 00 00: 
             0x00000d64: ef 89 00 00: 
             0x00000d68: 00 00 00 00: 
             0x00000d6c: 00 00 00 00: 
             0x00000d70: 42 09 00 00: 
             0x00000d74: e4 00 00 00: 
             0x00000d78: 02 8a 00 00: 
             0x00000d7c: 00 00 00 00: 
             0x00000d80: 00 00 00 00: 
             0x00000d84: 42 09 00 00: 
             0x00000d88: e4 00 00 00: 
             0x00000d8c: ef 89 00 00: 
             0x00000d90: 00 00 00 00: 
             0x00000d94: 00 00 00 00: 
             0x00000d98: 42 09 00 00: 
             0x00000d9c: e4 00 00 00: 
             0x00000da0: ef 89 00 00: 
             0x00000da4: 00 00 00 00: 
             0x00000da8: 00 00 00 00: 
             0x00000dac: 85 00 00 00: 
             0x00000db0: fb 00 00 00: 
             0x00000db4: ac 03 00 00: 
             0x00000db8: 9e 03 00 00: 
             0x00000dbc: 00 00 00 00: 
             0x00000dc0: 85 00 00 00: 
             0x00000dc4: fd 00 00 00: 
             0x00000dc8: ad 03 00 00: 
             0x00000dcc: a1 03 00 00: 
             0x00000dd0: 00 00 00 00: 
             0x00000dd4: 85 00 00 00: 
             0x00000dd8: ff 00 00 00: 
             0x00000ddc: ae 03 00 00: 
             0x00000de0: a4 03 00 00: 
             0x00000de4: 00 00 00 00: 
             0x00000de8: 85 00 00 00: 
             0x00000dec: 07 01 00 00: 
             0x00000df0: ac 03 00 00: 
             0x00000df4: 9e 03 00 00: 
             0x00000df8: 00 00 00 00: 
             0x00000dfc: 85 00 00 00: 
             0x00000e00: 09 01 00 00: 
             0x00000e04: ad 03 00 00: 
             0x00000e08: a1 03 00 00: 
             0x00000e0c: 00 00 00 00: 
             0x00000e10: 85 00 00 00: 
             0x00000e14: 0b 01 00 00: 
             0x00000e18: ae 03 00 00: 
             0x00000e1c: a4 03 00 00: 
             0x00000e20: 00 00 00 00: 
             0x00000e24: 85 00 00 00: 
             0x00000e28: 0d 01 00 00: 
             0x00000e2c: af 03 00 00: 
             0x00000e30: a7 03 00 00: 
             0x00000e34: 00 00 00 00: 
             0x00000e38: c1 07 00 00: 
             0x00000e3c: 11 01 00 00: 
             0x00000e40: 10 01 00 00: 
             0x00000e44: 00 00 00 00: 
             0x00000e48: 00 00 00 00: 
             0x00000e4c: 41 04 00 00: 
             0x00000e50: 11 01 00 00: 
             0x00000e54: 12 01 00 00: 
             0x00000e58: 00 00 00 00: 
             0x00000e5c: 00 00 00 00: 
             0x00000e60: c1 04 00 00: 
             0x00000e64: 11 01 00 00: 
             0x00000e68: 13 01 00 00: 
             0x00000e6c: 00 00 00 00: 
             0x00000e70: 00 00 00 00: 
             0x00000e74: 01 05 00 00: 
             0x00000e78: 11 01 00 00: 
             0x00000e7c: 14 01 00 00: 
             0x00000e80: 00 00 00 00: 
             0x00000e84: 00 00 00 00: 
             0x00000e88: 41 05 00 00: 
             0x00000e8c: 11 01 00 00: 
             0x00000e90: 15 01 00 00: 
             0x00000e94: 00 00 00 00: 
             0x00000e98: 00 00 00 00: 
             0x00000e9c: 42 09 00 00: 
             0x00000ea0: 11 01 00 00: 
             0x00000ea4: 11 8a 00 00: 
             0x00000ea8: 00 00 00 00: 
             0x00000eac: 00 00 00 00: 
             0x00000eb0: 42 09 00 00: 
             0x00000eb4: 11 01 00 00: 
             0x00000eb8: 11 8a 00 00: 
             0x00000ebc: 00 00 00 00: 
             0x00000ec0: 00 00 00 00: 
             0x00000ec4: c9 03 00 00: 
             0x00000ec8: 18 01 00 00: 
             0x00000ecc: 5b 00 00 00: 
             0x00000ed0: 1a 8a 00 00: 
             0x00000ed4: 00 00 00 00: 
             0x00000ed8: 01 06 00 00: 
             0x00000edc: 18 01 00 00: 
             0x00000ee0: 1b 01 00 00: 
             0x00000ee4: 00 00 00 00: 
             0x00000ee8: 00 00 00 00: 
             0x00000eec: c1 07 00 00: 
             0x00000ef0: 18 01 00 00: 
             0x00000ef4: 27 01 00 00: 
             0x00000ef8: 00 00 00 00: 
             0x00000efc: 00 00 00 00: 
             0x00000f00: 41 04 00 00: 
             0x00000f04: 18 01 00 00: 
             0x00000f08: 38 01 00 00: 
             0x00000f0c: 00 00 00 00: 
             0x00000f10: 00 00 00 00: 
             0x00000f14: c1 04 00 00: 
             0x00000f18: 18 01 00 00: 
             0x00000f1c: 39 01 00 00: 
             0x00000f20: 00 00 00 00: 
             0x00000f24: 00 00 00 00: 
             0x00000f28: 01 05 00 00: 
             0x00000f2c: 18 01 00 00: 
             0x00000f30: 3a 01 00 00: 
             0x00000f34: 00 00 00 00: 
             0x00000f38: 00 00 00 00: 
             0x00000f3c: 41 05 00 00: 
             0x00000f40: 18 01 00 00: 
             0x00000f44: 3b 01 00 00: 
             0x00000f48: 00 00 00 00: 
             0x00000f4c: 00 00 00 00: 
             0x00000f50: 42 09 00 00: 
             0x00000f54: 18 01 00 00: 
             0x00000f58: 41 87 00 00: 
             0x00000f5c: 00 00 00 00: 
             0x00000f60: 00 00 00 00: 
             0x00000f64: 42 09 00 00: 
             0x00000f68: 18 01 00 00: 
             0x00000f6c: 41 87 00 00: 
             0x00000f70: 00 00 00 00: 
             0x00000f74: 00 00 00 00: 
             0x00000f78: 01 03 00 00: 
             0x00000f7c: 19 01 00 00: 
             0x00000f80: 77 00 00 00: 
             0x00000f84: 00 00 00 00: 
             0x00000f88: 00 00 00 00: 
             0x00000f8c: 01 06 00 00: 
             0x00000f90: 19 01 00 00: 
             0x00000f94: 25 01 00 00: 
             0x00000f98: 00 00 00 00: 
             0x00000f9c: 00 00 00 00: 
             0x00000fa0: c1 07 00 00: 
             0x00000fa4: 19 01 00 00: 
             0x00000fa8: 31 01 00 00: 
             0x00000fac: 00 00 00 00: 
             0x00000fb0: 00 00 00 00: 
             0x00000fb4: 41 04 00 00: 
             0x00000fb8: 19 01 00 00: 
             0x00000fbc: 48 01 00 00: 
             0x00000fc0: 00 00 00 00: 
             0x00000fc4: 00 00 00 00: 
             0x00000fc8: c1 04 00 00: 
             0x00000fcc: 19 01 00 00: 
             0x00000fd0: 49 01 00 00: 
             0x00000fd4: 00 00 00 00: 
             0x00000fd8: 00 00 00 00: 
             0x00000fdc: 01 05 00 00: 
             0x00000fe0: 19 01 00 00: 
             0x00000fe4: 4a 01 00 00: 
             0x00000fe8: 00 00 00 00: 
             0x00000fec: 00 00 00 00: 
             0x00000ff0: 41 05 00 00: 
             0x00000ff4: 19 01 00 00: 
             0x00000ff8: 4b 01 00 00: 
             0x00000ffc: 00 00 00 00: 
             0x00001000: 00 00 00 00: 
             0x00001004: 42 09 00 00: 
             0x00001008: 19 01 00 00: 
             0x0000100c: 41 87 00 00: 
             0x00001010: 00 00 00 00: 
             0x00001014: 00 00 00 00: 
             0x00001018: 42 09 00 00: 
             0x0000101c: 19 01 00 00: 
             0x00001020: 41 87 00 00: 
             0x00001024: 00 00 00 00: 
             0x00001028: 00 00 00 00: 
             0x0000102c: 01 06 00 00: 
             0x00001030: 1e 01 00 00: 
             0x00001034: 1d 01 00 00: 
             0x00001038: 00 00 00 00: 
             0x0000103c: 00 00 00 00: 
             0x00001040: c1 07 00 00: 
             0x00001044: 1e 01 00 00: 
             0x00001048: 29 01 00 00: 
             0x0000104c: 00 00 00 00: 
             0x00001050: 00 00 00 00: 
             0x00001054: 41 04 00 00: 
             0x00001058: 1e 01 00 00: 
             0x0000105c: 40 01 00 00: 
             0x00001060: 00 00 00 00: 
             0x00001064: 00 00 00 00: 
             0x00001068: c1 04 00 00: 
             0x0000106c: 1e 01 00 00: 
             0x00001070: 41 01 00 00: 
             0x00001074: 00 00 00 00: 
             0x00001078: 00 00 00 00: 
             0x0000107c: 01 05 00 00: 
             0x00001080: 1e 01 00 00: 
             0x00001084: 42 01 00 00: 
             0x00001088: 00 00 00 00: 
             0x0000108c: 00 00 00 00: 
             0x00001090: 41 05 00 00: 
             0x00001094: 1e 01 00 00: 
             0x00001098: 43 01 00 00: 
             0x0000109c: 00 00 00 00: 
             0x000010a0: 00 00 00 00: 
             0x000010a4: 42 09 00 00: 
             0x000010a8: 1e 01 00 00: 
             0x000010ac: 54 87 00 00: 
             0x000010b0: 00 00 00 00: 
             0x000010b4: 00 00 00 00: 
             0x000010b8: 42 09 00 00: 
             0x000010bc: 1e 01 00 00: 
             0x000010c0: 54 87 00 00: 
             0x000010c4: 00 00 00 00: 
             0x000010c8: 00 00 00 00: 
             0x000010cc: 01 06 00 00: 
             0x000010d0: 20 01 00 00: 
             0x000010d4: 1f 01 00 00: 
             0x000010d8: 00 00 00 00: 
             0x000010dc: 00 00 00 00: 
             0x000010e0: c1 07 00 00: 
             0x000010e4: 20 01 00 00: 
             0x000010e8: 2b 01 00 00: 
             0x000010ec: 00 00 00 00: 
             0x000010f0: 00 00 00 00: 
             0x000010f4: 41 04 00 00: 
             0x000010f8: 20 01 00 00: 
             0x000010fc: 44 01 00 00: 
             0x00001100: 00 00 00 00: 
             0x00001104: 00 00 00 00: 
             0x00001108: c1 04 00 00: 
             0x0000110c: 20 01 00 00: 
             0x00001110: 45 01 00 00: 
             0x00001114: 00 00 00 00: 
             0x00001118: 00 00 00 00: 
             0x0000111c: 01 05 00 00: 
             0x00001120: 20 01 00 00: 
             0x00001124: 46 01 00 00: 
             0x00001128: 00 00 00 00: 
             0x0000112c: 00 00 00 00: 
             0x00001130: 41 05 00 00: 
             0x00001134: 20 01 00 00: 
             0x00001138: 47 01 00 00: 
             0x0000113c: 00 00 00 00: 
             0x00001140: 00 00 00 00: 
             0x00001144: 42 09 00 00: 
             0x00001148: 20 01 00 00: 
             0x0000114c: 35 87 00 00: 
             0x00001150: 00 00 00 00: 
             0x00001154: 00 00 00 00: 
             0x00001158: 42 09 00 00: 
             0x0000115c: 20 01 00 00: 
             0x00001160: 35 87 00 00: 
             0x00001164: 00 00 00 00: 
             0x00001168: 00 00 00 00: 
             0x0000116c: 01 06 00 00: 
             0x00001170: 22 01 00 00: 
             0x00001174: 21 01 00 00: 
             0x00001178: 00 00 00 00: 
             0x0000117c: 00 00 00 00: 
             0x00001180: c1 07 00 00: 
             0x00001184: 22 01 00 00: 
             0x00001188: 2e 01 00 00: 
             0x0000118c: 00 00 00 00: 
             0x00001190: 00 00 00 00: 
             0x00001194: 41 04 00 00: 
             0x00001198: 22 01 00 00: 
             0x0000119c: 4c 01 00 00: 
             0x000011a0: 00 00 00 00: 
             0x000011a4: 00 00 00 00: 
             0x000011a8: c1 04 00 00: 
             0x000011ac: 22 01 00 00: 
             0x000011b0: 4d 01 00 00: 
             0x000011b4: 00 00 00 00: 
             0x000011b8: 00 00 00 00: 
             0x000011bc: 01 05 00 00: 
             0x000011c0: 22 01 00 00: 
             0x000011c4: 4e 01 00 00: 
             0x000011c8: 00 00 00 00: 
             0x000011cc: 00 00 00 00: 
             0x000011d0: 41 05 00 00: 
             0x000011d4: 22 01 00 00: 
             0x000011d8: 4f 01 00 00: 
             0x000011dc: 00 00 00 00: 
             0x000011e0: 00 00 00 00: 
             0x000011e4: 42 09 00 00: 
             0x000011e8: 22 01 00 00: 
             0x000011ec: 41 87 00 00: 
             0x000011f0: 00 00 00 00: 
             0x000011f4: 00 00 00 00: 
             0x000011f8: 42 09 00 00: 
             0x000011fc: 22 01 00 00: 
             0x00001200: 41 87 00 00: 
             0x00001204: 00 00 00 00: 
             0x00001208: 00 00 00 00: 
             0x0000120c: 42 09 00 00: 
             0x00001210: 22 01 00 00: 
             0x00001214: 41 87 00 00: 
             0x00001218: 00 00 00 00: 
             0x0000121c: 00 00 00 00: 
             0x00001220: 41 04 00 00: 
             0x00001224: 86 01 00 00: 
             0x00001228: 82 01 00 00: 
             0x0000122c: 00 00 00 00: 
             0x00001230: 00 00 00 00: 
             0x00001234: 41 05 00 00: 
             0x00001238: 86 01 00 00: 
             0x0000123c: 85 01 00 00: 
             0x00001240: 00 00 00 00: 
             0x00001244: 00 00 00 00: 
             0x00001248: 01 05 00 00: 
             0x0000124c: 86 01 00 00: 
             0x00001250: 84 01 00 00: 
             0x00001254: 00 00 00 00: 
             0x00001258: 00 00 00 00: 
             0x0000125c: c1 04 00 00: 
             0x00001260: 86 01 00 00: 
             0x00001264: 83 01 00 00: 
             0x00001268: 00 00 00 00: 
             0x0000126c: 00 00 00 00: 
             0x00001270: 41 04 00 00: 
             0x00001274: 97 01 00 00: 
             0x00001278: 93 01 00 00: 
             0x0000127c: 00 00 00 00: 
             0x00001280: 00 00 00 00: 
             0x00001284: 41 05 00 00: 
             0x00001288: 97 01 00 00: 
             0x0000128c: 96 01 00 00: 
             0x00001290: 00 00 00 00: 
             0x00001294: 00 00 00 00: 
             0x00001298: 01 05 00 00: 
             0x0000129c: 97 01 00 00: 
             0x000012a0: 95 01 00 00: 
             0x000012a4: 00 00 00 00: 
             0x000012a8: 00 00 00 00: 
             0x000012ac: c1 04 00 00: 
             0x000012b0: 97 01 00 00: 
             0x000012b4: 94 01 00 00: 
             0x000012b8: 00 00 00 00: 
             0x000012bc: 00 00 00 00: 
             0x000012c0: 42 09 00 00: 
             0x000012c4: 97 01 00 00: 
             0x000012c8: 4d 8a 00 00: 
             0x000012cc: 00 00 00 00: 
             0x000012d0: 00 00 00 00: 
             0x000012d4: 41 04 00 00: 
             0x000012d8: 9c 01 00 00: 
             0x000012dc: 98 01 00 00: 
             0x000012e0: 00 00 00 00: 
             0x000012e4: 00 00 00 00: 
             0x000012e8: 41 05 00 00: 
             0x000012ec: 9c 01 00 00: 
             0x000012f0: 9b 01 00 00: 
             0x000012f4: 00 00 00 00: 
             0x000012f8: 00 00 00 00: 
             0x000012fc: 01 05 00 00: 
             0x00001300: 9c 01 00 00: 
             0x00001304: 9a 01 00 00: 
             0x00001308: 00 00 00 00: 
             0x0000130c: 00 00 00 00: 
             0x00001310: c1 04 00 00: 
             0x00001314: 9c 01 00 00: 
             0x00001318: 99 01 00 00: 
             0x0000131c: 00 00 00 00: 
             0x00001320: 00 00 00 00: 
             0x00001324: 42 09 00 00: 
             0x00001328: 9c 01 00 00: 
             0x0000132c: 63 8a 00 00: 
             0x00001330: 00 00 00 00: 
             0x00001334: 00 00 00 00: 
             0x00001338: 41 04 00 00: 
             0x0000133c: a1 01 00 00: 
             0x00001340: 9d 01 00 00: 
             0x00001344: 00 00 00 00: 
             0x00001348: 00 00 00 00: 
             0x0000134c: 41 05 00 00: 
             0x00001350: a1 01 00 00: 
             0x00001354: a0 01 00 00: 
             0x00001358: 00 00 00 00: 
             0x0000135c: 00 00 00 00: 
             0x00001360: 01 05 00 00: 
             0x00001364: a1 01 00 00: 
             0x00001368: 9f 01 00 00: 
             0x0000136c: 00 00 00 00: 
             0x00001370: 00 00 00 00: 
             0x00001374: c1 04 00 00: 
             0x00001378: a1 01 00 00: 
             0x0000137c: 9e 01 00 00: 
             0x00001380: 00 00 00 00: 
             0x00001384: 00 00 00 00: 
             0x00001388: 42 09 00 00: 
             0x0000138c: a1 01 00 00: 
             0x00001390: ab 8a 00 00: 
             0x00001394: 00 00 00 00: 
             0x00001398: 00 00 00 00: 
             0x0000139c: 41 04 00 00: 
             0x000013a0: a6 01 00 00: 
             0x000013a4: a2 01 00 00: 
             0x000013a8: 00 00 00 00: 
             0x000013ac: 00 00 00 00: 
             0x000013b0: 41 05 00 00: 
             0x000013b4: a6 01 00 00: 
             0x000013b8: a5 01 00 00: 
             0x000013bc: 00 00 00 00: 
             0x000013c0: 00 00 00 00: 
             0x000013c4: 01 05 00 00: 
             0x000013c8: a6 01 00 00: 
             0x000013cc: a4 01 00 00: 
             0x000013d0: 00 00 00 00: 
             0x000013d4: 00 00 00 00: 
             0x000013d8: c1 04 00 00: 
             0x000013dc: a6 01 00 00: 
             0x000013e0: a3 01 00 00: 
             0x000013e4: 00 00 00 00: 
             0x000013e8: 00 00 00 00: 
             0x000013ec: 41 04 00 00: 
             0x000013f0: c0 01 00 00: 
             0x000013f4: bf 01 00 00: 
             0x000013f8: 00 00 00 00: 
             0x000013fc: 00 00 00 00: 
             0x00001400: 41 04 00 00: 
             0x00001404: c1 01 00 00: 
             0x00001408: c2 01 00 00: 
             0x0000140c: 00 00 00 00: 
             0x00001410: 00 00 00 00: 
             0x00001414: 41 04 00 00: 
             0x00001418: c3 01 00 00: 
             0x0000141c: c4 01 00 00: 
             0x00001420: 00 00 00 00: 
             0x00001424: 00 00 00 00: 
             0x00001428: 41 04 00 00: 
             0x0000142c: c5 01 00 00: 
             0x00001430: c6 01 00 00: 
             0x00001434: 00 00 00 00: 
             0x00001438: 00 00 00 00: 
             0x0000143c: c9 03 00 00: 
             0x00001440: c7 01 00 00: 
             0x00001444: c3 03 00 00: 
             0x00001448: ce 8a 00 00: 
             0x0000144c: 00 00 00 00: 
             0x00001450: 01 03 00 00: 
             0x00001454: c7 01 00 00: 
             0x00001458: 9d 00 00 00: 
             0x0000145c: 00 00 00 00: 
             0x00001460: 00 00 00 00: 
             0x00001464: 01 06 00 00: 
             0x00001468: c7 01 00 00: 
             0x0000146c: d6 03 00 00: 
             0x00001470: 00 00 00 00: 
             0x00001474: 00 00 00 00: 
             0x00001478: c1 07 00 00: 
             0x0000147c: c7 01 00 00: 
             0x00001480: eb 03 00 00: 
             0x00001484: 00 00 00 00: 
             0x00001488: 00 00 00 00: 
             0x0000148c: 41 04 00 00: 
             0x00001490: c7 01 00 00: 
             0x00001494: 20 04 00 00: 
             0x00001498: 00 00 00 00: 
             0x0000149c: 00 00 00 00: 
             0x000014a0: c1 04 00 00: 
             0x000014a4: c7 01 00 00: 
             0x000014a8: 21 04 00 00: 
             0x000014ac: 00 00 00 00: 
             0x000014b0: 00 00 00 00: 
             0x000014b4: 01 05 00 00: 
             0x000014b8: c7 01 00 00: 
             0x000014bc: 22 04 00 00: 
             0x000014c0: 00 00 00 00: 
             0x000014c4: 00 00 00 00: 
             0x000014c8: 41 05 00 00: 
             0x000014cc: c7 01 00 00: 
             0x000014d0: 23 04 00 00: 
             0x000014d4: 00 00 00 00: 
             0x000014d8: 00 00 00 00: 
             0x000014dc: 42 09 00 00: 
             0x000014e0: c7 01 00 00: 
             0x000014e4: f8 8a 00 00: 
             0x000014e8: 00 00 00 00: 
             0x000014ec: 00 00 00 00: 
             0x000014f0: 01 03 00 00: 
             0x000014f4: c8 01 00 00: 
             0x000014f8: a1 01 00 00: 
             0x000014fc: 00 00 00 00: 
             0x00001500: 00 00 00 00: 
             0x00001504: 01 03 00 00: 
             0x00001508: c8 01 00 00: 
             0x0000150c: 78 02 00 00: 
             0x00001510: 00 00 00 00: 
             0x00001514: 00 00 00 00: 
             0x00001518: 01 03 00 00: 
             0x0000151c: c8 01 00 00: 
             0x00001520: 26 02 00 00: 
             0x00001524: 00 00 00 00: 
             0x00001528: 00 00 00 00: 
             0x0000152c: 01 03 00 00: 
             0x00001530: c8 01 00 00: 
             0x00001534: 1e 01 00 00: 
             0x00001538: 00 00 00 00: 
             0x0000153c: 00 00 00 00: 
             0x00001540: 01 03 00 00: 
             0x00001544: c8 01 00 00: 
             0x00001548: 20 01 00 00: 
             0x0000154c: 00 00 00 00: 
             0x00001550: 00 00 00 00: 
             0x00001554: 01 03 00 00: 
             0x00001558: c8 01 00 00: 
             0x0000155c: 79 02 00 00: 
             0x00001560: 00 00 00 00: 
             0x00001564: 00 00 00 00: 
             0x00001568: c1 07 00 00: 
             0x0000156c: c8 01 00 00: 
             0x00001570: 86 02 00 00: 
             0x00001574: 00 00 00 00: 
             0x00001578: 00 00 00 00: 
             0x0000157c: 41 04 00 00: 
             0x00001580: c8 01 00 00: 
             0x00001584: a5 02 00 00: 
             0x00001588: 00 00 00 00: 
             0x0000158c: 00 00 00 00: 
             0x00001590: c1 04 00 00: 
             0x00001594: c8 01 00 00: 
             0x00001598: a6 02 00 00: 
             0x0000159c: 00 00 00 00: 
             0x000015a0: 00 00 00 00: 
             0x000015a4: 01 05 00 00: 
             0x000015a8: c8 01 00 00: 
             0x000015ac: a7 02 00 00: 
             0x000015b0: 00 00 00 00: 
             0x000015b4: 00 00 00 00: 
             0x000015b8: 41 05 00 00: 
             0x000015bc: c8 01 00 00: 
             0x000015c0: a8 02 00 00: 
             0x000015c4: 00 00 00 00: 
             0x000015c8: 00 00 00 00: 
             0x000015cc: 42 09 00 00: 
             0x000015d0: c8 01 00 00: 
             0x000015d4: 02 8b 00 00: 
             0x000015d8: 00 00 00 00: 
             0x000015dc: 00 00 00 00: 
             0x000015e0: 01 03 00 00: 
             0x000015e4: ca 01 00 00: 
             0x000015e8: e4 00 00 00: 
             0x000015ec: 00 00 00 00: 
             0x000015f0: 00 00 00 00: 
             0x000015f4: 01 06 00 00: 
             0x000015f8: ca 01 00 00: 
             0x000015fc: da 01 00 00: 
             0x00001600: 00 00 00 00: 
             0x00001604: 00 00 00 00: 
             0x00001608: c1 07 00 00: 
             0x0000160c: ca 01 00 00: 
             0x00001610: e8 01 00 00: 
             0x00001614: 00 00 00 00: 
             0x00001618: 00 00 00 00: 
             0x0000161c: 01 03 00 00: 
             0x00001620: cb 01 00 00: 
             0x00001624: e4 00 00 00: 
             0x00001628: 00 00 00 00: 
             0x0000162c: 00 00 00 00: 
             0x00001630: 01 03 00 00: 
             0x00001634: cb 01 00 00: 
             0x00001638: 18 01 00 00: 
             0x0000163c: 00 00 00 00: 
             0x00001640: 00 00 00 00: 
             0x00001644: 01 03 00 00: 
             0x00001648: cb 01 00 00: 
             0x0000164c: 97 01 00 00: 
             0x00001650: 00 00 00 00: 
             0x00001654: 00 00 00 00: 
             0x00001658: 01 03 00 00: 
             0x0000165c: cb 01 00 00: 
             0x00001660: 77 00 00 00: 
             0x00001664: 00 00 00 00: 
             0x00001668: 00 00 00 00: 
             0x0000166c: 01 06 00 00: 
             0x00001670: cb 01 00 00: 
             0x00001674: d7 01 00 00: 
             0x00001678: 00 00 00 00: 
             0x0000167c: 00 00 00 00: 
             0x00001680: c1 07 00 00: 
             0x00001684: cb 01 00 00: 
             0x00001688: e4 01 00 00: 
             0x0000168c: 00 00 00 00: 
             0x00001690: 00 00 00 00: 
             0x00001694: 41 04 00 00: 
             0x00001698: cb 01 00 00: 
             0x0000169c: 16 02 00 00: 
             0x000016a0: 00 00 00 00: 
             0x000016a4: 00 00 00 00: 
             0x000016a8: c1 04 00 00: 
             0x000016ac: cb 01 00 00: 
             0x000016b0: 17 02 00 00: 
             0x000016b4: 00 00 00 00: 
             0x000016b8: 00 00 00 00: 
             0x000016bc: 01 05 00 00: 
             0x000016c0: cb 01 00 00: 
             0x000016c4: 18 02 00 00: 
             0x000016c8: 00 00 00 00: 
             0x000016cc: 00 00 00 00: 
             0x000016d0: 41 05 00 00: 
             0x000016d4: cb 01 00 00: 
             0x000016d8: 19 02 00 00: 
             0x000016dc: 00 00 00 00: 
             0x000016e0: 00 00 00 00: 
             0x000016e4: 42 09 00 00: 
             0x000016e8: cb 01 00 00: 
             0x000016ec: 54 8b 00 00: 
             0x000016f0: 00 00 00 00: 
             0x000016f4: 00 00 00 00: 
             0x000016f8: 42 09 00 00: 
             0x000016fc: cb 01 00 00: 
             0x00001700: 54 8b 00 00: 
             0x00001704: 00 00 00 00: 
             0x00001708: 00 00 00 00: 
             0x0000170c: 01 06 00 00: 
             0x00001710: cc 01 00 00: 
             0x00001714: 13 03 00 00: 
             0x00001718: 00 00 00 00: 
             0x0000171c: 00 00 00 00: 
             0x00001720: c1 07 00 00: 
             0x00001724: cc 01 00 00: 
             0x00001728: 14 03 00 00: 
             0x0000172c: 00 00 00 00: 
             0x00001730: 00 00 00 00: 
             0x00001734: 41 04 00 00: 
             0x00001738: cc 01 00 00: 
             0x0000173c: f6 01 00 00: 
             0x00001740: 00 00 00 00: 
             0x00001744: 00 00 00 00: 
             0x00001748: c1 04 00 00: 
             0x0000174c: cc 01 00 00: 
             0x00001750: f7 01 00 00: 
             0x00001754: 00 00 00 00: 
             0x00001758: 00 00 00 00: 
             0x0000175c: 01 05 00 00: 
             0x00001760: cc 01 00 00: 
             0x00001764: f8 01 00 00: 
             0x00001768: 00 00 00 00: 
             0x0000176c: 00 00 00 00: 
             0x00001770: 41 05 00 00: 
             0x00001774: cc 01 00 00: 
             0x00001778: f9 01 00 00: 
             0x0000177c: 00 00 00 00: 
             0x00001780: 00 00 00 00: 
             0x00001784: 42 09 00 00: 
             0x00001788: cc 01 00 00: 
             0x0000178c: b4 86 00 00: 
             0x00001790: 00 00 00 00: 
             0x00001794: 00 00 00 00: 
             0x00001798: 42 09 00 00: 
             0x0000179c: cc 01 00 00: 
             0x000017a0: b4 86 00 00: 
             0x000017a4: 00 00 00 00: 
             0x000017a8: 00 00 00 00: 
             0x000017ac: 01 03 00 00: 
             0x000017b0: cd 01 00 00: 
             0x000017b4: 97 01 00 00: 
             0x000017b8: 00 00 00 00: 
             0x000017bc: 00 00 00 00: 
             0x000017c0: 01 03 00 00: 
             0x000017c4: cd 01 00 00: 
             0x000017c8: 77 00 00 00: 
             0x000017cc: 00 00 00 00: 
             0x000017d0: 00 00 00 00: 
             0x000017d4: 01 03 00 00: 
             0x000017d8: cd 01 00 00: 
             0x000017dc: cc 01 00 00: 
             0x000017e0: 00 00 00 00: 
             0x000017e4: 00 00 00 00: 
             0x000017e8: 01 06 00 00: 
             0x000017ec: cd 01 00 00: 
             0x000017f0: d1 01 00 00: 
             0x000017f4: 00 00 00 00: 
             0x000017f8: 00 00 00 00: 
             0x000017fc: c1 07 00 00: 
             0x00001800: cd 01 00 00: 
             0x00001804: de 01 00 00: 
             0x00001808: 00 00 00 00: 
             0x0000180c: 00 00 00 00: 
             0x00001810: 41 04 00 00: 
             0x00001814: cd 01 00 00: 
             0x00001818: fe 01 00 00: 
             0x0000181c: 00 00 00 00: 
             0x00001820: 00 00 00 00: 
             0x00001824: c1 04 00 00: 
             0x00001828: cd 01 00 00: 
             0x0000182c: ff 01 00 00: 
             0x00001830: 00 00 00 00: 
             0x00001834: 00 00 00 00: 
             0x00001838: 01 05 00 00: 
             0x0000183c: cd 01 00 00: 
             0x00001840: 00 02 00 00: 
             0x00001844: 00 00 00 00: 
             0x00001848: 00 00 00 00: 
             0x0000184c: 41 05 00 00: 
             0x00001850: cd 01 00 00: 
             0x00001854: 01 02 00 00: 
             0x00001858: 00 00 00 00: 
             0x0000185c: 00 00 00 00: 
             0x00001860: 42 09 00 00: 
             0x00001864: cd 01 00 00: 
             0x00001868: 41 87 00 00: 
             0x0000186c: 00 00 00 00: 
             0x00001870: 00 00 00 00: 
             0x00001874: 42 09 00 00: 
             0x00001878: cd 01 00 00: 
             0x0000187c: 41 87 00 00: 
             0x00001880: 00 00 00 00: 
             0x00001884: 00 00 00 00: 
             0x00001888: 42 09 00 00: 
             0x0000188c: cd 01 00 00: 
             0x00001890: 41 87 00 00: 
             0x00001894: 00 00 00 00: 
             0x00001898: 00 00 00 00: 
             0x0000189c: 01 03 00 00: 
             0x000018a0: ce 01 00 00: 
             0x000018a4: 97 01 00 00: 
             0x000018a8: 00 00 00 00: 
             0x000018ac: 00 00 00 00: 
             0x000018b0: 01 03 00 00: 
             0x000018b4: ce 01 00 00: 
             0x000018b8: 77 00 00 00: 
             0x000018bc: 00 00 00 00: 
             0x000018c0: 00 00 00 00: 
             0x000018c4: 01 03 00 00: 
             0x000018c8: ce 01 00 00: 
             0x000018cc: cc 01 00 00: 
             0x000018d0: 00 00 00 00: 
             0x000018d4: 00 00 00 00: 
             0x000018d8: 01 06 00 00: 
             0x000018dc: ce 01 00 00: 
             0x000018e0: d0 01 00 00: 
             0x000018e4: 00 00 00 00: 
             0x000018e8: 00 00 00 00: 
             0x000018ec: c1 07 00 00: 
             0x000018f0: ce 01 00 00: 
             0x000018f4: dd 01 00 00: 
             0x000018f8: 00 00 00 00: 
             0x000018fc: 00 00 00 00: 
             0x00001900: 41 04 00 00: 
             0x00001904: ce 01 00 00: 
             0x00001908: fa 01 00 00: 
             0x0000190c: 00 00 00 00: 
             0x00001910: 00 00 00 00: 
             0x00001914: c1 04 00 00: 
             0x00001918: ce 01 00 00: 
             0x0000191c: fb 01 00 00: 
             0x00001920: 00 00 00 00: 
             0x00001924: 00 00 00 00: 
             0x00001928: 01 05 00 00: 
             0x0000192c: ce 01 00 00: 
             0x00001930: fc 01 00 00: 
             0x00001934: 00 00 00 00: 
             0x00001938: 00 00 00 00: 
             0x0000193c: 41 05 00 00: 
             0x00001940: ce 01 00 00: 
             0x00001944: fd 01 00 00: 
             0x00001948: 00 00 00 00: 
             0x0000194c: 00 00 00 00: 
             0x00001950: 42 09 00 00: 
             0x00001954: ce 01 00 00: 
             0x00001958: 64 8b 00 00: 
             0x0000195c: 00 00 00 00: 
             0x00001960: 00 00 00 00: 
             0x00001964: 42 09 00 00: 
             0x00001968: ce 01 00 00: 
             0x0000196c: 64 8b 00 00: 
             0x00001970: 00 00 00 00: 
             0x00001974: 00 00 00 00: 
             0x00001978: 42 09 00 00: 
             0x0000197c: ce 01 00 00: 
             0x00001980: 64 8b 00 00: 
             0x00001984: 00 00 00 00: 
             0x00001988: 00 00 00 00: 
             0x0000198c: 85 00 00 00: 
             0x00001990: b3 03 00 00: 
             0x00001994: af 03 00 00: 
             0x00001998: a7 03 00 00: 
             0x0000199c: 00 00 00 00: 
             0x000019a0: 41 04 00 00: 
             0x000019a4: 22 02 00 00: 
             0x000019a8: 23 02 00 00: 
             0x000019ac: 00 00 00 00: 
             0x000019b0: 00 00 00 00: 
             0x000019b4: 41 00 00 00: 
             0x000019b8: 22 02 00 00: 
             0x000019bc: e4 00 00 00: 
             0x000019c0: 00 00 00 00: 
             0x000019c4: 00 00 00 00: 
             0x000019c8: 42 09 00 00: 
             0x000019cc: 22 02 00 00: 
             0x000019d0: ef 89 00 00: 
             0x000019d4: 00 00 00 00: 
             0x000019d8: 00 00 00 00: 
             0x000019dc: 41 00 00 00: 
             0x000019e0: 23 02 00 00: 
             0x000019e4: e5 00 00 00: 
             0x000019e8: 00 00 00 00: 
             0x000019ec: 00 00 00 00: 
             0x000019f0: 01 06 00 00: 
             0x000019f4: 26 02 00 00: 
             0x000019f8: 25 02 00 00: 
             0x000019fc: 00 00 00 00: 
             0x00001a00: 00 00 00 00: 
             0x00001a04: c1 07 00 00: 
             0x00001a08: 26 02 00 00: 
             0x00001a0c: 27 02 00 00: 
             0x00001a10: 00 00 00 00: 
             0x00001a14: 00 00 00 00: 
             0x00001a18: 41 04 00 00: 
             0x00001a1c: 26 02 00 00: 
             0x00001a20: 30 02 00 00: 
             0x00001a24: 00 00 00 00: 
             0x00001a28: 00 00 00 00: 
             0x00001a2c: c1 04 00 00: 
             0x00001a30: 26 02 00 00: 
             0x00001a34: 31 02 00 00: 
             0x00001a38: 00 00 00 00: 
             0x00001a3c: 00 00 00 00: 
             0x00001a40: 01 05 00 00: 
             0x00001a44: 26 02 00 00: 
             0x00001a48: 32 02 00 00: 
             0x00001a4c: 00 00 00 00: 
             0x00001a50: 00 00 00 00: 
             0x00001a54: 41 05 00 00: 
             0x00001a58: 26 02 00 00: 
             0x00001a5c: 33 02 00 00: 
             0x00001a60: 00 00 00 00: 
             0x00001a64: 00 00 00 00: 
             0x00001a68: 42 09 00 00: 
             0x00001a6c: 26 02 00 00: 
             0x00001a70: 41 87 00 00: 
             0x00001a74: 00 00 00 00: 
             0x00001a78: 00 00 00 00: 
             0x00001a7c: 42 09 00 00: 
             0x00001a80: 26 02 00 00: 
             0x00001a84: 41 87 00 00: 
             0x00001a88: 00 00 00 00: 
             0x00001a8c: 00 00 00 00: 
             0x00001a90: 01 03 00 00: 
             0x00001a94: 48 02 00 00: 
             0x00001a98: db 02 00 00: 
             0x00001a9c: 00 00 00 00: 
             0x00001aa0: 00 00 00 00: 
             0x00001aa4: 01 03 00 00: 
             0x00001aa8: 48 02 00 00: 
             0x00001aac: 4b 02 00 00: 
             0x00001ab0: 00 00 00 00: 
             0x00001ab4: 00 00 00 00: 
             0x00001ab8: 01 06 00 00: 
             0x00001abc: 48 02 00 00: 
             0x00001ac0: dd 02 00 00: 
             0x00001ac4: 00 00 00 00: 
             0x00001ac8: 00 00 00 00: 
             0x00001acc: c1 07 00 00: 
             0x00001ad0: 48 02 00 00: 
             0x00001ad4: e2 02 00 00: 
             0x00001ad8: 00 00 00 00: 
             0x00001adc: 00 00 00 00: 
             0x00001ae0: 41 04 00 00: 
             0x00001ae4: 48 02 00 00: 
             0x00001ae8: f0 02 00 00: 
             0x00001aec: 00 00 00 00: 
             0x00001af0: 00 00 00 00: 
             0x00001af4: c1 04 00 00: 
             0x00001af8: 48 02 00 00: 
             0x00001afc: f3 02 00 00: 
             0x00001b00: 00 00 00 00: 
             0x00001b04: 00 00 00 00: 
             0x00001b08: 01 05 00 00: 
             0x00001b0c: 48 02 00 00: 
             0x00001b10: f6 02 00 00: 
             0x00001b14: 00 00 00 00: 
             0x00001b18: 00 00 00 00: 
             0x00001b1c: 41 05 00 00: 
             0x00001b20: 48 02 00 00: 
             0x00001b24: f9 02 00 00: 
             0x00001b28: 00 00 00 00: 
             0x00001b2c: 00 00 00 00: 
             0x00001b30: 42 09 00 00: 
             0x00001b34: 48 02 00 00: 
             0x00001b38: 35 87 00 00: 
             0x00001b3c: 00 00 00 00: 
             0x00001b40: 00 00 00 00: 
             0x00001b44: 42 09 00 00: 
             0x00001b48: 48 02 00 00: 
             0x00001b4c: 35 87 00 00: 
             0x00001b50: 00 00 00 00: 
             0x00001b54: 00 00 00 00: 
             0x00001b58: 01 06 00 00: 
             0x00001b5c: 4b 02 00 00: 
             0x00001b60: 4a 02 00 00: 
             0x00001b64: 00 00 00 00: 
             0x00001b68: 00 00 00 00: 
             0x00001b6c: c1 07 00 00: 
             0x00001b70: 4b 02 00 00: 
             0x00001b74: 4c 02 00 00: 
             0x00001b78: 00 00 00 00: 
             0x00001b7c: 00 00 00 00: 
             0x00001b80: 41 04 00 00: 
             0x00001b84: 4b 02 00 00: 
             0x00001b88: 5a 02 00 00: 
             0x00001b8c: 00 00 00 00: 
             0x00001b90: 00 00 00 00: 
             0x00001b94: c1 04 00 00: 
             0x00001b98: 4b 02 00 00: 
             0x00001b9c: 5d 02 00 00: 
             0x00001ba0: 00 00 00 00: 
             0x00001ba4: 00 00 00 00: 
             0x00001ba8: 01 05 00 00: 
             0x00001bac: 4b 02 00 00: 
             0x00001bb0: 5f 02 00 00: 
             0x00001bb4: 00 00 00 00: 
             0x00001bb8: 00 00 00 00: 
             0x00001bbc: 41 05 00 00: 
             0x00001bc0: 4b 02 00 00: 
             0x00001bc4: 61 02 00 00: 
             0x00001bc8: 00 00 00 00: 
             0x00001bcc: 00 00 00 00: 
             0x00001bd0: 42 09 00 00: 
             0x00001bd4: 4b 02 00 00: 
             0x00001bd8: 11 8a 00 00: 
             0x00001bdc: 00 00 00 00: 
             0x00001be0: 00 00 00 00: 
             0x00001be4: 42 09 00 00: 
             0x00001be8: 4b 02 00 00: 
             0x00001bec: 11 8a 00 00: 
             0x00001bf0: 00 00 00 00: 
             0x00001bf4: 00 00 00 00: 
             0x00001bf8: 01 06 00 00: 
             0x00001bfc: 50 02 00 00: 
             0x00001c00: 4f 02 00 00: 
             0x00001c04: 00 00 00 00: 
             0x00001c08: 00 00 00 00: 
             0x00001c0c: c1 07 00 00: 
             0x00001c10: 50 02 00 00: 
             0x00001c14: 51 02 00 00: 
             0x00001c18: 00 00 00 00: 
             0x00001c1c: 00 00 00 00: 
             0x00001c20: 41 04 00 00: 
             0x00001c24: 50 02 00 00: 
             0x00001c28: 52 02 00 00: 
             0x00001c2c: 00 00 00 00: 
             0x00001c30: 00 00 00 00: 
             0x00001c34: c1 04 00 00: 
             0x00001c38: 50 02 00 00: 
             0x00001c3c: 54 02 00 00: 
             0x00001c40: 00 00 00 00: 
             0x00001c44: 00 00 00 00: 
             0x00001c48: 01 05 00 00: 
             0x00001c4c: 50 02 00 00: 
             0x00001c50: 56 02 00 00: 
             0x00001c54: 00 00 00 00: 
             0x00001c58: 00 00 00 00: 
             0x00001c5c: 41 05 00 00: 
             0x00001c60: 50 02 00 00: 
             0x00001c64: 58 02 00 00: 
             0x00001c68: 00 00 00 00: 
             0x00001c6c: 00 00 00 00: 
             0x00001c70: 42 09 00 00: 
             0x00001c74: 50 02 00 00: 
             0x00001c78: 71 8b 00 00: 
             0x00001c7c: 00 00 00 00: 
             0x00001c80: 00 00 00 00: 
             0x00001c84: 42 09 00 00: 
             0x00001c88: 50 02 00 00: 
             0x00001c8c: 96 8b 00 00: 
             0x00001c90: 00 00 00 00: 
             0x00001c94: 00 00 00 00: 
             0x00001c98: 42 09 00 00: 
             0x00001c9c: 50 02 00 00: 
             0x00001ca0: 71 8b 00 00: 
             0x00001ca4: 00 00 00 00: 
             0x00001ca8: 00 00 00 00: 
             0x00001cac: c1 07 00 00: 
             0x00001cb0: 6b 02 00 00: 
             0x00001cb4: e7 02 00 00: 
             0x00001cb8: 00 00 00 00: 
             0x00001cbc: 00 00 00 00: 
             0x00001cc0: 41 04 00 00: 
             0x00001cc4: 6b 02 00 00: 
             0x00001cc8: 5c 02 00 00: 
             0x00001ccc: 00 00 00 00: 
             0x00001cd0: 00 00 00 00: 
             0x00001cd4: c1 04 00 00: 
             0x00001cd8: 6b 02 00 00: 
             0x00001cdc: 5e 02 00 00: 
             0x00001ce0: 00 00 00 00: 
             0x00001ce4: 00 00 00 00: 
             0x00001ce8: 01 05 00 00: 
             0x00001cec: 6b 02 00 00: 
             0x00001cf0: 60 02 00 00: 
             0x00001cf4: 00 00 00 00: 
             0x00001cf8: 00 00 00 00: 
             0x00001cfc: 41 05 00 00: 
             0x00001d00: 6b 02 00 00: 
             0x00001d04: 62 02 00 00: 
             0x00001d08: 00 00 00 00: 
             0x00001d0c: 00 00 00 00: 
             0x00001d10: 42 09 00 00: 
             0x00001d14: 6b 02 00 00: 
             0x00001d18: bf 8b 00 00: 
             0x00001d1c: 00 00 00 00: 
             0x00001d20: 00 00 00 00: 
             0x00001d24: 42 09 00 00: 
             0x00001d28: 6b 02 00 00: 
             0x00001d2c: f2 8b 00 00: 
             0x00001d30: 00 00 00 00: 
             0x00001d34: 00 00 00 00: 
             0x00001d38: c1 07 00 00: 
             0x00001d3c: 6c 02 00 00: 
             0x00001d40: e4 02 00 00: 
             0x00001d44: 00 00 00 00: 
             0x00001d48: 00 00 00 00: 
             0x00001d4c: 41 04 00 00: 
             0x00001d50: 6c 02 00 00: 
             0x00001d54: 53 02 00 00: 
             0x00001d58: 00 00 00 00: 
             0x00001d5c: 00 00 00 00: 
             0x00001d60: c1 04 00 00: 
             0x00001d64: 6c 02 00 00: 
             0x00001d68: 55 02 00 00: 
             0x00001d6c: 00 00 00 00: 
             0x00001d70: 00 00 00 00: 
             0x00001d74: 01 05 00 00: 
             0x00001d78: 6c 02 00 00: 
             0x00001d7c: 57 02 00 00: 
             0x00001d80: 00 00 00 00: 
             0x00001d84: 00 00 00 00: 
             0x00001d88: 41 05 00 00: 
             0x00001d8c: 6c 02 00 00: 
             0x00001d90: 59 02 00 00: 
             0x00001d94: 00 00 00 00: 
             0x00001d98: 00 00 00 00: 
             0x00001d9c: 42 09 00 00: 
             0x00001da0: 6c 02 00 00: 
             0x00001da4: 96 8b 00 00: 
             0x00001da8: 00 00 00 00: 
             0x00001dac: 00 00 00 00: 
             0x00001db0: 42 09 00 00: 
             0x00001db4: 6c 02 00 00: 
             0x00001db8: 71 8b 00 00: 
             0x00001dbc: 00 00 00 00: 
             0x00001dc0: 00 00 00 00: 
             0x00001dc4: 41 04 00 00: 
             0x00001dc8: 6d 02 00 00: 
             0x00001dcc: 6e 02 00 00: 
             0x00001dd0: 00 00 00 00: 
             0x00001dd4: 00 00 00 00: 
             0x00001dd8: 41 00 00 00: 
             0x00001ddc: 6d 02 00 00: 
             0x00001de0: e4 00 00 00: 
             0x00001de4: 00 00 00 00: 
             0x00001de8: 00 00 00 00: 
             0x00001dec: 42 09 00 00: 
             0x00001df0: 6d 02 00 00: 
             0x00001df4: 02 8a 00 00: 
             0x00001df8: 00 00 00 00: 
             0x00001dfc: 00 00 00 00: 
             0x00001e00: 41 00 00 00: 
             0x00001e04: 6e 02 00 00: 
             0x00001e08: e5 00 00 00: 
             0x00001e0c: 00 00 00 00: 
             0x00001e10: 00 00 00 00: 
             0x00001e14: 41 04 00 00: 
             0x00001e18: 71 02 00 00: 
             0x00001e1c: 72 02 00 00: 
             0x00001e20: 00 00 00 00: 
             0x00001e24: 00 00 00 00: 
             0x00001e28: 42 09 00 00: 
             0x00001e2c: 71 02 00 00: 
             0x00001e30: f2 8b 00 00: 
             0x00001e34: 00 00 00 00: 
             0x00001e38: 00 00 00 00: 
             0x00001e3c: 41 04 00 00: 
             0x00001e40: 73 02 00 00: 
             0x00001e44: 74 02 00 00: 
             0x00001e48: 00 00 00 00: 
             0x00001e4c: 00 00 00 00: 
             0x00001e50: 42 09 00 00: 
             0x00001e54: 73 02 00 00: 
             0x00001e58: 71 8b 00 00: 
             0x00001e5c: 00 00 00 00: 
             0x00001e60: 00 00 00 00: 
             0x00001e64: 01 03 00 00: 
             0x00001e68: 76 02 00 00: 
             0x00001e6c: e4 00 00 00: 
             0x00001e70: 00 00 00 00: 
             0x00001e74: 00 00 00 00: 
             0x00001e78: 01 06 00 00: 
             0x00001e7c: 76 02 00 00: 
             0x00001e80: 7b 02 00 00: 
             0x00001e84: 00 00 00 00: 
             0x00001e88: 00 00 00 00: 
             0x00001e8c: c1 07 00 00: 
             0x00001e90: 76 02 00 00: 
             0x00001e94: 85 02 00 00: 
             0x00001e98: 00 00 00 00: 
             0x00001e9c: 00 00 00 00: 
             0x00001ea0: 01 06 00 00: 
             0x00001ea4: 77 02 00 00: 
             0x00001ea8: 3a 03 00 00: 
             0x00001eac: 00 00 00 00: 
             0x00001eb0: 00 00 00 00: 
             0x00001eb4: c1 07 00 00: 
             0x00001eb8: 77 02 00 00: 
             0x00001ebc: 3b 03 00 00: 
             0x00001ec0: 00 00 00 00: 
             0x00001ec4: 00 00 00 00: 
             0x00001ec8: 41 04 00 00: 
             0x00001ecc: 77 02 00 00: 
             0x00001ed0: 95 02 00 00: 
             0x00001ed4: 00 00 00 00: 
             0x00001ed8: 00 00 00 00: 
             0x00001edc: c1 04 00 00: 
             0x00001ee0: 77 02 00 00: 
             0x00001ee4: 96 02 00 00: 
             0x00001ee8: 00 00 00 00: 
             0x00001eec: 00 00 00 00: 
             0x00001ef0: 01 05 00 00: 
             0x00001ef4: 77 02 00 00: 
             0x00001ef8: 97 02 00 00: 
             0x00001efc: 00 00 00 00: 
             0x00001f00: 00 00 00 00: 
             0x00001f04: 41 05 00 00: 
             0x00001f08: 77 02 00 00: 
             0x00001f0c: 98 02 00 00: 
             0x00001f10: 00 00 00 00: 
             0x00001f14: 00 00 00 00: 
             0x00001f18: 42 09 00 00: 
             0x00001f1c: 77 02 00 00: 
             0x00001f20: bc 86 00 00: 
             0x00001f24: 00 00 00 00: 
             0x00001f28: 00 00 00 00: 
             0x00001f2c: 42 09 00 00: 
             0x00001f30: 77 02 00 00: 
             0x00001f34: bc 86 00 00: 
             0x00001f38: 00 00 00 00: 
             0x00001f3c: 00 00 00 00: 
             0x00001f40: 01 03 00 00: 
             0x00001f44: 78 02 00 00: 
             0x00001f48: e4 00 00 00: 
             0x00001f4c: 00 00 00 00: 
             0x00001f50: 00 00 00 00: 
             0x00001f54: 01 03 00 00: 
             0x00001f58: 78 02 00 00: 
             0x00001f5c: 77 00 00 00: 
             0x00001f60: 00 00 00 00: 
             0x00001f64: 00 00 00 00: 
             0x00001f68: 01 06 00 00: 
             0x00001f6c: 78 02 00 00: 
             0x00001f70: 7a 02 00 00: 
             0x00001f74: 00 00 00 00: 
             0x00001f78: 00 00 00 00: 
             0x00001f7c: c1 07 00 00: 
             0x00001f80: 78 02 00 00: 
             0x00001f84: 83 02 00 00: 
             0x00001f88: 00 00 00 00: 
             0x00001f8c: 00 00 00 00: 
             0x00001f90: 41 04 00 00: 
             0x00001f94: 78 02 00 00: 
             0x00001f98: 9d 02 00 00: 
             0x00001f9c: 00 00 00 00: 
             0x00001fa0: 00 00 00 00: 
             0x00001fa4: c1 04 00 00: 
             0x00001fa8: 78 02 00 00: 
             0x00001fac: 9e 02 00 00: 
             0x00001fb0: 00 00 00 00: 
             0x00001fb4: 00 00 00 00: 
             0x00001fb8: 01 05 00 00: 
             0x00001fbc: 78 02 00 00: 
             0x00001fc0: 9f 02 00 00: 
             0x00001fc4: 00 00 00 00: 
             0x00001fc8: 00 00 00 00: 
             0x00001fcc: 41 05 00 00: 
             0x00001fd0: 78 02 00 00: 
             0x00001fd4: a0 02 00 00: 
             0x00001fd8: 00 00 00 00: 
             0x00001fdc: 00 00 00 00: 
             0x00001fe0: 42 09 00 00: 
             0x00001fe4: 78 02 00 00: 
             0x00001fe8: 19 8c 00 00: 
             0x00001fec: 00 00 00 00: 
             0x00001ff0: 00 00 00 00: 
             0x00001ff4: 01 03 00 00: 
             0x00001ff8: 79 02 00 00: 
             0x00001ffc: e4 00 00 00: 
             0x00002000: 00 00 00 00: 
             0x00002004: 00 00 00 00: 
             0x00002008: 01 03 00 00: 
             0x0000200c: 79 02 00 00: 
             0x00002010: 77 00 00 00: 
             0x00002014: 00 00 00 00: 
             0x00002018: 00 00 00 00: 
             0x0000201c: c1 07 00 00: 
             0x00002020: 79 02 00 00: 
             0x00002024: 82 02 00 00: 
             0x00002028: 00 00 00 00: 
             0x0000202c: 00 00 00 00: 
             0x00002030: 41 04 00 00: 
             0x00002034: 79 02 00 00: 
             0x00002038: 99 02 00 00: 
             0x0000203c: 00 00 00 00: 
             0x00002040: 00 00 00 00: 
             0x00002044: c1 04 00 00: 
             0x00002048: 79 02 00 00: 
             0x0000204c: 9a 02 00 00: 
             0x00002050: 00 00 00 00: 
             0x00002054: 00 00 00 00: 
             0x00002058: 01 05 00 00: 
             0x0000205c: 79 02 00 00: 
             0x00002060: 9b 02 00 00: 
             0x00002064: 00 00 00 00: 
             0x00002068: 00 00 00 00: 
             0x0000206c: 41 05 00 00: 
             0x00002070: 79 02 00 00: 
             0x00002074: 9c 02 00 00: 
             0x00002078: 00 00 00 00: 
             0x0000207c: 00 00 00 00: 
             0x00002080: 42 09 00 00: 
             0x00002084: 79 02 00 00: 
             0x00002088: 52 8c 00 00: 
             0x0000208c: 00 00 00 00: 
             0x00002090: 00 00 00 00: 
             0x00002094: 01 03 00 00: 
             0x00002098: d9 02 00 00: 
             0x0000209c: e4 00 00 00: 
             0x000020a0: 00 00 00 00: 
             0x000020a4: 00 00 00 00: 
             0x000020a8: 01 06 00 00: 
             0x000020ac: d9 02 00 00: 
             0x000020b0: de 02 00 00: 
             0x000020b4: 00 00 00 00: 
             0x000020b8: 00 00 00 00: 
             0x000020bc: c1 07 00 00: 
             0x000020c0: d9 02 00 00: 
             0x000020c4: e5 02 00 00: 
             0x000020c8: 00 00 00 00: 
             0x000020cc: 00 00 00 00: 
             0x000020d0: 01 06 00 00: 
             0x000020d4: da 02 00 00: 
             0x000020d8: 3d 04 00 00: 
             0x000020dc: 00 00 00 00: 
             0x000020e0: 00 00 00 00: 
             0x000020e4: c1 07 00 00: 
             0x000020e8: da 02 00 00: 
             0x000020ec: 3e 04 00 00: 
             0x000020f0: 00 00 00 00: 
             0x000020f4: 00 00 00 00: 
             0x000020f8: 41 04 00 00: 
             0x000020fc: da 02 00 00: 
             0x00002100: fc 02 00 00: 
             0x00002104: 00 00 00 00: 
             0x00002108: 00 00 00 00: 
             0x0000210c: c1 04 00 00: 
             0x00002110: da 02 00 00: 
             0x00002114: ff 02 00 00: 
             0x00002118: 00 00 00 00: 
             0x0000211c: 00 00 00 00: 
             0x00002120: 01 05 00 00: 
             0x00002124: da 02 00 00: 
             0x00002128: 01 03 00 00: 
             0x0000212c: 00 00 00 00: 
             0x00002130: 00 00 00 00: 
             0x00002134: 41 05 00 00: 
             0x00002138: da 02 00 00: 
             0x0000213c: 03 03 00 00: 
             0x00002140: 00 00 00 00: 
             0x00002144: 00 00 00 00: 
             0x00002148: 42 09 00 00: 
             0x0000214c: da 02 00 00: 
             0x00002150: 11 8a 00 00: 
             0x00002154: 00 00 00 00: 
             0x00002158: 00 00 00 00: 
             0x0000215c: 42 09 00 00: 
             0x00002160: da 02 00 00: 
             0x00002164: 11 8a 00 00: 
             0x00002168: 00 00 00 00: 
             0x0000216c: 00 00 00 00: 
             0x00002170: 01 03 00 00: 
             0x00002174: db 02 00 00: 
             0x00002178: da 02 00 00: 
             0x0000217c: 00 00 00 00: 
             0x00002180: 00 00 00 00: 
             0x00002184: 01 03 00 00: 
             0x00002188: db 02 00 00: 
             0x0000218c: dc 02 00 00: 
             0x00002190: 00 00 00 00: 
             0x00002194: 00 00 00 00: 
             0x00002198: 01 03 00 00: 
             0x0000219c: db 02 00 00: 
             0x000021a0: e4 00 00 00: 
             0x000021a4: 00 00 00 00: 
             0x000021a8: 00 00 00 00: 
             0x000021ac: 01 03 00 00: 
             0x000021b0: db 02 00 00: 
             0x000021b4: 77 00 00 00: 
             0x000021b8: 00 00 00 00: 
             0x000021bc: 00 00 00 00: 
             0x000021c0: 01 03 00 00: 
             0x000021c4: db 02 00 00: 
             0x000021c8: cd 01 00 00: 
             0x000021cc: 00 00 00 00: 
             0x000021d0: 00 00 00 00: 
             0x000021d4: 01 03 00 00: 
             0x000021d8: db 02 00 00: 
             0x000021dc: 50 02 00 00: 
             0x000021e0: 00 00 00 00: 
             0x000021e4: 00 00 00 00: 
             0x000021e8: 01 03 00 00: 
             0x000021ec: db 02 00 00: 
             0x000021f0: 22 01 00 00: 
             0x000021f4: 00 00 00 00: 
             0x000021f8: 00 00 00 00: 
             0x000021fc: 49 06 00 00: 
             0x00002200: db 02 00 00: 
             0x00002204: 4b 02 00 00: 
             0x00002208: 8d 8c 00 00: 
             0x0000220c: 00 00 00 00: 
             0x00002210: c1 07 00 00: 
             0x00002214: db 02 00 00: 
             0x00002218: e3 02 00 00: 
             0x0000221c: 00 00 00 00: 
             0x00002220: 00 00 00 00: 
             0x00002224: 41 04 00 00: 
             0x00002228: db 02 00 00: 
             0x0000222c: f2 02 00 00: 
             0x00002230: 00 00 00 00: 
             0x00002234: 00 00 00 00: 
             0x00002238: c1 04 00 00: 
             0x0000223c: db 02 00 00: 
             0x00002240: f5 02 00 00: 
             0x00002244: 00 00 00 00: 
             0x00002248: 00 00 00 00: 
             0x0000224c: 01 05 00 00: 
             0x00002250: db 02 00 00: 
             0x00002254: f8 02 00 00: 
             0x00002258: 00 00 00 00: 
             0x0000225c: 00 00 00 00: 
             0x00002260: 41 05 00 00: 
             0x00002264: db 02 00 00: 
             0x00002268: fb 02 00 00: 
             0x0000226c: 00 00 00 00: 
             0x00002270: 00 00 00 00: 
             0x00002274: 42 09 00 00: 
             0x00002278: db 02 00 00: 
             0x0000227c: d2 8c 00 00: 
             0x00002280: 00 00 00 00: 
             0x00002284: 00 00 00 00: 
             0x00002288: 01 06 00 00: 
             0x0000228c: dc 02 00 00: 
             0x00002290: 3f 04 00 00: 
             0x00002294: 00 00 00 00: 
             0x00002298: 00 00 00 00: 
             0x0000229c: c1 07 00 00: 
             0x000022a0: dc 02 00 00: 
             0x000022a4: 40 04 00 00: 
             0x000022a8: 00 00 00 00: 
             0x000022ac: 00 00 00 00: 
             0x000022b0: 41 04 00 00: 
             0x000022b4: dc 02 00 00: 
             0x000022b8: fd 02 00 00: 
             0x000022bc: 00 00 00 00: 
             0x000022c0: 00 00 00 00: 
             0x000022c4: c1 04 00 00: 
             0x000022c8: dc 02 00 00: 
             0x000022cc: fe 02 00 00: 
             0x000022d0: 00 00 00 00: 
             0x000022d4: 00 00 00 00: 
             0x000022d8: 01 05 00 00: 
             0x000022dc: dc 02 00 00: 
             0x000022e0: 00 03 00 00: 
             0x000022e4: 00 00 00 00: 
             0x000022e8: 00 00 00 00: 
             0x000022ec: 41 05 00 00: 
             0x000022f0: dc 02 00 00: 
             0x000022f4: 02 03 00 00: 
             0x000022f8: 00 00 00 00: 
             0x000022fc: 00 00 00 00: 
             0x00002300: 42 09 00 00: 
             0x00002304: dc 02 00 00: 
             0x00002308: f8 8c 00 00: 
             0x0000230c: 00 00 00 00: 
             0x00002310: 00 00 00 00: 
             0x00002314: 42 09 00 00: 
             0x00002318: dc 02 00 00: 
             0x0000231c: b4 86 00 00: 
             0x00002320: 00 00 00 00: 
             0x00002324: 00 00 00 00: 
             0x00002328: 41 04 00 00: 
             0x0000232c: 04 03 00 00: 
             0x00002330: f1 02 00 00: 
             0x00002334: 00 00 00 00: 
             0x00002338: 00 00 00 00: 
             0x0000233c: c1 04 00 00: 
             0x00002340: 04 03 00 00: 
             0x00002344: f4 02 00 00: 
             0x00002348: 00 00 00 00: 
             0x0000234c: 00 00 00 00: 
             0x00002350: 01 05 00 00: 
             0x00002354: 04 03 00 00: 
             0x00002358: f7 02 00 00: 
             0x0000235c: 00 00 00 00: 
             0x00002360: 00 00 00 00: 
             0x00002364: 41 05 00 00: 
             0x00002368: 04 03 00 00: 
             0x0000236c: fa 02 00 00: 
             0x00002370: 00 00 00 00: 
             0x00002374: 00 00 00 00: 
             0x00002378: 41 04 00 00: 
             0x0000237c: 05 03 00 00: 
             0x00002380: 16 03 00 00: 
             0x00002384: 00 00 00 00: 
             0x00002388: 00 00 00 00: 
             0x0000238c: 41 05 00 00: 
             0x00002390: 05 03 00 00: 
             0x00002394: 17 03 00 00: 
             0x00002398: 00 00 00 00: 
             0x0000239c: 00 00 00 00: 
             0x000023a0: 01 05 00 00: 
             0x000023a4: 05 03 00 00: 
             0x000023a8: 18 03 00 00: 
             0x000023ac: 00 00 00 00: 
             0x000023b0: 00 00 00 00: 
             0x000023b4: c1 04 00 00: 
             0x000023b8: 05 03 00 00: 
             0x000023bc: 19 03 00 00: 
             0x000023c0: 00 00 00 00: 
             0x000023c4: 00 00 00 00: 
             0x000023c8: 41 04 00 00: 
             0x000023cc: 06 03 00 00: 
             0x000023d0: 07 03 00 00: 
             0x000023d4: 00 00 00 00: 
             0x000023d8: 00 00 00 00: 
             0x000023dc: 41 00 00 00: 
             0x000023e0: 06 03 00 00: 
             0x000023e4: 50 02 00 00: 
             0x000023e8: 00 00 00 00: 
             0x000023ec: 00 00 00 00: 
             0x000023f0: 42 09 00 00: 
             0x000023f4: 06 03 00 00: 
             0x000023f8: 96 8b 00 00: 
             0x000023fc: 00 00 00 00: 
             0x00002400: 00 00 00 00: 
             0x00002404: 41 00 00 00: 
             0x00002408: 07 03 00 00: 
             0x0000240c: 52 02 00 00: 
             0x00002410: 00 00 00 00: 
             0x00002414: 00 00 00 00: 
             0x00002418: 41 00 00 00: 
             0x0000241c: 1f 03 00 00: 
             0x00002420: 32 03 00 00: 
             0x00002424: 00 00 00 00: 
             0x00002428: 00 00 00 00: 
             0x0000242c: 41 00 00 00: 
             0x00002430: 22 03 00 00: 
             0x00002434: 35 03 00 00: 
             0x00002438: 00 00 00 00: 
             0x0000243c: 00 00 00 00: 
             0x00002440: 41 00 00 00: 
             0x00002444: 25 03 00 00: 
             0x00002448: 34 03 00 00: 
             0x0000244c: 00 00 00 00: 
             0x00002450: 00 00 00 00: 
             0x00002454: 41 00 00 00: 
             0x00002458: 28 03 00 00: 
             0x0000245c: 33 03 00 00: 
             0x00002460: 00 00 00 00: 
             0x00002464: 00 00 00 00: 
             0x00002468: 01 06 00 00: 
             0x0000246c: 29 03 00 00: 
             0x00002470: 47 04 00 00: 
             0x00002474: 00 00 00 00: 
             0x00002478: 00 00 00 00: 
             0x0000247c: c1 07 00 00: 
             0x00002480: 29 03 00 00: 
             0x00002484: 48 04 00 00: 
             0x00002488: 00 00 00 00: 
             0x0000248c: 00 00 00 00: 
             0x00002490: 41 04 00 00: 
             0x00002494: 29 03 00 00: 
             0x00002498: 1d 03 00 00: 
             0x0000249c: 00 00 00 00: 
             0x000024a0: 00 00 00 00: 
             0x000024a4: c1 04 00 00: 
             0x000024a8: 29 03 00 00: 
             0x000024ac: 20 03 00 00: 
             0x000024b0: 00 00 00 00: 
             0x000024b4: 00 00 00 00: 
             0x000024b8: 01 05 00 00: 
             0x000024bc: 29 03 00 00: 
             0x000024c0: 23 03 00 00: 
             0x000024c4: 00 00 00 00: 
             0x000024c8: 00 00 00 00: 
             0x000024cc: 41 05 00 00: 
             0x000024d0: 29 03 00 00: 
             0x000024d4: 26 03 00 00: 
             0x000024d8: 00 00 00 00: 
             0x000024dc: 00 00 00 00: 
             0x000024e0: 42 09 00 00: 
             0x000024e4: 29 03 00 00: 
             0x000024e8: 01 8d 00 00: 
             0x000024ec: 00 00 00 00: 
             0x000024f0: 00 00 00 00: 
             0x000024f4: 42 09 00 00: 
             0x000024f8: 29 03 00 00: 
             0x000024fc: 01 8d 00 00: 
             0x00002500: 00 00 00 00: 
             0x00002504: 00 00 00 00: 
             0x00002508: 42 09 00 00: 
             0x0000250c: 29 03 00 00: 
             0x00002510: 01 8d 00 00: 
             0x00002514: 00 00 00 00: 
             0x00002518: 00 00 00 00: 
             0x0000251c: 01 06 00 00: 
             0x00002520: 2a 03 00 00: 
             0x00002524: a3 04 00 00: 
             0x00002528: 00 00 00 00: 
             0x0000252c: 00 00 00 00: 
             0x00002530: c1 07 00 00: 
             0x00002534: 2a 03 00 00: 
             0x00002538: a4 04 00 00: 
             0x0000253c: 00 00 00 00: 
             0x00002540: 00 00 00 00: 
             0x00002544: 41 04 00 00: 
             0x00002548: 2a 03 00 00: 
             0x0000254c: 1e 03 00 00: 
             0x00002550: 00 00 00 00: 
             0x00002554: 00 00 00 00: 
             0x00002558: c1 04 00 00: 
             0x0000255c: 2a 03 00 00: 
             0x00002560: 21 03 00 00: 
             0x00002564: 00 00 00 00: 
             0x00002568: 00 00 00 00: 
             0x0000256c: 01 05 00 00: 
             0x00002570: 2a 03 00 00: 
             0x00002574: 24 03 00 00: 
             0x00002578: 00 00 00 00: 
             0x0000257c: 00 00 00 00: 
             0x00002580: 41 05 00 00: 
             0x00002584: 2a 03 00 00: 
             0x00002588: 27 03 00 00: 
             0x0000258c: 00 00 00 00: 
             0x00002590: 00 00 00 00: 
             0x00002594: 42 09 00 00: 
             0x00002598: 2a 03 00 00: 
             0x0000259c: 80 86 00 00: 
             0x000025a0: 00 00 00 00: 
             0x000025a4: 00 00 00 00: 
             0x000025a8: 42 09 00 00: 
             0x000025ac: 2a 03 00 00: 
             0x000025b0: 80 86 00 00: 
             0x000025b4: 00 00 00 00: 
             0x000025b8: 00 00 00 00: 
             0x000025bc: 42 09 00 00: 
             0x000025c0: 2a 03 00 00: 
             0x000025c4: 80 86 00 00: 
             0x000025c8: 00 00 00 00: 
             0x000025cc: 00 00 00 00: 
             0x000025d0: c1 07 00 00: 
             0x000025d4: 2b 03 00 00: 
             0x000025d8: aa 04 00 00: 
             0x000025dc: 00 00 00 00: 
             0x000025e0: 00 00 00 00: 
             0x000025e4: 41 04 00 00: 
             0x000025e8: 2b 03 00 00: 
             0x000025ec: 1f 03 00 00: 
             0x000025f0: 00 00 00 00: 
             0x000025f4: 00 00 00 00: 
             0x000025f8: 41 05 00 00: 
             0x000025fc: 2b 03 00 00: 
             0x00002600: 28 03 00 00: 
             0x00002604: 00 00 00 00: 
             0x00002608: 00 00 00 00: 
             0x0000260c: 01 05 00 00: 
             0x00002610: 2b 03 00 00: 
             0x00002614: 25 03 00 00: 
             0x00002618: 00 00 00 00: 
             0x0000261c: 00 00 00 00: 
             0x00002620: c1 04 00 00: 
             0x00002624: 2b 03 00 00: 
             0x00002628: 22 03 00 00: 
             0x0000262c: 00 00 00 00: 
             0x00002630: 00 00 00 00: 
             0x00002634: 42 09 00 00: 
             0x00002638: 2b 03 00 00: 
             0x0000263c: 80 86 00 00: 
             0x00002640: 00 00 00 00: 
             0x00002644: 00 00 00 00: 
             0x00002648: 42 09 00 00: 
             0x0000264c: 2b 03 00 00: 
             0x00002650: 80 86 00 00: 
             0x00002654: 00 00 00 00: 
             0x00002658: 00 00 00 00: 
             0x0000265c: 41 00 00 00: 
             0x00002660: 2e 03 00 00: 
             0x00002664: 32 03 00 00: 
             0x00002668: 00 00 00 00: 
             0x0000266c: 00 00 00 00: 
             0x00002670: 41 00 00 00: 
             0x00002674: 2f 03 00 00: 
             0x00002678: 33 03 00 00: 
             0x0000267c: 00 00 00 00: 
             0x00002680: 00 00 00 00: 
             0x00002684: 41 00 00 00: 
             0x00002688: 30 03 00 00: 
             0x0000268c: 34 03 00 00: 
             0x00002690: 00 00 00 00: 
             0x00002694: 00 00 00 00: 
             0x00002698: 41 00 00 00: 
             0x0000269c: 31 03 00 00: 
             0x000026a0: 35 03 00 00: 
             0x000026a4: 00 00 00 00: 
             0x000026a8: 00 00 00 00: 
             0x000026ac: 41 04 00 00: 
             0x000026b0: 36 03 00 00: 
             0x000026b4: 32 03 00 00: 
             0x000026b8: 00 00 00 00: 
             0x000026bc: 00 00 00 00: 
             0x000026c0: 41 05 00 00: 
             0x000026c4: 36 03 00 00: 
             0x000026c8: 33 03 00 00: 
             0x000026cc: 00 00 00 00: 
             0x000026d0: 00 00 00 00: 
             0x000026d4: 01 05 00 00: 
             0x000026d8: 36 03 00 00: 
             0x000026dc: 34 03 00 00: 
             0x000026e0: 00 00 00 00: 
             0x000026e4: 00 00 00 00: 
             0x000026e8: c1 04 00 00: 
             0x000026ec: 36 03 00 00: 
             0x000026f0: 35 03 00 00: 
             0x000026f4: 00 00 00 00: 
             0x000026f8: 00 00 00 00: 
             0x000026fc: 01 06 00 00: 
             0x00002700: 41 03 00 00: 
             0x00002704: 58 04 00 00: 
             0x00002708: 00 00 00 00: 
             0x0000270c: 00 00 00 00: 
             0x00002710: c1 07 00 00: 
             0x00002714: 41 03 00 00: 
             0x00002718: 59 04 00 00: 
             0x0000271c: 00 00 00 00: 
             0x00002720: 00 00 00 00: 
             0x00002724: 41 04 00 00: 
             0x00002728: 41 03 00 00: 
             0x0000272c: 3c 03 00 00: 
             0x00002730: 00 00 00 00: 
             0x00002734: 00 00 00 00: 
             0x00002738: c1 04 00 00: 
             0x0000273c: 41 03 00 00: 
             0x00002740: 3d 03 00 00: 
             0x00002744: 00 00 00 00: 
             0x00002748: 00 00 00 00: 
             0x0000274c: 01 05 00 00: 
             0x00002750: 41 03 00 00: 
             0x00002754: 3e 03 00 00: 
             0x00002758: 00 00 00 00: 
             0x0000275c: 00 00 00 00: 
             0x00002760: 41 05 00 00: 
             0x00002764: 41 03 00 00: 
             0x00002768: 3f 03 00 00: 
             0x0000276c: 00 00 00 00: 
             0x00002770: 00 00 00 00: 
             0x00002774: 42 09 00 00: 
             0x00002778: 41 03 00 00: 
             0x0000277c: 0f 8d 00 00: 
             0x00002780: 00 00 00 00: 
             0x00002784: 00 00 00 00: 
             0x00002788: 42 09 00 00: 
             0x0000278c: 41 03 00 00: 
             0x00002790: 0f 8d 00 00: 
             0x00002794: 00 00 00 00: 
             0x00002798: 00 00 00 00: 
             0x0000279c: 01 06 00 00: 
             0x000027a0: 48 03 00 00: 
             0x000027a4: 47 03 00 00: 
             0x000027a8: 00 00 00 00: 
             0x000027ac: 00 00 00 00: 
             0x000027b0: c1 07 00 00: 
             0x000027b4: 48 03 00 00: 
             0x000027b8: 49 03 00 00: 
             0x000027bc: 00 00 00 00: 
             0x000027c0: 00 00 00 00: 
             0x000027c4: 41 04 00 00: 
             0x000027c8: 48 03 00 00: 
             0x000027cc: 56 03 00 00: 
             0x000027d0: 00 00 00 00: 
             0x000027d4: 00 00 00 00: 
             0x000027d8: c1 04 00 00: 
             0x000027dc: 48 03 00 00: 
             0x000027e0: 5a 03 00 00: 
             0x000027e4: 00 00 00 00: 
             0x000027e8: 00 00 00 00: 
             0x000027ec: 01 05 00 00: 
             0x000027f0: 48 03 00 00: 
             0x000027f4: 5e 03 00 00: 
             0x000027f8: 00 00 00 00: 
             0x000027fc: 00 00 00 00: 
             0x00002800: 41 05 00 00: 
             0x00002804: 48 03 00 00: 
             0x00002808: 62 03 00 00: 
             0x0000280c: 00 00 00 00: 
             0x00002810: 00 00 00 00: 
             0x00002814: 42 09 00 00: 
             0x00002818: 48 03 00 00: 
             0x0000281c: 1e 8d 00 00: 
             0x00002820: 00 00 00 00: 
             0x00002824: 00 00 00 00: 
             0x00002828: 41 00 00 00: 
             0x0000282c: 67 03 00 00: 
             0x00002830: 02 05 00 00: 
             0x00002834: 00 00 00 00: 
             0x00002838: 00 00 00 00: 
             0x0000283c: 41 00 00 00: 
             0x00002840: 69 03 00 00: 
             0x00002844: 05 05 00 00: 
             0x00002848: 00 00 00 00: 
             0x0000284c: 00 00 00 00: 
             0x00002850: 41 00 00 00: 
             0x00002854: 6b 03 00 00: 
             0x00002858: 04 05 00 00: 
             0x0000285c: 00 00 00 00: 
             0x00002860: 00 00 00 00: 
             0x00002864: 41 00 00 00: 
             0x00002868: 6d 03 00 00: 
             0x0000286c: 03 05 00 00: 
             0x00002870: 00 00 00 00: 
             0x00002874: 00 00 00 00: 
             0x00002878: 41 04 00 00: 
             0x0000287c: 82 03 00 00: 
             0x00002880: 83 03 00 00: 
             0x00002884: 00 00 00 00: 
             0x00002888: 00 00 00 00: 
             0x0000288c: c1 04 00 00: 
             0x00002890: 82 03 00 00: 
             0x00002894: 86 03 00 00: 
             0x00002898: 00 00 00 00: 
             0x0000289c: 00 00 00 00: 
             0x000028a0: 01 05 00 00: 
             0x000028a4: 82 03 00 00: 
             0x000028a8: 89 03 00 00: 
             0x000028ac: 00 00 00 00: 
             0x000028b0: 00 00 00 00: 
             0x000028b4: 41 05 00 00: 
             0x000028b8: 82 03 00 00: 
             0x000028bc: 8c 03 00 00: 
             0x000028c0: 00 00 00 00: 
             0x000028c4: 00 00 00 00: 
             0x000028c8: 85 00 00 00: 
             0x000028cc: 85 03 00 00: 
             0x000028d0: ac 03 00 00: 
             0x000028d4: 9e 03 00 00: 
             0x000028d8: 00 00 00 00: 
             0x000028dc: 85 00 00 00: 
             0x000028e0: 87 03 00 00: 
             0x000028e4: ad 03 00 00: 
             0x000028e8: a1 03 00 00: 
             0x000028ec: 00 00 00 00: 
             0x000028f0: 85 00 00 00: 
             0x000028f4: 8a 03 00 00: 
             0x000028f8: ae 03 00 00: 
             0x000028fc: a4 03 00 00: 
             0x00002900: 00 00 00 00: 
             0x00002904: 85 00 00 00: 
             0x00002908: 8d 03 00 00: 
             0x0000290c: af 03 00 00: 
             0x00002910: a7 03 00 00: 
             0x00002914: 00 00 00 00: 
             0x00002918: 42 09 00 00: 
             0x0000291c: 8f 03 00 00: 
             0x00002920: c5 86 00 00: 
             0x00002924: 00 00 00 00: 
             0x00002928: 00 00 00 00: 
             0x0000292c: 42 09 00 00: 
             0x00002930: 90 03 00 00: 
             0x00002934: c5 86 00 00: 
             0x00002938: 00 00 00 00: 
             0x0000293c: 00 00 00 00: 
             0x00002940: 42 09 00 00: 
             0x00002944: 92 03 00 00: 
             0x00002948: 80 86 00 00: 
             0x0000294c: 00 00 00 00: 
             0x00002950: 00 00 00 00: 
             0x00002954: 41 04 00 00: 
             0x00002958: 93 03 00 00: 
             0x0000295c: 59 03 00 00: 
             0x00002960: 00 00 00 00: 
             0x00002964: 00 00 00 00: 
             0x00002968: 01 05 00 00: 
             0x0000296c: 93 03 00 00: 
             0x00002970: 60 03 00 00: 
             0x00002974: 00 00 00 00: 
             0x00002978: 00 00 00 00: 
             0x0000297c: c1 04 00 00: 
             0x00002980: 93 03 00 00: 
             0x00002984: 5c 03 00 00: 
             0x00002988: 00 00 00 00: 
             0x0000298c: 00 00 00 00: 
             0x00002990: 42 09 00 00: 
             0x00002994: 93 03 00 00: 
             0x00002998: 2f 8d 00 00: 
             0x0000299c: 00 00 00 00: 
             0x000029a0: 00 00 00 00: 
             0x000029a4: 41 04 00 00: 
             0x000029a8: 94 03 00 00: 
             0x000029ac: 58 03 00 00: 
             0x000029b0: 00 00 00 00: 
             0x000029b4: 00 00 00 00: 
             0x000029b8: 01 05 00 00: 
             0x000029bc: 94 03 00 00: 
             0x000029c0: 61 03 00 00: 
             0x000029c4: 00 00 00 00: 
             0x000029c8: 00 00 00 00: 
             0x000029cc: 41 05 00 00: 
             0x000029d0: 94 03 00 00: 
             0x000029d4: 65 03 00 00: 
             0x000029d8: 00 00 00 00: 
             0x000029dc: 00 00 00 00: 
             0x000029e0: c1 04 00 00: 
             0x000029e4: 94 03 00 00: 
             0x000029e8: 5d 03 00 00: 
             0x000029ec: 00 00 00 00: 
             0x000029f0: 00 00 00 00: 
             0x000029f4: 42 09 00 00: 
             0x000029f8: 94 03 00 00: 
             0x000029fc: 80 86 00 00: 
             0x00002a00: 00 00 00 00: 
             0x00002a04: 00 00 00 00: 
             0x00002a08: 09 04 00 00: 
             0x00002a0c: 95 03 00 00: 
             0x00002a10: f6 04 00 00: 
             0x00002a14: 38 8d 00 00: 
             0x00002a18: 00 00 00 00: 
             0x00002a1c: c1 07 00 00: 
             0x00002a20: 95 03 00 00: 
             0x00002a24: f7 04 00 00: 
             0x00002a28: 00 00 00 00: 
             0x00002a2c: 00 00 00 00: 
             0x00002a30: 41 04 00 00: 
             0x00002a34: 95 03 00 00: 
             0x00002a38: 57 03 00 00: 
             0x00002a3c: 00 00 00 00: 
             0x00002a40: 00 00 00 00: 
             0x00002a44: c1 04 00 00: 
             0x00002a48: 95 03 00 00: 
             0x00002a4c: 5b 03 00 00: 
             0x00002a50: 00 00 00 00: 
             0x00002a54: 00 00 00 00: 
             0x00002a58: 01 05 00 00: 
             0x00002a5c: 95 03 00 00: 
             0x00002a60: 5f 03 00 00: 
             0x00002a64: 00 00 00 00: 
             0x00002a68: 00 00 00 00: 
             0x00002a6c: 41 05 00 00: 
             0x00002a70: 95 03 00 00: 
             0x00002a74: 63 03 00 00: 
             0x00002a78: 00 00 00 00: 
             0x00002a7c: 00 00 00 00: 
             0x00002a80: 42 09 00 00: 
             0x00002a84: 95 03 00 00: 
             0x00002a88: b4 86 00 00: 
             0x00002a8c: 00 00 00 00: 
             0x00002a90: 00 00 00 00: 
             0x00002a94: 42 09 00 00: 
             0x00002a98: 95 03 00 00: 
             0x00002a9c: b4 86 00 00: 
             0x00002aa0: 00 00 00 00: 
             0x00002aa4: 00 00 00 00: 
             0x00002aa8: c1 07 00 00: 
             0x00002aac: 96 03 00 00: 
             0x00002ab0: 01 05 00 00: 
             0x00002ab4: 00 00 00 00: 
             0x00002ab8: 00 00 00 00: 
             0x00002abc: 41 04 00 00: 
             0x00002ac0: 96 03 00 00: 
             0x00002ac4: 67 03 00 00: 
             0x00002ac8: 00 00 00 00: 
             0x00002acc: 00 00 00 00: 
             0x00002ad0: 41 05 00 00: 
             0x00002ad4: 96 03 00 00: 
             0x00002ad8: 6d 03 00 00: 
             0x00002adc: 00 00 00 00: 
             0x00002ae0: 00 00 00 00: 
             0x00002ae4: 01 05 00 00: 
             0x00002ae8: 96 03 00 00: 
             0x00002aec: 6b 03 00 00: 
             0x00002af0: 00 00 00 00: 
             0x00002af4: 00 00 00 00: 
             0x00002af8: c1 04 00 00: 
             0x00002afc: 96 03 00 00: 
             0x00002b00: 69 03 00 00: 
             0x00002b04: 00 00 00 00: 
             0x00002b08: 00 00 00 00: 
             0x00002b0c: 42 09 00 00: 
             0x00002b10: 96 03 00 00: 
             0x00002b14: 5c 87 00 00: 
             0x00002b18: 00 00 00 00: 
             0x00002b1c: 00 00 00 00: 
             0x00002b20: 42 09 00 00: 
             0x00002b24: 96 03 00 00: 
             0x00002b28: 5c 87 00 00: 
             0x00002b2c: 00 00 00 00: 
             0x00002b30: 00 00 00 00: 
             0x00002b34: 41 04 00 00: 
             0x00002b38: 97 03 00 00: 
             0x00002b3c: 85 03 00 00: 
             0x00002b40: 00 00 00 00: 
             0x00002b44: 00 00 00 00: 
             0x00002b48: c1 04 00 00: 
             0x00002b4c: 97 03 00 00: 
             0x00002b50: 87 03 00 00: 
             0x00002b54: 00 00 00 00: 
             0x00002b58: 00 00 00 00: 
             0x00002b5c: 01 05 00 00: 
             0x00002b60: 97 03 00 00: 
             0x00002b64: 8a 03 00 00: 
             0x00002b68: 00 00 00 00: 
             0x00002b6c: 00 00 00 00: 
             0x00002b70: 41 05 00 00: 
             0x00002b74: 97 03 00 00: 
             0x00002b78: 8d 03 00 00: 
             0x00002b7c: 00 00 00 00: 
             0x00002b80: 00 00 00 00: 
             0x00002b84: 42 09 00 00: 
             0x00002b88: 97 03 00 00: 
             0x00002b8c: 5f 8d 00 00: 
             0x00002b90: 00 00 00 00: 
             0x00002b94: 00 00 00 00: 
             0x00002b98: 42 09 00 00: 
             0x00002b9c: 97 03 00 00: 
             0x00002ba0: 5f 8d 00 00: 
             0x00002ba4: 00 00 00 00: 
             0x00002ba8: 00 00 00 00: 
             0x00002bac: 42 09 00 00: 
             0x00002bb0: 98 03 00 00: 
             0x00002bb4: c5 86 00 00: 
             0x00002bb8: 00 00 00 00: 
             0x00002bbc: 00 00 00 00: 
             0x00002bc0: 42 09 00 00: 
             0x00002bc4: 98 03 00 00: 
             0x00002bc8: 6f 8d 00 00: 
             0x00002bcc: 00 00 00 00: 
             0x00002bd0: 00 00 00 00: 
             0x00002bd4: 85 00 00 00: 
             0x00002bd8: 9c 03 00 00: 
             0x00002bdc: 9d 03 00 00: 
             0x00002be0: 9e 03 00 00: 
             0x00002be4: 00 00 00 00: 
             0x00002be8: 85 00 00 00: 
             0x00002bec: 9f 03 00 00: 
             0x00002bf0: a0 03 00 00: 
             0x00002bf4: a1 03 00 00: 
             0x00002bf8: 00 00 00 00: 
             0x00002bfc: 85 00 00 00: 
             0x00002c00: a2 03 00 00: 
             0x00002c04: a3 03 00 00: 
             0x00002c08: a4 03 00 00: 
             0x00002c0c: 00 00 00 00: 
             0x00002c10: 85 00 00 00: 
             0x00002c14: a5 03 00 00: 
             0x00002c18: a6 03 00 00: 
             0x00002c1c: a7 03 00 00: 
             0x00002c20: 00 00 00 00: 
             0x00002c24: 85 00 00 00: 
             0x00002c28: a8 03 00 00: 
             0x00002c2c: 9d 03 00 00: 
             0x00002c30: 9e 03 00 00: 
             0x00002c34: 00 00 00 00: 
             0x00002c38: 85 00 00 00: 
             0x00002c3c: a9 03 00 00: 
             0x00002c40: a0 03 00 00: 
             0x00002c44: a1 03 00 00: 
             0x00002c48: 00 00 00 00: 
             0x00002c4c: 85 00 00 00: 
             0x00002c50: aa 03 00 00: 
             0x00002c54: a3 03 00 00: 
             0x00002c58: a4 03 00 00: 
             0x00002c5c: 00 00 00 00: 
             0x00002c60: 85 00 00 00: 
             0x00002c64: ab 03 00 00: 
             0x00002c68: a6 03 00 00: 
             0x00002c6c: a7 03 00 00: 
             0x00002c70: 00 00 00 00: 
             0x00002c74: 85 00 00 00: 
             0x00002c78: b0 03 00 00: 
             0x00002c7c: ac 03 00 00: 
             0x00002c80: 9e 03 00 00: 
             0x00002c84: 00 00 00 00: 
             0x00002c88: 85 00 00 00: 
             0x00002c8c: b1 03 00 00: 
             0x00002c90: ad 03 00 00: 
             0x00002c94: a1 03 00 00: 
             0x00002c98: 00 00 00 00: 
             0x00002c9c: 85 00 00 00: 
             0x00002ca0: b2 03 00 00: 
             0x00002ca4: ae 03 00 00: 
             0x00002ca8: a4 03 00 00: 
             0x00002cac: 00 00 00 00: 
             0x00002cb0: 41 04 00 00: 
             0x00002cb4: b4 03 00 00: 
             0x00002cb8: ac 03 00 00: 
             0x00002cbc: 00 00 00 00: 
             0x00002cc0: 00 00 00 00: 
             0x00002cc4: c1 04 00 00: 
             0x00002cc8: b4 03 00 00: 
             0x00002ccc: ad 03 00 00: 
             0x00002cd0: 00 00 00 00: 
             0x00002cd4: 00 00 00 00: 
             0x00002cd8: 01 05 00 00: 
             0x00002cdc: b4 03 00 00: 
             0x00002ce0: ae 03 00 00: 
             0x00002ce4: 00 00 00 00: 
             0x00002ce8: 00 00 00 00: 
             0x00002cec: 41 05 00 00: 
             0x00002cf0: b4 03 00 00: 
             0x00002cf4: af 03 00 00: 
             0x00002cf8: 00 00 00 00: 
             0x00002cfc: 00 00 00 00: 
             0x00002d00: c1 07 00 00: 
             0x00002d04: bf 03 00 00: 
             0x00002d08: dd 03 00 00: 
             0x00002d0c: 00 00 00 00: 
             0x00002d10: 00 00 00 00: 
             0x00002d14: c9 03 00 00: 
             0x00002d18: c0 03 00 00: 
             0x00002d1c: c1 03 00 00: 
             0x00002d20: 72 8d 00 00: 
             0x00002d24: 00 00 00 00: 
             0x00002d28: 01 03 00 00: 
             0x00002d2c: c0 03 00 00: 
             0x00002d30: bf 03 00 00: 
             0x00002d34: 00 00 00 00: 
             0x00002d38: 00 00 00 00: 
             0x00002d3c: 01 03 00 00: 
             0x00002d40: c0 03 00 00: 
             0x00002d44: 9d 00 00 00: 
             0x00002d48: 00 00 00 00: 
             0x00002d4c: 00 00 00 00: 
             0x00002d50: 01 06 00 00: 
             0x00002d54: c0 03 00 00: 
             0x00002d58: c9 03 00 00: 
             0x00002d5c: 00 00 00 00: 
             0x00002d60: 00 00 00 00: 
             0x00002d64: c1 07 00 00: 
             0x00002d68: c0 03 00 00: 
             0x00002d6c: de 03 00 00: 
             0x00002d70: 00 00 00 00: 
             0x00002d74: 00 00 00 00: 
             0x00002d78: 01 03 00 00: 
             0x00002d7c: c2 03 00 00: 
             0x00002d80: c0 03 00 00: 
             0x00002d84: 00 00 00 00: 
             0x00002d88: 00 00 00 00: 
             0x00002d8c: 01 03 00 00: 
             0x00002d90: c2 03 00 00: 
             0x00002d94: c6 03 00 00: 
             0x00002d98: 00 00 00 00: 
             0x00002d9c: 00 00 00 00: 
             0x00002da0: 01 06 00 00: 
             0x00002da4: c2 03 00 00: 
             0x00002da8: ca 03 00 00: 
             0x00002dac: 00 00 00 00: 
             0x00002db0: 00 00 00 00: 
             0x00002db4: c1 07 00 00: 
             0x00002db8: c2 03 00 00: 
             0x00002dbc: df 03 00 00: 
             0x00002dc0: 00 00 00 00: 
             0x00002dc4: 00 00 00 00: 
             0x00002dc8: c9 03 00 00: 
             0x00002dcc: c4 03 00 00: 
             0x00002dd0: c1 03 00 00: 
             0x00002dd4: 9c 8d 00 00: 
             0x00002dd8: 00 00 00 00: 
             0x00002ddc: 01 03 00 00: 
             0x00002de0: c4 03 00 00: 
             0x00002de4: bf 03 00 00: 
             0x00002de8: 00 00 00 00: 
             0x00002dec: 00 00 00 00: 
             0x00002df0: 01 03 00 00: 
             0x00002df4: c4 03 00 00: 
             0x00002df8: 9d 00 00 00: 
             0x00002dfc: 00 00 00 00: 
             0x00002e00: 00 00 00 00: 
             0x00002e04: 01 06 00 00: 
             0x00002e08: c4 03 00 00: 
             0x00002e0c: cf 03 00 00: 
             0x00002e10: 00 00 00 00: 
             0x00002e14: 00 00 00 00: 
             0x00002e18: c1 07 00 00: 
             0x00002e1c: c4 03 00 00: 
             0x00002e20: e4 03 00 00: 
             0x00002e24: 00 00 00 00: 
             0x00002e28: 00 00 00 00: 
             0x00002e2c: 01 03 00 00: 
             0x00002e30: c5 03 00 00: 
             0x00002e34: c4 03 00 00: 
             0x00002e38: 00 00 00 00: 
             0x00002e3c: 00 00 00 00: 
             0x00002e40: 01 03 00 00: 
             0x00002e44: c5 03 00 00: 
             0x00002e48: c6 03 00 00: 
             0x00002e4c: 00 00 00 00: 
             0x00002e50: 00 00 00 00: 
             0x00002e54: 01 06 00 00: 
             0x00002e58: c5 03 00 00: 
             0x00002e5c: d0 03 00 00: 
             0x00002e60: 00 00 00 00: 
             0x00002e64: 00 00 00 00: 
             0x00002e68: c1 07 00 00: 
             0x00002e6c: c5 03 00 00: 
             0x00002e70: e5 03 00 00: 
             0x00002e74: 00 00 00 00: 
             0x00002e78: 00 00 00 00: 
             0x00002e7c: 01 03 00 00: 
             0x00002e80: c6 03 00 00: 
             0x00002e84: 9d 00 00 00: 
             0x00002e88: 00 00 00 00: 
             0x00002e8c: 00 00 00 00: 
             0x00002e90: 01 06 00 00: 
             0x00002e94: c6 03 00 00: 
             0x00002e98: c7 03 00 00: 
             0x00002e9c: 00 00 00 00: 
             0x00002ea0: 00 00 00 00: 
             0x00002ea4: c1 07 00 00: 
             0x00002ea8: c6 03 00 00: 
             0x00002eac: db 03 00 00: 
             0x00002eb0: 00 00 00 00: 
             0x00002eb4: 00 00 00 00: 
             0x00002eb8: 41 04 00 00: 
             0x00002ebc: c6 03 00 00: 
             0x00002ec0: f0 03 00 00: 
             0x00002ec4: 00 00 00 00: 
             0x00002ec8: 00 00 00 00: 
             0x00002ecc: c1 04 00 00: 
             0x00002ed0: c6 03 00 00: 
             0x00002ed4: f1 03 00 00: 
             0x00002ed8: 00 00 00 00: 
             0x00002edc: 00 00 00 00: 
             0x00002ee0: 01 05 00 00: 
             0x00002ee4: c6 03 00 00: 
             0x00002ee8: f2 03 00 00: 
             0x00002eec: 00 00 00 00: 
             0x00002ef0: 00 00 00 00: 
             0x00002ef4: 41 05 00 00: 
             0x00002ef8: c6 03 00 00: 
             0x00002efc: f3 03 00 00: 
             0x00002f00: 00 00 00 00: 
             0x00002f04: 00 00 00 00: 
             0x00002f08: 42 09 00 00: 
             0x00002f0c: c6 03 00 00: 
             0x00002f10: c6 8d 00 00: 
             0x00002f14: 00 00 00 00: 
             0x00002f18: 00 00 00 00: 
             0x00002f1c: 41 04 00 00: 
             0x00002f20: 30 04 00 00: 
             0x00002f24: 31 04 00 00: 
             0x00002f28: 00 00 00 00: 
             0x00002f2c: 00 00 00 00: 
             0x00002f30: c1 04 00 00: 
             0x00002f34: 30 04 00 00: 
             0x00002f38: 32 04 00 00: 
             0x00002f3c: 00 00 00 00: 
             0x00002f40: 00 00 00 00: 
             0x00002f44: 01 05 00 00: 
             0x00002f48: 30 04 00 00: 
             0x00002f4c: 33 04 00 00: 
             0x00002f50: 00 00 00 00: 
             0x00002f54: 00 00 00 00: 
             0x00002f58: 41 05 00 00: 
             0x00002f5c: 30 04 00 00: 
             0x00002f60: 34 04 00 00: 
             0x00002f64: 00 00 00 00: 
             0x00002f68: 00 00 00 00: 
             0x00002f6c: 41 04 00 00: 
             0x00002f70: 35 04 00 00: 
             0x00002f74: f9 03 00 00: 
             0x00002f78: 00 00 00 00: 
             0x00002f7c: 00 00 00 00: 
             0x00002f80: c1 04 00 00: 
             0x00002f84: 35 04 00 00: 
             0x00002f88: fb 03 00 00: 
             0x00002f8c: 00 00 00 00: 
             0x00002f90: 00 00 00 00: 
             0x00002f94: 01 05 00 00: 
             0x00002f98: 35 04 00 00: 
             0x00002f9c: fd 03 00 00: 
             0x00002fa0: 00 00 00 00: 
             0x00002fa4: 00 00 00 00: 
             0x00002fa8: 41 05 00 00: 
             0x00002fac: 35 04 00 00: 
             0x00002fb0: ff 03 00 00: 
             0x00002fb4: 00 00 00 00: 
             0x00002fb8: 00 00 00 00: 
             0x00002fbc: 41 04 00 00: 
             0x00002fc0: 3a 04 00 00: 
             0x00002fc4: 3b 04 00 00: 
             0x00002fc8: 00 00 00 00: 
             0x00002fcc: 00 00 00 00: 
             0x00002fd0: 41 00 00 00: 
             0x00002fd4: 3a 04 00 00: 
             0x00002fd8: 9d 00 00 00: 
             0x00002fdc: 00 00 00 00: 
             0x00002fe0: 00 00 00 00: 
             0x00002fe4: 42 09 00 00: 
             0x00002fe8: 3a 04 00 00: 
             0x00002fec: d6 89 00 00: 
             0x00002ff0: 00 00 00 00: 
             0x00002ff4: 00 00 00 00: 
             0x00002ff8: 41 00 00 00: 
             0x00002ffc: 3b 04 00 00: 
             0x00003000: 66 03 00 00: 
             0x00003004: 00 00 00 00: 
             0x00003008: 00 00 00 00: 
             0x0000300c: 01 06 00 00: 
             0x00003010: 45 04 00 00: 
             0x00003014: 44 04 00 00: 
             0x00003018: 00 00 00 00: 
             0x0000301c: 00 00 00 00: 
             0x00003020: c1 07 00 00: 
             0x00003024: 45 04 00 00: 
             0x00003028: 46 04 00 00: 
             0x0000302c: 00 00 00 00: 
             0x00003030: 00 00 00 00: 
             0x00003034: 41 04 00 00: 
             0x00003038: 45 04 00 00: 
             0x0000303c: 49 04 00 00: 
             0x00003040: 00 00 00 00: 
             0x00003044: 00 00 00 00: 
             0x00003048: c1 04 00 00: 
             0x0000304c: 45 04 00 00: 
             0x00003050: 4a 04 00 00: 
             0x00003054: 00 00 00 00: 
             0x00003058: 00 00 00 00: 
             0x0000305c: 01 05 00 00: 
             0x00003060: 45 04 00 00: 
             0x00003064: 4b 04 00 00: 
             0x00003068: 00 00 00 00: 
             0x0000306c: 00 00 00 00: 
             0x00003070: 41 05 00 00: 
             0x00003074: 45 04 00 00: 
             0x00003078: 4c 04 00 00: 
             0x0000307c: 00 00 00 00: 
             0x00003080: 00 00 00 00: 
             0x00003084: 42 09 00 00: 
             0x00003088: 45 04 00 00: 
             0x0000308c: 01 8d 00 00: 
             0x00003090: 00 00 00 00: 
             0x00003094: 00 00 00 00: 
             0x00003098: 42 09 00 00: 
             0x0000309c: 92 04 00 00: 
             0x000030a0: c5 86 00 00: 
             0x000030a4: 00 00 00 00: 
             0x000030a8: 00 00 00 00: 
             0x000030ac: 01 06 00 00: 
             0x000030b0: a1 04 00 00: 
             0x000030b4: a0 04 00 00: 
             0x000030b8: 00 00 00 00: 
             0x000030bc: 00 00 00 00: 
             0x000030c0: c1 07 00 00: 
             0x000030c4: a1 04 00 00: 
             0x000030c8: a2 04 00 00: 
             0x000030cc: 00 00 00 00: 
             0x000030d0: 00 00 00 00: 
             0x000030d4: 41 04 00 00: 
             0x000030d8: a1 04 00 00: 
             0x000030dc: a5 04 00 00: 
             0x000030e0: 00 00 00 00: 
             0x000030e4: 00 00 00 00: 
             0x000030e8: c1 04 00 00: 
             0x000030ec: a1 04 00 00: 
             0x000030f0: a6 04 00 00: 
             0x000030f4: 00 00 00 00: 
             0x000030f8: 00 00 00 00: 
             0x000030fc: 01 05 00 00: 
             0x00003100: a1 04 00 00: 
             0x00003104: a7 04 00 00: 
             0x00003108: 00 00 00 00: 
             0x0000310c: 00 00 00 00: 
             0x00003110: 41 05 00 00: 
             0x00003114: a1 04 00 00: 
             0x00003118: a8 04 00 00: 
             0x0000311c: 00 00 00 00: 
             0x00003120: 00 00 00 00: 
             0x00003124: 42 09 00 00: 
             0x00003128: a1 04 00 00: 
             0x0000312c: 80 86 00 00: 
             0x00003130: 00 00 00 00: 
             0x00003134: 00 00 00 00: 
             0x00003138: 42 09 00 00: 
             0x0000313c: f6 04 00 00: 
             0x00003140: d0 8d 00 00: 
             0x00003144: 00 00 00 00: 
             0x00003148: 00 00 00 00: 
             0x0000314c: 41 04 00 00: 
             0x00003150: f8 04 00 00: 
             0x00003154: f9 04 00 00: 
             0x00003158: 00 00 00 00: 
             0x0000315c: 00 00 00 00: 
             0x00003160: c1 04 00 00: 
             0x00003164: f8 04 00 00: 
             0x00003168: fa 04 00 00: 
             0x0000316c: 00 00 00 00: 
             0x00003170: 00 00 00 00: 
             0x00003174: 41 05 00 00: 
             0x00003178: f8 04 00 00: 
             0x0000317c: fb 04 00 00: 
             0x00003180: 00 00 00 00: 
             0x00003184: 00 00 00 00: 
             0x00003188: 41 04 00 00: 
             0x0000318c: fc 04 00 00: 
             0x00003190: fd 04 00 00: 
             0x00003194: 00 00 00 00: 
             0x00003198: 00 00 00 00: 
             0x0000319c: c1 04 00 00: 
             0x000031a0: fc 04 00 00: 
             0x000031a4: fe 04 00 00: 
             0x000031a8: 00 00 00 00: 
             0x000031ac: 00 00 00 00: 
             0x000031b0: 41 05 00 00: 
             0x000031b4: fc 04 00 00: 
             0x000031b8: ff 04 00 00: 
             0x000031bc: 00 00 00 00: 
             0x000031c0: 00 00 00 00: 
             0x000031c4: 85 00 00 00: 
             0x000031c8: 03 05 00 00: 
             0x000031cc: 33 03 00 00: 
             0x000031d0: 0e 05 00 00: 
             0x000031d4: 00 00 00 00: 
             0x000031d8: 85 00 00 00: 
             0x000031dc: 04 05 00 00: 
             0x000031e0: 34 03 00 00: 
             0x000031e4: 0f 05 00 00: 
             0x000031e8: 00 00 00 00: 
             0x000031ec: 85 00 00 00: 
             0x000031f0: 05 05 00 00: 
             0x000031f4: 35 03 00 00: 
             0x000031f8: 10 05 00 00: 
             0x000031fc: 00 00 00 00: 
             0x00003200: 41 04 00 00: 
             0x00003204: 06 05 00 00: 
             0x00003208: 02 05 00 00: 
             0x0000320c: 00 00 00 00: 
             0x00003210: 00 00 00 00: 
             0x00003214: 41 05 00 00: 
             0x00003218: 06 05 00 00: 
             0x0000321c: 03 05 00 00: 
             0x00003220: 00 00 00 00: 
             0x00003224: 00 00 00 00: 
             0x00003228: 01 05 00 00: 
             0x0000322c: 06 05 00 00: 
             0x00003230: 04 05 00 00: 
             0x00003234: 00 00 00 00: 
             0x00003238: 00 00 00 00: 
             0x0000323c: c1 04 00 00: 
             0x00003240: 06 05 00 00: 
             0x00003244: 05 05 00 00: 
             0x00003248: 00 00 00 00: 
             0x0000324c: 00 00 00 00: 
             0x00003250: 42 09 00 00: 
             0x00003254: 08 05 00 00: 
             0x00003258: c5 86 00 00: 
             0x0000325c: 00 00 00 00: 
             0x00003260: 00 00 00 00: 
             0x00003264: 01 06 00 00: 
             0x00003268: 11 05 00 00: 
             0x0000326c: 13 05 00 00: 
             0x00003270: 00 00 00 00: 
             0x00003274: 00 00 00 00: 
             0x00003278: c1 07 00 00: 
             0x0000327c: 11 05 00 00: 
             0x00003280: 14 05 00 00: 
             0x00003284: 00 00 00 00: 
             0x00003288: 00 00 00 00: 
             0x0000328c: 41 04 00 00: 
             0x00003290: 11 05 00 00: 
             0x00003294: 0d 05 00 00: 
             0x00003298: 00 00 00 00: 
             0x0000329c: 00 00 00 00: 
             0x000032a0: c1 04 00 00: 
             0x000032a4: 11 05 00 00: 
             0x000032a8: 10 05 00 00: 
             0x000032ac: 00 00 00 00: 
             0x000032b0: 00 00 00 00: 
             0x000032b4: 01 05 00 00: 
             0x000032b8: 11 05 00 00: 
             0x000032bc: 0f 05 00 00: 
             0x000032c0: 00 00 00 00: 
             0x000032c4: 00 00 00 00: 
             0x000032c8: 41 05 00 00: 
             0x000032cc: 11 05 00 00: 
             0x000032d0: 0e 05 00 00: 
             0x000032d4: 00 00 00 00: 
             0x000032d8: 00 00 00 00: 
             0x000032dc: 42 09 00 00: 
             0x000032e0: 11 05 00 00: 
             0x000032e4: d2 8d 00 00: 
             0x000032e8: 00 00 00 00: 
             0x000032ec: 00 00 00 00: 

Disassembly of section .symtab (size: 21216)

.label70     0x00000000: 00 00 00 00: 
             0x00000004: 00 00 00 00: 
             0x00000008: 00 00 00 00: 
             0x0000000c: 00 00 00 00: 
             0x00000010: 00 00 00 00: 
             0x00000014: 00 00 00 00: 
             0x00000018: 00 00 00 00: 
             0x0000001c: 04 00 f1 ff: 
             0x00000020: 1f 01 00 00: 
             0x00000024: f0 0f 01 00: 
             0x00000028: 00 00 00 00: 
             0x0000002c: 10 00 02 00: 
             0x00000030: 23 01 00 00: 
             0x00000034: 80 10 01 00: 
             0x00000038: 00 00 00 00: 
             0x0000003c: 10 00 06 00: 
             0x00000040: 27 01 00 00: 
             0x00000044: 28 10 01 00: 
             0x00000048: 00 00 00 00: 
             0x0000004c: 10 00 01 00: 
             0x00000050: 2d 01 00 00: 
             0x00000054: 14 12 01 00: 
             0x00000058: 00 00 00 00: 
             0x0000005c: 10 00 05 00: 
             0x00000060: 36 01 00 00: 
             0x00000064: 1c 10 01 00: 
             0x00000068: 00 00 00 00: 
             0x0000006c: 10 00 04 00: 
             0x00000070: 42 01 00 00: 
             0x00000074: 24 10 01 00: 
             0x00000078: 00 00 00 00: 
             0x0000007c: 10 00 08 00: 
             0x00000080: 4e 01 00 00: 
             0x00000084: 00 e1 f5 05: 
             0x00000088: 00 00 00 00: 
             0x0000008c: 10 00 f1 ff: 
             0x00000090: 5c 01 00 00: 
             0x00000094: 06 00 00 00: 
             0x00000098: 00 00 00 00: 
             0x0000009c: 10 00 f1 ff: 
             0x000000a0: 6c 01 00 00: 
             0x000000a4: 00 00 00 00: 
             0x000000a8: 00 00 00 00: 
             0x000000ac: 10 00 f1 ff: 
             0x000000b0: 83 01 00 00: 
             0x000000b4: 00 00 00 00: 
             0x000000b8: 00 00 00 00: 
             0x000000bc: 04 00 f1 ff: 
             0x000000c0: 8a 01 00 00: 
             0x000000c4: c0 3b 01 00: 
             0x000000c8: 00 00 00 00: 
             0x000000cc: 10 00 f1 ff: 
             0x000000d0: 91 01 00 00: 
             0x000000d4: 70 12 01 00: 
             0x000000d8: 00 00 00 00: 
             0x000000dc: 10 00 f1 ff: 
             0x000000e0: 98 01 00 00: 
             0x000000e4: 01 00 00 00: 
             0x000000e8: 00 00 00 00: 
             0x000000ec: 00 00 f1 ff: 
             0x000000f0: b1 01 00 00: 
             0x000000f4: cf 30 00 00: 
             0x000000f8: 00 00 00 00: 
             0x000000fc: 10 00 f1 ff: 
             0x00000100: c2 01 00 00: 
             0x00000104: 00 00 01 00: 
             0x00000108: 00 00 00 00: 
             0x0000010c: 12 00 0d 00: 
             0x00000110: c9 01 00 00: 
             0x00000114: 00 00 01 00: 
             0x00000118: 00 00 00 00: 
             0x0000011c: 10 00 f1 ff: 
             0x00000120: d3 01 00 00: 
             0x00000124: 70 12 01 00: 
             0x00000128: 00 00 00 00: 
             0x0000012c: 10 00 05 00: 
             0x00000130: dc 01 00 00: 
             0x00000134: a4 00 01 00: 
             0x00000138: 00 00 00 00: 
             0x0000013c: 02 00 0d 00: 
             0x00000140: e8 01 00 00: 
             0x00000144: 30 00 01 00: 
             0x00000148: 00 00 00 00: 
             0x0000014c: 02 00 0d 00: 
             0x00000150: f3 01 00 00: 
             0x00000154: 6c 00 01 00: 
             0x00000158: 00 00 00 00: 
             0x0000015c: 02 00 0d 00: 
             0x00000160: ff 01 00 00: 
             0x00000164: 8a 00 01 00: 
             0x00000168: 00 00 00 00: 
             0x0000016c: 02 00 0d 00: 
             0x00000170: 0f 02 00 00: 
             0x00000174: 2a 0f 01 00: 
             0x00000178: 00 00 00 00: 
             0x0000017c: 12 00 0b 00: 
             0x00000180: 15 02 00 00: 
             0x00000184: 12 01 01 00: 
             0x00000188: 30 00 00 00: 
             0x0000018c: 12 00 0d 00: 
             0x00000190: 1a 02 00 00: 
             0x00000194: 10 0b 01 00: 
             0x00000198: 16 00 00 00: 
             0x0000019c: 12 00 0d 00: 
             0x000001a0: 26 02 00 00: 
             0x000001a4: 34 0b 01 00: 
             0x000001a8: 1c 00 00 00: 
             0x000001ac: 12 00 0d 00: 
             0x000001b0: 35 02 00 00: 
             0x000001b4: cf 30 00 00: 
             0x000001b8: 00 00 00 00: 
             0x000001bc: 10 00 f1 ff: 
             0x000001c0: 48 02 00 00: 
             0x000001c4: 01 00 00 00: 
             0x000001c8: 00 00 00 00: 
             0x000001cc: 10 00 f1 ff: 
             0x000001d0: 58 02 00 00: 
             0x000001d4: 00 00 00 00: 
             0x000001d8: 00 00 00 00: 
             0x000001dc: 10 00 f1 ff: 
             0x000001e0: 69 02 00 00: 
             0x000001e4: 01 00 00 00: 
             0x000001e8: 00 00 00 00: 
             0x000001ec: 10 00 f1 ff: 
             0x000001f0: 7c 02 00 00: 
             0x000001f4: 00 00 00 00: 
             0x000001f8: 00 00 00 00: 
             0x000001fc: 00 00 f1 ff: 
             0x00000200: 94 02 00 00: 
             0x00000204: 00 00 00 00: 
             0x00000208: 00 00 00 00: 
             0x0000020c: 00 00 f1 ff: 
             0x00000210: ab 02 00 00: 
             0x00000214: 00 00 00 00: 
             0x00000218: 00 00 00 00: 
             0x0000021c: 00 00 f1 ff: 
             0x00000220: c3 02 00 00: 
             0x00000224: 00 00 00 00: 
             0x00000228: 00 00 00 00: 
             0x0000022c: 00 00 f1 ff: 
             0x00000230: df 02 00 00: 
             0x00000234: 32 00 00 00: 
             0x00000238: 00 00 00 00: 
             0x0000023c: 00 00 f1 ff: 
             0x00000240: f1 02 00 00: 
             0x00000244: 33 00 00 00: 
             0x00000248: 00 00 00 00: 
             0x0000024c: 10 00 f1 ff: 
             0x00000250: 09 03 00 00: 
             0x00000254: 34 00 00 00: 
             0x00000258: 00 00 00 00: 
             0x0000025c: 10 00 f1 ff: 
             0x00000260: 24 03 00 00: 
             0x00000264: 01 00 00 00: 
             0x00000268: 00 00 00 00: 
             0x0000026c: 00 00 f1 ff: 
             0x00000270: 39 03 00 00: 
             0x00000274: 01 00 00 00: 
             0x00000278: 00 00 00 00: 
             0x0000027c: 00 00 f1 ff: 
             0x00000280: 4d 03 00 00: 
             0x00000284: 01 00 00 00: 
             0x00000288: 00 00 00 00: 
             0x0000028c: 00 00 f1 ff: 
             0x00000290: 62 03 00 00: 
             0x00000294: 01 00 00 00: 
             0x00000298: 00 00 00 00: 
             0x0000029c: 00 00 f1 ff: 
             0x000002a0: 7b 03 00 00: 
             0x000002a4: 01 00 00 00: 
             0x000002a8: 00 00 00 00: 
             0x000002ac: 00 00 f1 ff: 
             0x000002b0: 8a 03 00 00: 
             0x000002b4: 01 00 00 00: 
             0x000002b8: 00 00 00 00: 
             0x000002bc: 10 00 f1 ff: 
             0x000002c0: 98 03 00 00: 
             0x000002c4: 01 00 00 00: 
             0x000002c8: 00 00 00 00: 
             0x000002cc: 10 00 f1 ff: 
             0x000002d0: ad 03 00 00: 
             0x000002d4: 01 00 00 00: 
             0x000002d8: 00 00 00 00: 
             0x000002dc: 10 00 f1 ff: 
             0x000002e0: c5 03 00 00: 
             0x000002e4: 00 00 00 00: 
             0x000002e8: 00 00 00 00: 
             0x000002ec: 00 00 f1 ff: 
             0x000002f0: db 03 00 00: 
             0x000002f4: 00 00 00 00: 
             0x000002f8: 00 00 00 00: 
             0x000002fc: 00 00 f1 ff: 
             0x00000300: f0 03 00 00: 
             0x00000304: 00 00 00 00: 
             0x00000308: 00 00 00 00: 
             0x0000030c: 00 00 f1 ff: 
             0x00000310: 06 04 00 00: 
             0x00000314: 00 00 00 00: 
             0x00000318: 00 00 00 00: 
             0x0000031c: 00 00 f1 ff: 
             0x00000320: 20 04 00 00: 
             0x00000324: 00 00 00 00: 
             0x00000328: 00 00 00 00: 
             0x0000032c: 00 00 f1 ff: 
             0x00000330: 30 04 00 00: 
             0x00000334: 00 00 00 00: 
             0x00000338: 00 00 00 00: 
             0x0000033c: 10 00 f1 ff: 
             0x00000340: 3f 04 00 00: 
             0x00000344: 00 00 00 00: 
             0x00000348: 00 00 00 00: 
             0x0000034c: 10 00 f1 ff: 
             0x00000350: 55 04 00 00: 
             0x00000354: 00 00 00 00: 
             0x00000358: 00 00 00 00: 
             0x0000035c: 10 00 f1 ff: 
             0x00000360: 6e 04 00 00: 
             0x00000364: 00 00 00 00: 
             0x00000368: 00 00 00 00: 
             0x0000036c: 00 00 f1 ff: 
             0x00000370: 86 04 00 00: 
             0x00000374: 00 00 00 00: 
             0x00000378: 00 00 00 00: 
             0x0000037c: 00 00 f1 ff: 
             0x00000380: 9d 04 00 00: 
             0x00000384: 00 00 00 00: 
             0x00000388: 00 00 00 00: 
             0x0000038c: 00 00 f1 ff: 
             0x00000390: b5 04 00 00: 
             0x00000394: 00 00 00 00: 
             0x00000398: 00 00 00 00: 
             0x0000039c: 00 00 f1 ff: 
             0x000003a0: d1 04 00 00: 
             0x000003a4: 00 00 00 00: 
             0x000003a8: 00 00 00 00: 
             0x000003ac: 00 00 f1 ff: 
             0x000003b0: e3 04 00 00: 
             0x000003b4: 01 00 00 00: 
             0x000003b8: 00 00 00 00: 
             0x000003bc: 10 00 f1 ff: 
             0x000003c0: f4 04 00 00: 
             0x000003c4: 00 00 00 00: 
             0x000003c8: 00 00 00 00: 
             0x000003cc: 10 00 f1 ff: 
             0x000003d0: 0c 05 00 00: 
             0x000003d4: 00 00 00 00: 
             0x000003d8: 00 00 00 00: 
             0x000003dc: 10 00 f1 ff: 
             0x000003e0: 27 05 00 00: 
             0x000003e4: 26 00 01 00: 
             0x000003e8: 00 00 00 00: 
             0x000003ec: 00 00 0d 00: 
             0x000003f0: 37 05 00 00: 
             0x000003f4: 40 00 01 00: 
             0x000003f8: 00 00 00 00: 
             0x000003fc: 02 00 0d 00: 
             0x00000400: 46 05 00 00: 
             0x00000404: 44 00 01 00: 
             0x00000408: 00 00 00 00: 
             0x0000040c: 00 00 0d 00: 
             0x00000410: 4c 05 00 00: 
             0x00000414: 68 00 01 00: 
             0x00000418: 00 00 00 00: 
             0x0000041c: 00 00 0d 00: 
             0x00000420: 5b 05 00 00: 
             0x00000424: 80 00 01 00: 
             0x00000428: 00 00 00 00: 
             0x0000042c: 02 00 0d 00: 
             0x00000430: 68 05 00 00: 
             0x00000434: 84 00 01 00: 
             0x00000438: 00 00 00 00: 
             0x0000043c: 02 00 0d 00: 
             0x00000440: 7b 05 00 00: 
             0x00000444: 38 0e 01 00: 
             0x00000448: 08 00 00 00: 
             0x0000044c: 12 00 0d 00: 
             0x00000450: 8f 05 00 00: 
             0x00000454: aa 00 01 00: 
             0x00000458: 00 00 00 00: 
             0x0000045c: 12 00 0d 00: 
             0x00000460: ab 05 00 00: 
             0x00000464: aa 00 01 00: 
             0x00000468: 00 00 00 00: 
             0x0000046c: 02 00 0d 00: 
             0x00000470: be 05 00 00: 
             0x00000474: 86 0f 01 00: 
             0x00000478: 00 00 00 00: 
             0x0000047c: 12 00 0a 00: 
             0x00000480: c4 05 00 00: 
             0x00000484: 32 00 00 00: 
             0x00000488: 00 00 00 00: 
             0x0000048c: 10 00 f1 ff: 
             0x00000490: d6 05 00 00: 
             0x00000494: 00 00 00 00: 
             0x00000498: 00 00 00 00: 
             0x0000049c: 10 00 f1 ff: 
             0x000004a0: e8 05 00 00: 
             0x000004a4: 00 00 00 00: 
             0x000004a8: 00 00 00 00: 
             0x000004ac: 10 00 f1 ff: 
             0x000004b0: f8 05 00 00: 
             0x000004b4: 00 00 00 00: 
             0x000004b8: 00 00 00 00: 
             0x000004bc: 10 00 f1 ff: 
             0x000004c0: 07 06 00 00: 
             0x000004c4: c8 0f 01 00: 
             0x000004c8: 00 00 00 00: 
             0x000004cc: 00 00 0c 00: 
             0x000004d0: 10 06 00 00: 
             0x000004d4: 80 10 01 00: 
             0x000004d8: 00 00 00 00: 
             0x000004dc: 00 00 06 00: 
             0x000004e0: 19 06 00 00: 
             0x000004e4: 26 0b 01 00: 
             0x000004e8: 0c 00 00 00: 
             0x000004ec: 12 00 0d 00: 
             0x000004f0: 1f 06 00 00: 
             0x000004f4: 02 0b 01 00: 
             0x000004f8: 04 00 00 00: 
             0x000004fc: 12 00 0d 00: 
             0x00000500: 2c 06 00 00: 
             0x00000504: 28 10 01 00: 
             0x00000508: 00 00 00 00: 
             0x0000050c: 10 00 01 00: 
             0x00000510: 32 06 00 00: 
             0x00000514: c0 0c 01 00: 
             0x00000518: 4a 00 00 00: 
             0x0000051c: 12 00 0d 00: 
             0x00000520: 39 06 00 00: 
             0x00000524: 00 00 00 00: 
             0x00000528: 00 00 00 00: 
             0x0000052c: 04 00 f1 ff: 
             0x00000530: 44 06 00 00: 
             0x00000534: 84 10 01 00: 
             0x00000538: 00 00 00 00: 
             0x0000053c: 00 00 06 00: 
             0x00000540: 52 06 00 00: 
             0x00000544: 88 10 01 00: 
             0x00000548: 00 00 00 00: 
             0x0000054c: 00 00 06 00: 
             0x00000550: 5d 06 00 00: 
             0x00000554: 28 10 01 00: 
             0x00000558: 00 00 00 00: 
             0x0000055c: 10 00 08 00: 
             0x00000560: 68 06 00 00: 
             0x00000564: a8 0f 01 00: 
             0x00000568: 00 00 00 00: 
             0x0000056c: 00 00 0a 00: 
             0x00000570: 76 06 00 00: 
             0x00000574: b4 0f 01 00: 
             0x00000578: 00 00 00 00: 
             0x0000057c: 00 00 0a 00: 
             0x00000580: 83 06 00 00: 
             0x00000584: cc 0f 01 00: 
             0x00000588: 00 00 00 00: 
             0x0000058c: 10 00 09 00: 
             0x00000590: 96 06 00 00: 
             0x00000594: 00 00 00 00: 
             0x00000598: 00 00 00 00: 
             0x0000059c: 04 00 f1 ff: 
             0x000005a0: a2 06 00 00: 
             0x000005a4: 00 00 00 00: 
             0x000005a8: 00 00 00 00: 
             0x000005ac: 00 00 f1 ff: 
             0x000005b0: af 06 00 00: 
             0x000005b4: 18 12 01 00: 
             0x000005b8: 04 00 00 00: 
             0x000005bc: 11 00 05 00: 
             0x000005c0: b8 06 00 00: 
             0x000005c4: ac 00 01 00: 
             0x000005c8: 66 00 00 00: 
             0x000005cc: 12 00 0d 00: 
             0x000005d0: c4 06 00 00: 
             0x000005d4: 14 12 01 00: 
             0x000005d8: 04 00 00 00: 
             0x000005dc: 11 00 05 00: 
             0x000005e0: cd 06 00 00: 
             0x000005e4: c6 05 01 00: 
             0x000005e8: 00 00 00 00: 
             0x000005ec: 12 00 0d 00: 
             0x000005f0: d7 06 00 00: 
             0x000005f4: 42 01 01 00: 
             0x000005f8: 4c 00 00 00: 
             0x000005fc: 12 00 0d 00: 
             0x00000600: e3 06 00 00: 
             0x00000604: 90 01 01 00: 
             0x00000608: 00 00 00 00: 
             0x0000060c: 10 00 0d 00: 
             0x00000610: ee 06 00 00: 
             0x00000614: 01 00 00 00: 
             0x00000618: 00 00 00 00: 
             0x0000061c: 00 00 f1 ff: 
             0x00000620: fd 06 00 00: 
             0x00000624: 01 00 00 00: 
             0x00000628: 00 00 00 00: 
             0x0000062c: 00 00 f1 ff: 
             0x00000630: 16 07 00 00: 
             0x00000634: 01 00 00 00: 
             0x00000638: 00 00 00 00: 
             0x0000063c: 00 00 f1 ff: 
             0x00000640: 28 07 00 00: 
             0x00000644: 04 00 00 00: 
             0x00000648: 00 00 00 00: 
             0x0000064c: 10 00 f1 ff: 
             0x00000650: 40 07 00 00: 
             0x00000654: 01 00 00 00: 
             0x00000658: 00 00 00 00: 
             0x0000065c: 10 00 f1 ff: 
             0x00000660: 58 07 00 00: 
             0x00000664: 00 00 00 00: 
             0x00000668: 00 00 00 00: 
             0x0000066c: 10 00 f1 ff: 
             0x00000670: 6f 07 00 00: 
             0x00000674: 01 00 00 00: 
             0x00000678: 00 00 00 00: 
             0x0000067c: 10 00 f1 ff: 
             0x00000680: 84 07 00 00: 
             0x00000684: 01 00 00 00: 
             0x00000688: 00 00 00 00: 
             0x0000068c: 10 00 f1 ff: 
             0x00000690: 98 07 00 00: 
             0x00000694: 01 00 00 00: 
             0x00000698: 00 00 00 00: 
             0x0000069c: 10 00 f1 ff: 
             0x000006a0: ad 07 00 00: 
             0x000006a4: 00 00 00 00: 
             0x000006a8: 00 00 00 00: 
             0x000006ac: 10 00 f1 ff: 
             0x000006b0: c3 07 00 00: 
             0x000006b4: 00 00 00 00: 
             0x000006b8: 00 00 00 00: 
             0x000006bc: 10 00 f1 ff: 
             0x000006c0: d8 07 00 00: 
             0x000006c4: 00 00 00 00: 
             0x000006c8: 00 00 00 00: 
             0x000006cc: 10 00 f1 ff: 
             0x000006d0: ee 07 00 00: 
             0x000006d4: 01 00 00 00: 
             0x000006d8: 00 00 00 00: 
             0x000006dc: 10 00 f1 ff: 
             0x000006e0: 06 08 00 00: 
             0x000006e4: 01 00 00 00: 
             0x000006e8: 00 00 00 00: 
             0x000006ec: 10 00 f1 ff: 
             0x000006f0: 1d 08 00 00: 
             0x000006f4: 00 00 00 00: 
             0x000006f8: 00 00 00 00: 
             0x000006fc: 10 00 f1 ff: 
             0x00000700: 35 08 00 00: 
             0x00000704: ce 30 00 00: 
             0x00000708: 00 00 00 00: 
             0x0000070c: 10 00 f1 ff: 
             0x00000710: 4b 08 00 00: 
             0x00000714: 01 00 00 00: 
             0x00000718: 00 00 00 00: 
             0x0000071c: 10 00 f1 ff: 
             0x00000720: 5e 08 00 00: 
             0x00000724: 00 00 00 00: 
             0x00000728: 00 00 00 00: 
             0x0000072c: 10 00 f1 ff: 
             0x00000730: 72 08 00 00: 
             0x00000734: 01 00 00 00: 
             0x00000738: 00 00 00 00: 
             0x0000073c: 10 00 f1 ff: 
             0x00000740: 88 08 00 00: 
             0x00000744: c6 05 01 00: 
             0x00000748: 00 00 00 00: 
             0x0000074c: 12 00 f1 ff: 
             0x00000750: b1 08 00 00: 
             0x00000754: ce 30 00 00: 
             0x00000758: 00 00 00 00: 
             0x0000075c: 10 00 f1 ff: 
             0x00000760: e6 08 00 00: 
             0x00000764: 00 00 00 00: 
             0x00000768: 00 00 00 00: 
             0x0000076c: 04 00 f1 ff: 
             0x00000770: 68 09 00 00: 
             0x00000774: b8 0c 01 00: 
             0x00000778: 08 00 00 00: 
             0x0000077c: 10 00 0d 00: 
             0x00000780: 7a 09 00 00: 
             0x00000784: 01 00 00 00: 
             0x00000788: 00 00 00 00: 
             0x0000078c: 00 00 f1 ff: 
             0x00000790: 90 09 00 00: 
             0x00000794: 01 00 00 00: 
             0x00000798: 00 00 00 00: 
             0x0000079c: 00 00 f1 ff: 
             0x000007a0: ae 09 00 00: 
             0x000007a4: 01 00 00 00: 
             0x000007a8: 00 00 00 00: 
             0x000007ac: 00 00 f1 ff: 
             0x000007b0: c7 09 00 00: 
             0x000007b4: 01 00 00 00: 
             0x000007b8: 00 00 00 00: 
             0x000007bc: 00 00 f1 ff: 
             0x000007c0: e2 09 00 00: 
             0x000007c4: 01 00 00 00: 
             0x000007c8: 00 00 00 00: 
             0x000007cc: 00 00 f1 ff: 
             0x000007d0: 06 0a 00 00: 
             0x000007d4: 03 00 00 00: 
             0x000007d8: 00 00 00 00: 
             0x000007dc: 10 00 f1 ff: 
             0x000007e0: 29 0a 00 00: 
             0x000007e4: 00 00 00 00: 
             0x000007e8: 00 00 00 00: 
             0x000007ec: 10 00 f1 ff: 
             0x000007f0: 50 0a 00 00: 
             0x000007f4: 00 00 00 00: 
             0x000007f8: 00 00 00 00: 
             0x000007fc: 10 00 f1 ff: 
             0x00000800: 6e 0a 00 00: 
             0x00000804: 01 00 00 00: 
             0x00000808: 00 00 00 00: 
             0x0000080c: 10 00 f1 ff: 
             0x00000810: 8e 0a 00 00: 
             0x00000814: 01 00 00 00: 
             0x00000818: 00 00 00 00: 
             0x0000081c: 10 00 f1 ff: 
             0x00000820: b2 0a 00 00: 
             0x00000824: 01 00 00 00: 
             0x00000828: 00 00 00 00: 
             0x0000082c: 10 00 f1 ff: 
             0x00000830: cd 0a 00 00: 
             0x00000834: 00 00 00 00: 
             0x00000838: 00 00 00 00: 
             0x0000083c: 10 00 f1 ff: 
             0x00000840: ee 0a 00 00: 
             0x00000844: 00 00 00 00: 
             0x00000848: 00 00 00 00: 
             0x0000084c: 10 00 f1 ff: 
             0x00000850: 13 0b 00 00: 
             0x00000854: 00 00 00 00: 
             0x00000858: 00 00 00 00: 
             0x0000085c: 10 00 f1 ff: 
             0x00000860: 2f 0b 00 00: 
             0x00000864: 01 00 00 00: 
             0x00000868: 00 00 00 00: 
             0x0000086c: 10 00 f1 ff: 
             0x00000870: 52 0b 00 00: 
             0x00000874: 00 00 00 00: 
             0x00000878: 00 00 00 00: 
             0x0000087c: 10 00 f1 ff: 
             0x00000880: 79 0b 00 00: 
             0x00000884: 01 00 00 00: 
             0x00000888: 00 00 00 00: 
             0x0000088c: 10 00 f1 ff: 
             0x00000890: 97 0b 00 00: 
             0x00000894: 0b 00 00 00: 
             0x00000898: 00 00 00 00: 
             0x0000089c: 10 00 f1 ff: 
             0x000008a0: b4 0b 00 00: 
             0x000008a4: 00 00 00 00: 
             0x000008a8: 00 00 00 00: 
             0x000008ac: 10 00 f1 ff: 
             0x000008b0: d5 0b 00 00: 
             0x000008b4: 03 00 00 00: 
             0x000008b8: 00 00 00 00: 
             0x000008bc: 10 00 f1 ff: 
             0x000008c0: f8 0b 00 00: 
             0x000008c4: 01 00 00 00: 
             0x000008c8: 00 00 00 00: 
             0x000008cc: 10 00 f1 ff: 
             0x000008d0: 12 0c 00 00: 
             0x000008d4: 01 00 00 00: 
             0x000008d8: 00 00 00 00: 
             0x000008dc: 10 00 f1 ff: 
             0x000008e0: 30 0c 00 00: 
             0x000008e4: 01 00 00 00: 
             0x000008e8: 00 00 00 00: 
             0x000008ec: 10 00 f1 ff: 
             0x000008f0: 50 0c 00 00: 
             0x000008f4: 00 00 00 00: 
             0x000008f8: 00 00 00 00: 
             0x000008fc: 10 00 f1 ff: 
             0x00000900: 6b 0c 00 00: 
             0x00000904: 00 00 00 00: 
             0x00000908: 00 00 00 00: 
             0x0000090c: 10 00 f1 ff: 
             0x00000910: 8a 0c 00 00: 
             0x00000914: 00 00 00 00: 
             0x00000918: 00 00 00 00: 
             0x0000091c: 10 00 f1 ff: 
             0x00000920: ab 0c 00 00: 
             0x00000924: 00 00 00 00: 
             0x00000928: 00 00 00 00: 
             0x0000092c: 10 00 f1 ff: 
             0x00000930: c8 0c 00 00: 
             0x00000934: 00 00 00 00: 
             0x00000938: 00 00 00 00: 
             0x0000093c: 10 00 f1 ff: 
             0x00000940: e9 0c 00 00: 
             0x00000944: 00 00 00 00: 
             0x00000948: 00 00 00 00: 
             0x0000094c: 10 00 f1 ff: 
             0x00000950: 0c 0d 00 00: 
             0x00000954: 03 00 00 00: 
             0x00000958: 00 00 00 00: 
             0x0000095c: 10 00 f1 ff: 
             0x00000960: 26 0d 00 00: 
             0x00000964: 00 00 00 00: 
             0x00000968: 00 00 00 00: 
             0x0000096c: 10 00 f1 ff: 
             0x00000970: 44 0d 00 00: 
             0x00000974: 01 00 00 00: 
             0x00000978: 00 00 00 00: 
             0x0000097c: 10 00 f1 ff: 
             0x00000980: 5b 0d 00 00: 
             0x00000984: 01 00 00 00: 
             0x00000988: 00 00 00 00: 
             0x0000098c: 10 00 f1 ff: 
             0x00000990: 76 0d 00 00: 
             0x00000994: 00 00 00 00: 
             0x00000998: 00 00 00 00: 
             0x0000099c: 10 00 f1 ff: 
             0x000009a0: 8e 0d 00 00: 
             0x000009a4: 00 00 00 00: 
             0x000009a8: 00 00 00 00: 
             0x000009ac: 10 00 f1 ff: 
             0x000009b0: aa 0d 00 00: 
             0x000009b4: 01 00 00 00: 
             0x000009b8: 00 00 00 00: 
             0x000009bc: 10 00 f1 ff: 
             0x000009c0: c4 0d 00 00: 
             0x000009c4: 00 00 00 00: 
             0x000009c8: 00 00 00 00: 
             0x000009cc: 10 00 f1 ff: 
             0x000009d0: e2 0d 00 00: 
             0x000009d4: 0c 0c 01 00: 
             0x000009d8: 00 00 00 00: 
             0x000009dc: 12 00 0d 00: 
             0x000009e0: e9 0d 00 00: 
             0x000009e4: 9c 01 01 00: 
             0x000009e8: 00 00 00 00: 
             0x000009ec: 10 00 0d 00: 
             0x000009f0: fe 0d 00 00: 
             0x000009f4: 00 00 00 00: 
             0x000009f8: 00 00 00 00: 
             0x000009fc: 04 00 f1 ff: 
             0x00000a00: 7f 0e 00 00: 
             0x00000a04: 00 00 00 00: 
             0x00000a08: 00 00 00 00: 
             0x00000a0c: 10 00 f1 ff: 
             0x00000a10: 97 0e 00 00: 
             0x00000a14: 00 00 00 00: 
             0x00000a18: 00 00 00 00: 
             0x00000a1c: 10 00 f1 ff: 
             0x00000a20: ad 0e 00 00: 
             0x00000a24: 00 00 00 00: 
             0x00000a28: 00 00 00 00: 
             0x00000a2c: 10 00 f1 ff: 
             0x00000a30: c5 0e 00 00: 
             0x00000a34: 01 00 00 00: 
             0x00000a38: 00 00 00 00: 
             0x00000a3c: 10 00 f1 ff: 
             0x00000a40: da 0e 00 00: 
             0x00000a44: 96 01 01 00: 
             0x00000a48: 00 00 00 00: 
             0x00000a4c: 00 00 0d 00: 
             0x00000a50: e8 0e 00 00: 
             0x00000a54: 00 00 00 00: 
             0x00000a58: 00 00 00 00: 
             0x00000a5c: 10 00 f1 ff: 
             0x00000a60: 03 0f 00 00: 
             0x00000a64: 00 00 00 00: 
             0x00000a68: 00 00 00 00: 
             0x00000a6c: 10 00 f1 ff: 
             0x00000a70: 1c 0f 00 00: 
             0x00000a74: 00 00 00 00: 
             0x00000a78: 00 00 00 00: 
             0x00000a7c: 10 00 f1 ff: 
             0x00000a80: 37 0f 00 00: 
             0x00000a84: 01 00 00 00: 
             0x00000a88: 00 00 00 00: 
             0x00000a8c: 10 00 f1 ff: 
             0x00000a90: 4f 0f 00 00: 
             0x00000a94: 00 00 00 00: 
             0x00000a98: 00 00 00 00: 
             0x00000a9c: 10 00 f1 ff: 
             0x00000aa0: 6e 0f 00 00: 
             0x00000aa4: 00 00 00 00: 
             0x00000aa8: 00 00 00 00: 
             0x00000aac: 10 00 f1 ff: 
             0x00000ab0: 8b 0f 00 00: 
             0x00000ab4: 00 00 00 00: 
             0x00000ab8: 00 00 00 00: 
             0x00000abc: 10 00 f1 ff: 
             0x00000ac0: aa 0f 00 00: 
             0x00000ac4: 01 00 00 00: 
             0x00000ac8: 00 00 00 00: 
             0x00000acc: 10 00 f1 ff: 
             0x00000ad0: c6 0f 00 00: 
             0x00000ad4: 00 00 00 00: 
             0x00000ad8: 00 00 00 00: 
             0x00000adc: 10 00 f1 ff: 
             0x00000ae0: ee 0f 00 00: 
             0x00000ae4: 00 00 00 00: 
             0x00000ae8: 00 00 00 00: 
             0x00000aec: 10 00 f1 ff: 
             0x00000af0: 14 10 00 00: 
             0x00000af4: 00 00 00 00: 
             0x00000af8: 00 00 00 00: 
             0x00000afc: 10 00 f1 ff: 
             0x00000b00: 3c 10 00 00: 
             0x00000b04: 01 00 00 00: 
             0x00000b08: 00 00 00 00: 
             0x00000b0c: 10 00 f1 ff: 
             0x00000b10: 61 10 00 00: 
             0x00000b14: 00 00 00 00: 
             0x00000b18: 00 00 00 00: 
             0x00000b1c: 10 00 f1 ff: 
             0x00000b20: 75 10 00 00: 
             0x00000b24: 00 00 00 00: 
             0x00000b28: 00 00 00 00: 
             0x00000b2c: 10 00 f1 ff: 
             0x00000b30: 87 10 00 00: 
             0x00000b34: 00 00 00 00: 
             0x00000b38: 00 00 00 00: 
             0x00000b3c: 10 00 f1 ff: 
             0x00000b40: 9b 10 00 00: 
             0x00000b44: 01 00 00 00: 
             0x00000b48: 00 00 00 00: 
             0x00000b4c: 10 00 f1 ff: 
             0x00000b50: ac 10 00 00: 
             0x00000b54: 00 00 00 00: 
             0x00000b58: 00 00 00 00: 
             0x00000b5c: 10 00 f1 ff: 
             0x00000b60: c0 10 00 00: 
             0x00000b64: 00 00 00 00: 
             0x00000b68: 00 00 00 00: 
             0x00000b6c: 10 00 f1 ff: 
             0x00000b70: d2 10 00 00: 
             0x00000b74: 00 00 00 00: 
             0x00000b78: 00 00 00 00: 
             0x00000b7c: 10 00 f1 ff: 
             0x00000b80: e6 10 00 00: 
             0x00000b84: 01 00 00 00: 
             0x00000b88: 00 00 00 00: 
             0x00000b8c: 10 00 f1 ff: 
             0x00000b90: f7 10 00 00: 
             0x00000b94: 00 00 00 00: 
             0x00000b98: 00 00 00 00: 
             0x00000b9c: 10 00 f1 ff: 
             0x00000ba0: 0a 11 00 00: 
             0x00000ba4: 00 00 00 00: 
             0x00000ba8: 00 00 00 00: 
             0x00000bac: 10 00 f1 ff: 
             0x00000bb0: 1b 11 00 00: 
             0x00000bb4: 00 00 00 00: 
             0x00000bb8: 00 00 00 00: 
             0x00000bbc: 10 00 f1 ff: 
             0x00000bc0: 2e 11 00 00: 
             0x00000bc4: 01 00 00 00: 
             0x00000bc8: 00 00 00 00: 
             0x00000bcc: 10 00 f1 ff: 
             0x00000bd0: 3e 11 00 00: 
             0x00000bd4: 00 00 00 00: 
             0x00000bd8: 00 00 00 00: 
             0x00000bdc: 10 00 f1 ff: 
             0x00000be0: 51 11 00 00: 
             0x00000be4: 00 00 00 00: 
             0x00000be8: 00 00 00 00: 
             0x00000bec: 10 00 f1 ff: 
             0x00000bf0: 62 11 00 00: 
             0x00000bf4: 00 00 00 00: 
             0x00000bf8: 00 00 00 00: 
             0x00000bfc: 10 00 f1 ff: 
             0x00000c00: 75 11 00 00: 
             0x00000c04: 01 00 00 00: 
             0x00000c08: 00 00 00 00: 
             0x00000c0c: 10 00 f1 ff: 
             0x00000c10: 85 11 00 00: 
             0x00000c14: 00 00 00 00: 
             0x00000c18: 00 00 00 00: 
             0x00000c1c: 10 00 f1 ff: 
             0x00000c20: 9e 11 00 00: 
             0x00000c24: 00 00 00 00: 
             0x00000c28: 00 00 00 00: 
             0x00000c2c: 10 00 f1 ff: 
             0x00000c30: b5 11 00 00: 
             0x00000c34: 00 00 00 00: 
             0x00000c38: 00 00 00 00: 
             0x00000c3c: 10 00 f1 ff: 
             0x00000c40: ce 11 00 00: 
             0x00000c44: 01 00 00 00: 
             0x00000c48: 00 00 00 00: 
             0x00000c4c: 10 00 f1 ff: 
             0x00000c50: e4 11 00 00: 
             0x00000c54: 00 00 00 00: 
             0x00000c58: 00 00 00 00: 
             0x00000c5c: 10 00 f1 ff: 
             0x00000c60: 04 12 00 00: 
             0x00000c64: 00 00 00 00: 
             0x00000c68: 00 00 00 00: 
             0x00000c6c: 10 00 f1 ff: 
             0x00000c70: 22 12 00 00: 
             0x00000c74: 00 00 00 00: 
             0x00000c78: 00 00 00 00: 
             0x00000c7c: 10 00 f1 ff: 
             0x00000c80: 42 12 00 00: 
             0x00000c84: 01 00 00 00: 
             0x00000c88: 00 00 00 00: 
             0x00000c8c: 10 00 f1 ff: 
             0x00000c90: 5f 12 00 00: 
             0x00000c94: 00 00 00 00: 
             0x00000c98: 00 00 00 00: 
             0x00000c9c: 10 00 f1 ff: 
             0x00000ca0: 82 12 00 00: 
             0x00000ca4: 00 00 00 00: 
             0x00000ca8: 00 00 00 00: 
             0x00000cac: 10 00 f1 ff: 
             0x00000cb0: a3 12 00 00: 
             0x00000cb4: 00 00 00 00: 
             0x00000cb8: 00 00 00 00: 
             0x00000cbc: 10 00 f1 ff: 
             0x00000cc0: c6 12 00 00: 
             0x00000cc4: 01 00 00 00: 
             0x00000cc8: 00 00 00 00: 
             0x00000ccc: 10 00 f1 ff: 
             0x00000cd0: e6 12 00 00: 
             0x00000cd4: 00 00 00 00: 
             0x00000cd8: 00 00 00 00: 
             0x00000cdc: 10 00 f1 ff: 
             0x00000ce0: 0a 13 00 00: 
             0x00000ce4: 00 00 00 00: 
             0x00000ce8: 00 00 00 00: 
             0x00000cec: 10 00 f1 ff: 
             0x00000cf0: 2c 13 00 00: 
             0x00000cf4: 00 00 00 00: 
             0x00000cf8: 00 00 00 00: 
             0x00000cfc: 10 00 f1 ff: 
             0x00000d00: 50 13 00 00: 
             0x00000d04: 01 00 00 00: 
             0x00000d08: 00 00 00 00: 
             0x00000d0c: 10 00 f1 ff: 
             0x00000d10: 71 13 00 00: 
             0x00000d14: 03 00 00 00: 
             0x00000d18: 00 00 00 00: 
             0x00000d1c: 10 00 f1 ff: 
             0x00000d20: 94 13 00 00: 
             0x00000d24: 00 00 00 00: 
             0x00000d28: 00 00 00 00: 
             0x00000d2c: 10 00 f1 ff: 
             0x00000d30: b5 13 00 00: 
             0x00000d34: 00 00 00 00: 
             0x00000d38: 00 00 00 00: 
             0x00000d3c: 10 00 f1 ff: 
             0x00000d40: da 13 00 00: 
             0x00000d44: 01 00 00 00: 
             0x00000d48: 00 00 00 00: 
             0x00000d4c: 10 00 f1 ff: 
             0x00000d50: fa 13 00 00: 
             0x00000d54: 00 00 00 00: 
             0x00000d58: 00 00 00 00: 
             0x00000d5c: 10 00 f1 ff: 
             0x00000d60: 1b 14 00 00: 
             0x00000d64: 00 00 00 00: 
             0x00000d68: 00 00 00 00: 
             0x00000d6c: 10 00 f1 ff: 
             0x00000d70: 3a 14 00 00: 
             0x00000d74: 00 00 00 00: 
             0x00000d78: 00 00 00 00: 
             0x00000d7c: 10 00 f1 ff: 
             0x00000d80: 5b 14 00 00: 
             0x00000d84: 01 00 00 00: 
             0x00000d88: 00 00 00 00: 
             0x00000d8c: 10 00 f1 ff: 
             0x00000d90: 79 14 00 00: 
             0x00000d94: 00 00 00 00: 
             0x00000d98: 00 00 00 00: 
             0x00000d9c: 10 00 f1 ff: 
             0x00000da0: 9a 14 00 00: 
             0x00000da4: 00 00 00 00: 
             0x00000da8: 00 00 00 00: 
             0x00000dac: 10 00 f1 ff: 
             0x00000db0: b9 14 00 00: 
             0x00000db4: 00 00 00 00: 
             0x00000db8: 00 00 00 00: 
             0x00000dbc: 10 00 f1 ff: 
             0x00000dc0: da 14 00 00: 
             0x00000dc4: 01 00 00 00: 
             0x00000dc8: 00 00 00 00: 
             0x00000dcc: 10 00 f1 ff: 
             0x00000dd0: f8 14 00 00: 
             0x00000dd4: ec 01 01 00: 
             0x00000dd8: 00 00 00 00: 
             0x00000ddc: 00 00 0d 00: 
             0x00000de0: 0e 15 00 00: 
             0x00000de4: f6 01 01 00: 
             0x00000de8: 00 00 00 00: 
             0x00000dec: 00 00 0d 00: 
             0x00000df0: 23 15 00 00: 
             0x00000df4: 00 00 00 00: 
             0x00000df8: 00 00 00 00: 
             0x00000dfc: 10 00 f1 ff: 
             0x00000e00: 3e 15 00 00: 
             0x00000e04: 00 00 00 00: 
             0x00000e08: 00 00 00 00: 
             0x00000e0c: 10 00 f1 ff: 
             0x00000e10: 57 15 00 00: 
             0x00000e14: 00 00 00 00: 
             0x00000e18: 00 00 00 00: 
             0x00000e1c: 10 00 f1 ff: 
             0x00000e20: 72 15 00 00: 
             0x00000e24: 01 00 00 00: 
             0x00000e28: 00 00 00 00: 
             0x00000e2c: 10 00 f1 ff: 
             0x00000e30: 8a 15 00 00: 
             0x00000e34: 00 11 01 00: 
             0x00000e38: 00 00 00 00: 
             0x00000e3c: 10 00 06 00: 
             0x00000e40: a0 15 00 00: 
             0x00000e44: 80 11 01 00: 
             0x00000e48: 00 00 00 00: 
             0x00000e4c: 10 00 06 00: 
             0x00000e50: aa 15 00 00: 
             0x00000e54: 00 00 00 00: 
             0x00000e58: 00 00 00 00: 
             0x00000e5c: 10 00 f1 ff: 
             0x00000e60: c0 15 00 00: 
             0x00000e64: 00 00 00 00: 
             0x00000e68: 00 00 00 00: 
             0x00000e6c: 10 00 f1 ff: 
             0x00000e70: d4 15 00 00: 
             0x00000e74: 00 00 00 00: 
             0x00000e78: 00 00 00 00: 
             0x00000e7c: 10 00 f1 ff: 
             0x00000e80: ea 15 00 00: 
             0x00000e84: 01 00 00 00: 
             0x00000e88: 00 00 00 00: 
             0x00000e8c: 10 00 f1 ff: 
             0x00000e90: fd 15 00 00: 
             0x00000e94: 9c 11 01 00: 
             0x00000e98: 00 00 00 00: 
             0x00000e9c: 00 00 06 00: 
             0x00000ea0: 0f 16 00 00: 
             0x00000ea4: a4 11 01 00: 
             0x00000ea8: 00 00 00 00: 
             0x00000eac: 00 00 06 00: 
             0x00000eb0: 21 16 00 00: 
             0x00000eb4: 00 00 00 00: 
             0x00000eb8: 00 00 00 00: 
             0x00000ebc: 10 00 f1 ff: 
             0x00000ec0: 3c 16 00 00: 
             0x00000ec4: 00 00 00 00: 
             0x00000ec8: 00 00 00 00: 
             0x00000ecc: 10 00 f1 ff: 
             0x00000ed0: 55 16 00 00: 
             0x00000ed4: 00 00 00 00: 
             0x00000ed8: 00 00 00 00: 
             0x00000edc: 10 00 f1 ff: 
             0x00000ee0: 70 16 00 00: 
             0x00000ee4: 01 00 00 00: 
             0x00000ee8: 00 00 00 00: 
             0x00000eec: 10 00 f1 ff: 
             0x00000ef0: 88 16 00 00: 
             0x00000ef4: 01 00 00 00: 
             0x00000ef8: 00 00 00 00: 
             0x00000efc: 10 00 f1 ff: 
             0x00000f00: a4 16 00 00: 
             0x00000f04: 00 00 00 00: 
             0x00000f08: 00 00 00 00: 
             0x00000f0c: 10 00 f1 ff: 
             0x00000f10: be 16 00 00: 
             0x00000f14: 00 00 00 00: 
             0x00000f18: 00 00 00 00: 
             0x00000f1c: 10 00 f1 ff: 
             0x00000f20: da 16 00 00: 
             0x00000f24: 01 00 00 00: 
             0x00000f28: 00 00 00 00: 
             0x00000f2c: 10 00 f1 ff: 
             0x00000f30: f3 16 00 00: 
             0x00000f34: 00 00 00 00: 
             0x00000f38: 00 00 00 00: 
             0x00000f3c: 04 00 f1 ff: 
             0x00000f40: 76 17 00 00: 
             0x00000f44: 01 00 00 00: 
             0x00000f48: 00 00 00 00: 
             0x00000f4c: 00 00 f1 ff: 
             0x00000f50: 8c 17 00 00: 
             0x00000f54: 01 00 00 00: 
             0x00000f58: 00 00 00 00: 
             0x00000f5c: 00 00 f1 ff: 
             0x00000f60: a5 17 00 00: 
             0x00000f64: 01 00 00 00: 
             0x00000f68: 00 00 00 00: 
             0x00000f6c: 00 00 f1 ff: 
             0x00000f70: c7 17 00 00: 
             0x00000f74: 01 00 00 00: 
             0x00000f78: 00 00 00 00: 
             0x00000f7c: 00 00 f1 ff: 
             0x00000f80: ec 17 00 00: 
             0x00000f84: 01 00 00 00: 
             0x00000f88: 00 00 00 00: 
             0x00000f8c: 00 00 f1 ff: 
             0x00000f90: 15 18 00 00: 
             0x00000f94: 01 00 00 00: 
             0x00000f98: 00 00 00 00: 
             0x00000f9c: 00 00 f1 ff: 
             0x00000fa0: 41 18 00 00: 
             0x00000fa4: 05 00 00 00: 
             0x00000fa8: 00 00 00 00: 
             0x00000fac: 10 00 f1 ff: 
             0x00000fb0: 6c 18 00 00: 
             0x00000fb4: 00 00 00 00: 
             0x00000fb8: 00 00 00 00: 
             0x00000fbc: 10 00 f1 ff: 
             0x00000fc0: 91 18 00 00: 
             0x00000fc4: 01 00 00 00: 
             0x00000fc8: 00 00 00 00: 
             0x00000fcc: 10 00 f1 ff: 
             0x00000fd0: b9 18 00 00: 
             0x00000fd4: 01 00 00 00: 
             0x00000fd8: 00 00 00 00: 
             0x00000fdc: 10 00 f1 ff: 
             0x00000fe0: db 18 00 00: 
             0x00000fe4: 00 00 00 00: 
             0x00000fe8: 00 00 00 00: 
             0x00000fec: 10 00 f1 ff: 
             0x00000ff0: 04 19 00 00: 
             0x00000ff4: 00 00 00 00: 
             0x00000ff8: 00 00 00 00: 
             0x00000ffc: 10 00 f1 ff: 
             0x00001000: 27 19 00 00: 
             0x00001004: 01 00 00 00: 
             0x00001008: 00 00 00 00: 
             0x0000100c: 10 00 f1 ff: 
             0x00001010: 52 19 00 00: 
             0x00001014: 01 00 00 00: 
             0x00001018: 00 00 00 00: 
             0x0000101c: 10 00 f1 ff: 
             0x00001020: 77 19 00 00: 
             0x00001024: 00 00 00 00: 
             0x00001028: 00 00 00 00: 
             0x0000102c: 10 00 f1 ff: 
             0x00001030: 8f 19 00 00: 
             0x00001034: 01 00 00 00: 
             0x00001038: 00 00 00 00: 
             0x0000103c: 10 00 f1 ff: 
             0x00001040: a4 19 00 00: 
             0x00001044: 00 00 00 00: 
             0x00001048: 00 00 00 00: 
             0x0000104c: 10 00 f1 ff: 
             0x00001050: ba 19 00 00: 
             0x00001054: 00 00 00 00: 
             0x00001058: 00 00 00 00: 
             0x0000105c: 10 00 f1 ff: 
             0x00001060: d2 19 00 00: 
             0x00001064: 05 00 00 00: 
             0x00001068: 00 00 00 00: 
             0x0000106c: 10 00 f1 ff: 
             0x00001070: f6 19 00 00: 
             0x00001074: 00 00 00 00: 
             0x00001078: 00 00 00 00: 
             0x0000107c: 10 00 f1 ff: 
             0x00001080: 14 1a 00 00: 
             0x00001084: 01 00 00 00: 
             0x00001088: 00 00 00 00: 
             0x0000108c: 10 00 f1 ff: 
             0x00001090: 35 1a 00 00: 
             0x00001094: 01 00 00 00: 
             0x00001098: 00 00 00 00: 
             0x0000109c: 10 00 f1 ff: 
             0x000010a0: 50 1a 00 00: 
             0x000010a4: 00 00 00 00: 
             0x000010a8: 00 00 00 00: 
             0x000010ac: 10 00 f1 ff: 
             0x000010b0: 72 1a 00 00: 
             0x000010b4: 00 00 00 00: 
             0x000010b8: 00 00 00 00: 
             0x000010bc: 10 00 f1 ff: 
             0x000010c0: 8e 1a 00 00: 
             0x000010c4: 01 00 00 00: 
             0x000010c8: 00 00 00 00: 
             0x000010cc: 10 00 f1 ff: 
             0x000010d0: b2 1a 00 00: 
             0x000010d4: 01 00 00 00: 
             0x000010d8: 00 00 00 00: 
             0x000010dc: 10 00 f1 ff: 
             0x000010e0: d0 1a 00 00: 
             0x000010e4: 00 00 00 00: 
             0x000010e8: 00 00 00 00: 
             0x000010ec: 04 00 f1 ff: 
             0x000010f0: a2 06 00 00: 
             0x000010f4: 00 00 00 00: 
             0x000010f8: 00 00 00 00: 
             0x000010fc: 00 00 f1 ff: 
             0x00001100: e0 1a 00 00: 
             0x00001104: 01 00 00 00: 
             0x00001108: 00 00 00 00: 
             0x0000110c: 00 00 f1 ff: 
             0x00001110: fd 1a 00 00: 
             0x00001114: 30 02 01 00: 
             0x00001118: 16 00 00 00: 
             0x0000111c: 12 00 0d 00: 
             0x00001120: 0d 1b 00 00: 
             0x00001124: 00 00 00 00: 
             0x00001128: 00 00 00 00: 
             0x0000112c: 10 00 f1 ff: 
             0x00001130: 29 1b 00 00: 
             0x00001134: 01 00 00 00: 
             0x00001138: 00 00 00 00: 
             0x0000113c: 10 00 f1 ff: 
             0x00001140: 42 1b 00 00: 
             0x00001144: 01 00 00 00: 
             0x00001148: 00 00 00 00: 
             0x0000114c: 10 00 f1 ff: 
             0x00001150: 5c 1b 00 00: 
             0x00001154: 00 00 00 00: 
             0x00001158: 00 00 00 00: 
             0x0000115c: 10 00 f1 ff: 
             0x00001160: 78 1b 00 00: 
             0x00001164: 00 00 00 00: 
             0x00001168: 00 00 00 00: 
             0x0000116c: 04 00 f1 ff: 
             0x00001170: a2 06 00 00: 
             0x00001174: 00 00 00 00: 
             0x00001178: 00 00 00 00: 
             0x0000117c: 00 00 f1 ff: 
             0x00001180: 8b 1b 00 00: 
             0x00001184: 46 02 01 00: 
             0x00001188: 18 00 00 00: 
             0x0000118c: 12 00 0d 00: 
             0x00001190: 99 1b 00 00: 
             0x00001194: 6e 02 01 00: 
             0x00001198: 4e 00 00 00: 
             0x0000119c: 12 00 0d 00: 
             0x000011a0: b1 1b 00 00: 
             0x000011a4: 01 00 00 00: 
             0x000011a8: 00 00 00 00: 
             0x000011ac: 00 00 f1 ff: 
             0x000011b0: ca 1b 00 00: 
             0x000011b4: 01 00 00 00: 
             0x000011b8: 00 00 00 00: 
             0x000011bc: 00 00 f1 ff: 
             0x000011c0: e2 1b 00 00: 
             0x000011c4: 01 00 00 00: 
             0x000011c8: 00 00 00 00: 
             0x000011cc: 00 00 f1 ff: 
             0x000011d0: f8 1b 00 00: 
             0x000011d4: 01 00 00 00: 
             0x000011d8: 00 00 00 00: 
             0x000011dc: 00 00 f1 ff: 
             0x000011e0: 10 1c 00 00: 
             0x000011e4: 5e 02 01 00: 
             0x000011e8: 04 00 00 00: 
             0x000011ec: 12 00 0d 00: 
             0x000011f0: 1e 1c 00 00: 
             0x000011f4: 01 00 00 00: 
             0x000011f8: 00 00 00 00: 
             0x000011fc: 00 00 f1 ff: 
             0x00001200: 37 1c 00 00: 
             0x00001204: 62 02 01 00: 
             0x00001208: 0c 00 00 00: 
             0x0000120c: 12 00 0d 00: 
             0x00001210: 46 1c 00 00: 
             0x00001214: 01 00 00 00: 
             0x00001218: 00 00 00 00: 
             0x0000121c: 00 00 f1 ff: 
             0x00001220: 5e 1c 00 00: 
             0x00001224: bc 02 01 00: 
             0x00001228: 0e 00 00 00: 
             0x0000122c: 12 00 0d 00: 
             0x00001230: 6c 1c 00 00: 
             0x00001234: 01 00 00 00: 
             0x00001238: 00 00 00 00: 
             0x0000123c: 00 00 f1 ff: 
             0x00001240: 86 1c 00 00: 
             0x00001244: 01 00 00 00: 
             0x00001248: 00 00 00 00: 
             0x0000124c: 00 00 f1 ff: 
             0x00001250: a3 1c 00 00: 
             0x00001254: 01 00 00 00: 
             0x00001258: 00 00 00 00: 
             0x0000125c: 00 00 f1 ff: 
             0x00001260: c5 1c 00 00: 
             0x00001264: 01 00 00 00: 
             0x00001268: 00 00 00 00: 
             0x0000126c: 00 00 f1 ff: 
             0x00001270: e1 1c 00 00: 
             0x00001274: 01 00 00 00: 
             0x00001278: 00 00 00 00: 
             0x0000127c: 00 00 f1 ff: 
             0x00001280: fc 1c 00 00: 
             0x00001284: 01 00 00 00: 
             0x00001288: 00 00 00 00: 
             0x0000128c: 00 00 f1 ff: 
             0x00001290: 15 1d 00 00: 
             0x00001294: 01 00 00 00: 
             0x00001298: 00 00 00 00: 
             0x0000129c: 00 00 f1 ff: 
             0x000012a0: 30 1d 00 00: 
             0x000012a4: 01 00 00 00: 
             0x000012a8: 00 00 00 00: 
             0x000012ac: 00 00 f1 ff: 
             0x000012b0: 4c 1d 00 00: 
             0x000012b4: 01 00 00 00: 
             0x000012b8: 00 00 00 00: 
             0x000012bc: 00 00 f1 ff: 
             0x000012c0: 68 1d 00 00: 
             0x000012c4: 01 00 00 00: 
             0x000012c8: 00 00 00 00: 
             0x000012cc: 00 00 f1 ff: 
             0x000012d0: 85 1d 00 00: 
             0x000012d4: 01 00 00 00: 
             0x000012d8: 00 00 00 00: 
             0x000012dc: 00 00 f1 ff: 
             0x000012e0: a0 1d 00 00: 
             0x000012e4: 01 00 00 00: 
             0x000012e8: 00 00 00 00: 
             0x000012ec: 00 00 f1 ff: 
             0x000012f0: bb 1d 00 00: 
             0x000012f4: 01 00 00 00: 
             0x000012f8: 00 00 00 00: 
             0x000012fc: 00 00 f1 ff: 
             0x00001300: d8 1d 00 00: 
             0x00001304: 01 00 00 00: 
             0x00001308: 00 00 00 00: 
             0x0000130c: 00 00 f1 ff: 
             0x00001310: f8 1d 00 00: 
             0x00001314: 01 00 00 00: 
             0x00001318: 00 00 00 00: 
             0x0000131c: 00 00 f1 ff: 
             0x00001320: 1d 1e 00 00: 
             0x00001324: 01 00 00 00: 
             0x00001328: 00 00 00 00: 
             0x0000132c: 00 00 f1 ff: 
             0x00001330: 38 1e 00 00: 
             0x00001334: 01 00 00 00: 
             0x00001338: 00 00 00 00: 
             0x0000133c: 00 00 f1 ff: 
             0x00001340: 56 1e 00 00: 
             0x00001344: 01 00 00 00: 
             0x00001348: 00 00 00 00: 
             0x0000134c: 00 00 f1 ff: 
             0x00001350: 71 1e 00 00: 
             0x00001354: 01 00 00 00: 
             0x00001358: 00 00 00 00: 
             0x0000135c: 00 00 f1 ff: 
             0x00001360: 8e 1e 00 00: 
             0x00001364: 01 00 00 00: 
             0x00001368: 00 00 00 00: 
             0x0000136c: 00 00 f1 ff: 
             0x00001370: a9 1e 00 00: 
             0x00001374: 01 00 00 00: 
             0x00001378: 00 00 00 00: 
             0x0000137c: 00 00 f1 ff: 
             0x00001380: c4 1e 00 00: 
             0x00001384: 00 00 00 00: 
             0x00001388: 00 00 00 00: 
             0x0000138c: 10 00 f1 ff: 
             0x00001390: de 1e 00 00: 
             0x00001394: 01 00 00 00: 
             0x00001398: 00 00 00 00: 
             0x0000139c: 10 00 f1 ff: 
             0x000013a0: f5 1e 00 00: 
             0x000013a4: 00 00 00 00: 
             0x000013a8: 00 00 00 00: 
             0x000013ac: 10 00 f1 ff: 
             0x000013b0: 0d 1f 00 00: 
             0x000013b4: 00 00 00 00: 
             0x000013b8: 00 00 00 00: 
             0x000013bc: 10 00 f1 ff: 
             0x000013c0: 27 1f 00 00: 
             0x000013c4: 00 00 00 00: 
             0x000013c8: 00 00 00 00: 
             0x000013cc: 10 00 f1 ff: 
             0x000013d0: 3f 1f 00 00: 
             0x000013d4: 01 00 00 00: 
             0x000013d8: 00 00 00 00: 
             0x000013dc: 10 00 f1 ff: 
             0x000013e0: 54 1f 00 00: 
             0x000013e4: 00 00 00 00: 
             0x000013e8: 00 00 00 00: 
             0x000013ec: 10 00 f1 ff: 
             0x000013f0: 6a 1f 00 00: 
             0x000013f4: 00 00 00 00: 
             0x000013f8: 00 00 00 00: 
             0x000013fc: 10 00 f1 ff: 
             0x00001400: 82 1f 00 00: 
             0x00001404: 00 00 00 00: 
             0x00001408: 00 00 00 00: 
             0x0000140c: 10 00 f1 ff: 
             0x00001410: 9c 1f 00 00: 
             0x00001414: 01 00 00 00: 
             0x00001418: 00 00 00 00: 
             0x0000141c: 10 00 f1 ff: 
             0x00001420: b3 1f 00 00: 
             0x00001424: 00 00 00 00: 
             0x00001428: 00 00 00 00: 
             0x0000142c: 10 00 f1 ff: 
             0x00001430: cb 1f 00 00: 
             0x00001434: 00 00 00 00: 
             0x00001438: 00 00 00 00: 
             0x0000143c: 10 00 f1 ff: 
             0x00001440: e5 1f 00 00: 
             0x00001444: 00 00 00 00: 
             0x00001448: 00 00 00 00: 
             0x0000144c: 10 00 f1 ff: 
             0x00001450: 00 20 00 00: 
             0x00001454: 01 00 00 00: 
             0x00001458: 00 00 00 00: 
             0x0000145c: 10 00 f1 ff: 
             0x00001460: 18 20 00 00: 
             0x00001464: 00 00 00 00: 
             0x00001468: 00 00 00 00: 
             0x0000146c: 10 00 f1 ff: 
             0x00001470: 31 20 00 00: 
             0x00001474: 00 00 00 00: 
             0x00001478: 00 00 00 00: 
             0x0000147c: 10 00 f1 ff: 
             0x00001480: 4c 20 00 00: 
             0x00001484: 23 00 00 00: 
             0x00001488: 00 00 00 00: 
             0x0000148c: 10 00 f1 ff: 
             0x00001490: 70 20 00 00: 
             0x00001494: 01 00 00 00: 
             0x00001498: 00 00 00 00: 
             0x0000149c: 10 00 f1 ff: 
             0x000014a0: 91 20 00 00: 
             0x000014a4: 00 00 00 00: 
             0x000014a8: 00 00 00 00: 
             0x000014ac: 10 00 f1 ff: 
             0x000014b0: b3 20 00 00: 
             0x000014b4: 01 00 00 00: 
             0x000014b8: 00 00 00 00: 
             0x000014bc: 10 00 f1 ff: 
             0x000014c0: d7 20 00 00: 
             0x000014c4: 00 00 00 00: 
             0x000014c8: 00 00 00 00: 
             0x000014cc: 10 00 f1 ff: 
             0x000014d0: f1 20 00 00: 
             0x000014d4: 01 00 00 00: 
             0x000014d8: 00 00 00 00: 
             0x000014dc: 10 00 f1 ff: 
             0x000014e0: 08 21 00 00: 
             0x000014e4: 00 00 00 00: 
             0x000014e8: 00 00 00 00: 
             0x000014ec: 10 00 f1 ff: 
             0x000014f0: 20 21 00 00: 
             0x000014f4: 00 00 00 00: 
             0x000014f8: 00 00 00 00: 
             0x000014fc: 10 00 f1 ff: 
             0x00001500: 3a 21 00 00: 
             0x00001504: 00 00 00 00: 
             0x00001508: 00 00 00 00: 
             0x0000150c: 10 00 f1 ff: 
             0x00001510: 56 21 00 00: 
             0x00001514: 01 00 00 00: 
             0x00001518: 00 00 00 00: 
             0x0000151c: 10 00 f1 ff: 
             0x00001520: 6f 21 00 00: 
             0x00001524: 00 00 00 00: 
             0x00001528: 00 00 00 00: 
             0x0000152c: 10 00 f1 ff: 
             0x00001530: 89 21 00 00: 
             0x00001534: 00 00 00 00: 
             0x00001538: 00 00 00 00: 
             0x0000153c: 10 00 f1 ff: 
             0x00001540: a5 21 00 00: 
             0x00001544: 00 00 00 00: 
             0x00001548: 00 00 00 00: 
             0x0000154c: 10 00 f1 ff: 
             0x00001550: c4 21 00 00: 
             0x00001554: 01 00 00 00: 
             0x00001558: 00 00 00 00: 
             0x0000155c: 10 00 f1 ff: 
             0x00001560: e0 21 00 00: 
             0x00001564: 00 00 00 00: 
             0x00001568: 00 00 00 00: 
             0x0000156c: 10 00 f1 ff: 
             0x00001570: fd 21 00 00: 
             0x00001574: 00 00 00 00: 
             0x00001578: 00 00 00 00: 
             0x0000157c: 10 00 f1 ff: 
             0x00001580: 1c 22 00 00: 
             0x00001584: 00 00 00 00: 
             0x00001588: 00 00 00 00: 
             0x0000158c: 10 00 f1 ff: 
             0x00001590: 37 22 00 00: 
             0x00001594: 01 00 00 00: 
             0x00001598: 00 00 00 00: 
             0x0000159c: 10 00 f1 ff: 
             0x000015a0: 4f 22 00 00: 
             0x000015a4: 00 00 00 00: 
             0x000015a8: 00 00 00 00: 
             0x000015ac: 10 00 f1 ff: 
             0x000015b0: 68 22 00 00: 
             0x000015b4: 00 00 00 00: 
             0x000015b8: 00 00 00 00: 
             0x000015bc: 10 00 f1 ff: 
             0x000015c0: 83 22 00 00: 
             0x000015c4: 00 00 00 00: 
             0x000015c8: 00 00 00 00: 
             0x000015cc: 10 00 f1 ff: 
             0x000015d0: 9e 22 00 00: 
             0x000015d4: 01 00 00 00: 
             0x000015d8: 00 00 00 00: 
             0x000015dc: 10 00 f1 ff: 
             0x000015e0: b6 22 00 00: 
             0x000015e4: 00 00 00 00: 
             0x000015e8: 00 00 00 00: 
             0x000015ec: 10 00 f1 ff: 
             0x000015f0: cf 22 00 00: 
             0x000015f4: 00 00 00 00: 
             0x000015f8: 00 00 00 00: 
             0x000015fc: 10 00 f1 ff: 
             0x00001600: ea 22 00 00: 
             0x00001604: 00 00 00 00: 
             0x00001608: 00 00 00 00: 
             0x0000160c: 10 00 f1 ff: 
             0x00001610: 06 23 00 00: 
             0x00001614: 01 00 00 00: 
             0x00001618: 00 00 00 00: 
             0x0000161c: 10 00 f1 ff: 
             0x00001620: 1f 23 00 00: 
             0x00001624: 00 00 00 00: 
             0x00001628: 00 00 00 00: 
             0x0000162c: 10 00 f1 ff: 
             0x00001630: 39 23 00 00: 
             0x00001634: 00 00 00 00: 
             0x00001638: 00 00 00 00: 
             0x0000163c: 10 00 f1 ff: 
             0x00001640: 55 23 00 00: 
             0x00001644: 00 00 00 00: 
             0x00001648: 00 00 00 00: 
             0x0000164c: 10 00 f1 ff: 
             0x00001650: 6f 23 00 00: 
             0x00001654: 01 00 00 00: 
             0x00001658: 00 00 00 00: 
             0x0000165c: 10 00 f1 ff: 
             0x00001660: 86 23 00 00: 
             0x00001664: 00 00 00 00: 
             0x00001668: 00 00 00 00: 
             0x0000166c: 10 00 f1 ff: 
             0x00001670: 9e 23 00 00: 
             0x00001674: 00 00 00 00: 
             0x00001678: 00 00 00 00: 
             0x0000167c: 10 00 f1 ff: 
             0x00001680: b8 23 00 00: 
             0x00001684: 08 00 00 00: 
             0x00001688: 00 00 00 00: 
             0x0000168c: 10 00 f1 ff: 
             0x00001690: d2 23 00 00: 
             0x00001694: 01 00 00 00: 
             0x00001698: 00 00 00 00: 
             0x0000169c: 10 00 f1 ff: 
             0x000016a0: e9 23 00 00: 
             0x000016a4: 00 00 00 00: 
             0x000016a8: 00 00 00 00: 
             0x000016ac: 10 00 f1 ff: 
             0x000016b0: 01 24 00 00: 
             0x000016b4: 00 00 00 00: 
             0x000016b8: 00 00 00 00: 
             0x000016bc: 10 00 f1 ff: 
             0x000016c0: 1b 24 00 00: 
             0x000016c4: 0b 00 00 00: 
             0x000016c8: 00 00 00 00: 
             0x000016cc: 10 00 f1 ff: 
             0x000016d0: 38 24 00 00: 
             0x000016d4: 01 00 00 00: 
             0x000016d8: 00 00 00 00: 
             0x000016dc: 10 00 f1 ff: 
             0x000016e0: 52 24 00 00: 
             0x000016e4: 00 00 00 00: 
             0x000016e8: 00 00 00 00: 
             0x000016ec: 10 00 f1 ff: 
             0x000016f0: 6d 24 00 00: 
             0x000016f4: 00 00 00 00: 
             0x000016f8: 00 00 00 00: 
             0x000016fc: 10 00 f1 ff: 
             0x00001700: 8a 24 00 00: 
             0x00001704: 00 00 00 00: 
             0x00001708: 00 00 00 00: 
             0x0000170c: 10 00 00 00: 
             0x00001710: ad 24 00 00: 
             0x00001714: 08 00 00 00: 
             0x00001718: 00 00 00 00: 
             0x0000171c: 10 00 f1 ff: 
             0x00001720: c7 24 00 00: 
             0x00001724: 01 00 00 00: 
             0x00001728: 00 00 00 00: 
             0x0000172c: 10 00 f1 ff: 
             0x00001730: de 24 00 00: 
             0x00001734: 00 00 00 00: 
             0x00001738: 00 00 00 00: 
             0x0000173c: 10 00 f1 ff: 
             0x00001740: f6 24 00 00: 
             0x00001744: 00 00 00 00: 
             0x00001748: 00 00 00 00: 
             0x0000174c: 10 00 f1 ff: 
             0x00001750: 10 25 00 00: 
             0x00001754: 0a 00 00 00: 
             0x00001758: 00 00 00 00: 
             0x0000175c: 10 00 f1 ff: 
             0x00001760: 2c 25 00 00: 
             0x00001764: 01 00 00 00: 
             0x00001768: 00 00 00 00: 
             0x0000176c: 10 00 f1 ff: 
             0x00001770: 45 25 00 00: 
             0x00001774: 00 00 00 00: 
             0x00001778: 00 00 00 00: 
             0x0000177c: 10 00 f1 ff: 
             0x00001780: 5f 25 00 00: 
             0x00001784: 00 00 00 00: 
             0x00001788: 00 00 00 00: 
             0x0000178c: 10 00 f1 ff: 
             0x00001790: 7b 25 00 00: 
             0x00001794: 0c 01 00 00: 
             0x00001798: 00 00 00 00: 
             0x0000179c: 10 00 f1 ff: 
             0x000017a0: 95 25 00 00: 
             0x000017a4: 03 00 00 00: 
             0x000017a8: 00 00 00 00: 
             0x000017ac: 10 00 f1 ff: 
             0x000017b0: af 25 00 00: 
             0x000017b4: 01 00 00 00: 
             0x000017b8: 00 00 00 00: 
             0x000017bc: 10 00 f1 ff: 
             0x000017c0: c6 25 00 00: 
             0x000017c4: 01 00 00 00: 
             0x000017c8: 00 00 00 00: 
             0x000017cc: 10 00 f1 ff: 
             0x000017d0: dd 25 00 00: 
             0x000017d4: 00 00 00 00: 
             0x000017d8: 00 00 00 00: 
             0x000017dc: 10 00 f1 ff: 
             0x000017e0: f5 25 00 00: 
             0x000017e4: 00 00 00 00: 
             0x000017e8: 00 00 00 00: 
             0x000017ec: 10 00 f1 ff: 
             0x000017f0: 0d 26 00 00: 
             0x000017f4: 00 00 00 00: 
             0x000017f8: 00 00 00 00: 
             0x000017fc: 10 00 f1 ff: 
             0x00001800: 27 26 00 00: 
             0x00001804: 00 00 00 00: 
             0x00001808: 00 00 00 00: 
             0x0000180c: 10 00 f1 ff: 
             0x00001810: 41 26 00 00: 
             0x00001814: 00 00 00 00: 
             0x00001818: 00 00 00 00: 
             0x0000181c: 04 00 f1 ff: 
             0x00001820: 53 26 00 00: 
             0x00001824: 00 00 00 00: 
             0x00001828: 00 00 00 00: 
             0x0000182c: 10 00 f1 ff: 
             0x00001830: 6e 26 00 00: 
             0x00001834: 00 00 00 00: 
             0x00001838: 00 00 00 00: 
             0x0000183c: 10 00 f1 ff: 
             0x00001840: 86 26 00 00: 
             0x00001844: 00 00 00 00: 
             0x00001848: 00 00 00 00: 
             0x0000184c: 10 00 f1 ff: 
             0x00001850: 9f 26 00 00: 
             0x00001854: 00 00 00 00: 
             0x00001858: 00 00 00 00: 
             0x0000185c: 10 00 f1 ff: 
             0x00001860: ba 26 00 00: 
             0x00001864: ca 02 01 00: 
             0x00001868: 00 00 00 00: 
             0x0000186c: 10 00 0d 00: 
             0x00001870: c9 26 00 00: 
             0x00001874: 00 00 00 00: 
             0x00001878: 00 00 00 00: 
             0x0000187c: 10 00 f1 ff: 
             0x00001880: e9 26 00 00: 
             0x00001884: 00 00 00 00: 
             0x00001888: 00 00 00 00: 
             0x0000188c: 10 00 f1 ff: 
             0x00001890: 06 27 00 00: 
             0x00001894: 00 00 00 00: 
             0x00001898: 00 00 00 00: 
             0x0000189c: 10 00 f1 ff: 
             0x000018a0: 24 27 00 00: 
             0x000018a4: 00 00 00 00: 
             0x000018a8: 00 00 00 00: 
             0x000018ac: 10 00 f1 ff: 
             0x000018b0: 44 27 00 00: 
             0x000018b4: 00 00 00 00: 
             0x000018b8: 00 00 00 00: 
             0x000018bc: 10 00 f1 ff: 
             0x000018c0: 68 27 00 00: 
             0x000018c4: 00 00 00 00: 
             0x000018c8: 00 00 00 00: 
             0x000018cc: 10 00 f1 ff: 
             0x000018d0: 89 27 00 00: 
             0x000018d4: 00 00 00 00: 
             0x000018d8: 00 00 00 00: 
             0x000018dc: 10 00 f1 ff: 
             0x000018e0: ab 27 00 00: 
             0x000018e4: 00 00 00 00: 
             0x000018e8: 00 00 00 00: 
             0x000018ec: 10 00 f1 ff: 
             0x000018f0: cf 27 00 00: 
             0x000018f4: 00 00 00 00: 
             0x000018f8: 00 00 00 00: 
             0x000018fc: 10 00 f1 ff: 
             0x00001900: f7 27 00 00: 
             0x00001904: 00 00 00 00: 
             0x00001908: 00 00 00 00: 
             0x0000190c: 10 00 f1 ff: 
             0x00001910: 1c 28 00 00: 
             0x00001914: 00 00 00 00: 
             0x00001918: 00 00 00 00: 
             0x0000191c: 10 00 f1 ff: 
             0x00001920: 42 28 00 00: 
             0x00001924: 00 00 00 00: 
             0x00001928: 00 00 00 00: 
             0x0000192c: 10 00 f1 ff: 
             0x00001930: 6a 28 00 00: 
             0x00001934: 00 00 00 00: 
             0x00001938: 00 00 00 00: 
             0x0000193c: 10 00 f1 ff: 
             0x00001940: 88 28 00 00: 
             0x00001944: 00 00 00 00: 
             0x00001948: 00 00 00 00: 
             0x0000194c: 10 00 f1 ff: 
             0x00001950: a3 28 00 00: 
             0x00001954: 00 00 00 00: 
             0x00001958: 00 00 00 00: 
             0x0000195c: 10 00 f1 ff: 
             0x00001960: bf 28 00 00: 
             0x00001964: 01 00 00 00: 
             0x00001968: 00 00 00 00: 
             0x0000196c: 10 00 f1 ff: 
             0x00001970: dd 28 00 00: 
             0x00001974: e0 02 01 00: 
             0x00001978: 00 00 00 00: 
             0x0000197c: 10 00 0d 00: 
             0x00001980: ef 28 00 00: 
             0x00001984: 05 00 00 00: 
             0x00001988: 00 00 00 00: 
             0x0000198c: 10 00 f1 ff: 
             0x00001990: 0f 29 00 00: 
             0x00001994: 00 00 00 00: 
             0x00001998: 00 00 00 00: 
             0x0000199c: 10 00 f1 ff: 
             0x000019a0: 2c 29 00 00: 
             0x000019a4: 00 00 00 00: 
             0x000019a8: 00 00 00 00: 
             0x000019ac: 10 00 f1 ff: 
             0x000019b0: 4a 29 00 00: 
             0x000019b4: 00 00 00 00: 
             0x000019b8: 00 00 00 00: 
             0x000019bc: 10 00 f1 ff: 
             0x000019c0: 6a 29 00 00: 
             0x000019c4: 02 03 01 00: 
             0x000019c8: 00 00 00 00: 
             0x000019cc: 10 00 0d 00: 
             0x000019d0: 7e 29 00 00: 
             0x000019d4: 02 00 00 00: 
             0x000019d8: 00 00 00 00: 
             0x000019dc: 10 00 f1 ff: 
             0x000019e0: 9b 29 00 00: 
             0x000019e4: 01 00 00 00: 
             0x000019e8: 00 00 00 00: 
             0x000019ec: 10 00 f1 ff: 
             0x000019f0: b5 29 00 00: 
             0x000019f4: 00 00 00 00: 
             0x000019f8: 00 00 00 00: 
             0x000019fc: 10 00 f1 ff: 
             0x00001a00: d0 29 00 00: 
             0x00001a04: 00 00 00 00: 
             0x00001a08: 00 00 00 00: 
             0x00001a0c: 10 00 f1 ff: 
             0x00001a10: ed 29 00 00: 
             0x00001a14: 2c 03 01 00: 
             0x00001a18: 00 00 00 00: 
             0x00001a1c: 10 00 0d 00: 
             0x00001a20: fe 29 00 00: 
             0x00001a24: 00 00 00 00: 
             0x00001a28: 00 00 00 00: 
             0x00001a2c: 10 00 f1 ff: 
             0x00001a30: 19 2a 00 00: 
             0x00001a34: 00 00 00 00: 
             0x00001a38: 00 00 00 00: 
             0x00001a3c: 10 00 f1 ff: 
             0x00001a40: 31 2a 00 00: 
             0x00001a44: 00 00 00 00: 
             0x00001a48: 00 00 00 00: 
             0x00001a4c: 10 00 f1 ff: 
             0x00001a50: 4a 2a 00 00: 
             0x00001a54: 00 00 00 00: 
             0x00001a58: 00 00 00 00: 
             0x00001a5c: 10 00 f1 ff: 
             0x00001a60: 65 2a 00 00: 
             0x00001a64: 78 03 01 00: 
             0x00001a68: 00 00 00 00: 
             0x00001a6c: 10 00 0d 00: 
             0x00001a70: 74 2a 00 00: 
             0x00001a74: 00 00 00 00: 
             0x00001a78: 00 00 00 00: 
             0x00001a7c: 10 00 f1 ff: 
             0x00001a80: 94 2a 00 00: 
             0x00001a84: 00 00 00 00: 
             0x00001a88: 00 00 00 00: 
             0x00001a8c: 10 00 f1 ff: 
             0x00001a90: b1 2a 00 00: 
             0x00001a94: 00 00 00 00: 
             0x00001a98: 00 00 00 00: 
             0x00001a9c: 10 00 f1 ff: 
             0x00001aa0: cf 2a 00 00: 
             0x00001aa4: 00 00 00 00: 
             0x00001aa8: 00 00 00 00: 
             0x00001aac: 10 00 f1 ff: 
             0x00001ab0: ef 2a 00 00: 
             0x00001ab4: 00 00 00 00: 
             0x00001ab8: 00 00 00 00: 
             0x00001abc: 10 00 f1 ff: 
             0x00001ac0: 0c 2b 00 00: 
             0x00001ac4: 00 00 00 00: 
             0x00001ac8: 00 00 00 00: 
             0x00001acc: 10 00 f1 ff: 
             0x00001ad0: 26 2b 00 00: 
             0x00001ad4: 00 00 00 00: 
             0x00001ad8: 00 00 00 00: 
             0x00001adc: 10 00 f1 ff: 
             0x00001ae0: 41 2b 00 00: 
             0x00001ae4: 00 00 00 00: 
             0x00001ae8: 00 00 00 00: 
             0x00001aec: 10 00 f1 ff: 
             0x00001af0: 5e 2b 00 00: 
             0x00001af4: 00 00 00 00: 
             0x00001af8: 00 00 00 00: 
             0x00001afc: 10 00 f1 ff: 
             0x00001b00: 7b 2b 00 00: 
             0x00001b04: 00 00 00 00: 
             0x00001b08: 00 00 00 00: 
             0x00001b0c: 10 00 f1 ff: 
             0x00001b10: 95 2b 00 00: 
             0x00001b14: 00 00 00 00: 
             0x00001b18: 00 00 00 00: 
             0x00001b1c: 10 00 f1 ff: 
             0x00001b20: b2 2b 00 00: 
             0x00001b24: 00 00 00 00: 
             0x00001b28: 00 00 00 00: 
             0x00001b2c: 00 00 f1 ff: 
             0x00001b30: cd 2b 00 00: 
             0x00001b34: 00 00 00 00: 
             0x00001b38: 00 00 00 00: 
             0x00001b3c: 10 00 f1 ff: 
             0x00001b40: ee 2b 00 00: 
             0x00001b44: 00 00 00 00: 
             0x00001b48: 00 00 00 00: 
             0x00001b4c: 10 00 f1 ff: 
             0x00001b50: 0c 2c 00 00: 
             0x00001b54: 00 00 00 00: 
             0x00001b58: 00 00 00 00: 
             0x00001b5c: 10 00 f1 ff: 
             0x00001b60: 2b 2c 00 00: 
             0x00001b64: 00 00 00 00: 
             0x00001b68: 00 00 00 00: 
             0x00001b6c: 10 00 f1 ff: 
             0x00001b70: 4c 2c 00 00: 
             0x00001b74: 00 00 00 00: 
             0x00001b78: 00 00 00 00: 
             0x00001b7c: 10 00 f1 ff: 
             0x00001b80: 6b 2c 00 00: 
             0x00001b84: 00 00 00 00: 
             0x00001b88: 00 00 00 00: 
             0x00001b8c: 10 00 f1 ff: 
             0x00001b90: 87 2c 00 00: 
             0x00001b94: 00 00 00 00: 
             0x00001b98: 00 00 00 00: 
             0x00001b9c: 10 00 f1 ff: 
             0x00001ba0: a4 2c 00 00: 
             0x00001ba4: 00 00 00 00: 
             0x00001ba8: 00 00 00 00: 
             0x00001bac: 10 00 f1 ff: 
             0x00001bb0: c3 2c 00 00: 
             0x00001bb4: 00 00 00 00: 
             0x00001bb8: 00 00 00 00: 
             0x00001bbc: 10 00 f1 ff: 
             0x00001bc0: de 2c 00 00: 
             0x00001bc4: 00 00 00 00: 
             0x00001bc8: 00 00 00 00: 
             0x00001bcc: 10 00 f1 ff: 
             0x00001bd0: f6 2c 00 00: 
             0x00001bd4: 00 00 00 00: 
             0x00001bd8: 00 00 00 00: 
             0x00001bdc: 10 00 f1 ff: 
             0x00001be0: 0f 2d 00 00: 
             0x00001be4: 00 00 00 00: 
             0x00001be8: 00 00 00 00: 
             0x00001bec: 10 00 f1 ff: 
             0x00001bf0: 2a 2d 00 00: 
             0x00001bf4: 00 00 00 00: 
             0x00001bf8: 00 00 00 00: 
             0x00001bfc: 10 00 f1 ff: 
             0x00001c00: 3e 2d 00 00: 
             0x00001c04: 7a 03 01 00: 
             0x00001c08: 00 00 00 00: 
             0x00001c0c: 10 00 0d 00: 
             0x00001c10: 46 2d 00 00: 
             0x00001c14: 7e 03 01 00: 
             0x00001c18: 00 00 00 00: 
             0x00001c1c: 10 00 0d 00: 
             0x00001c20: 50 2d 00 00: 
             0x00001c24: 00 00 00 00: 
             0x00001c28: 00 00 00 00: 
             0x00001c2c: 10 00 f1 ff: 
             0x00001c30: 66 2d 00 00: 
             0x00001c34: 82 03 01 00: 
             0x00001c38: 00 00 00 00: 
             0x00001c3c: 10 00 0d 00: 
             0x00001c40: 6f 2d 00 00: 
             0x00001c44: 00 00 00 00: 
             0x00001c48: 00 00 00 00: 
             0x00001c4c: 10 00 f1 ff: 
             0x00001c50: 84 2d 00 00: 
             0x00001c54: 86 03 01 00: 
             0x00001c58: 00 00 00 00: 
             0x00001c5c: 10 00 0d 00: 
             0x00001c60: 8e 2d 00 00: 
             0x00001c64: 00 00 00 00: 
             0x00001c68: 00 00 00 00: 
             0x00001c6c: 10 00 f1 ff: 
             0x00001c70: a4 2d 00 00: 
             0x00001c74: 20 0d 01 00: 
             0x00001c78: 32 00 00 00: 
             0x00001c7c: 12 00 0d 00: 
             0x00001c80: af 2d 00 00: 
             0x00001c84: f4 06 01 00: 
             0x00001c88: e4 00 00 00: 
             0x00001c8c: 12 00 0d 00: 
             0x00001c90: bc 2d 00 00: 
             0x00001c94: 00 00 00 00: 
             0x00001c98: 00 00 00 00: 
             0x00001c9c: 04 00 f1 ff: 
             0x00001ca0: a2 06 00 00: 
             0x00001ca4: 00 00 00 00: 
             0x00001ca8: 00 00 00 00: 
             0x00001cac: 00 00 f1 ff: 
             0x00001cb0: d2 2d 00 00: 
             0x00001cb4: ee 03 01 00: 
             0x00001cb8: 40 00 00 00: 
             0x00001cbc: 12 00 0d 00: 
             0x00001cc0: ef 2d 00 00: 
             0x00001cc4: 06 0b 01 00: 
             0x00001cc8: 06 00 00 00: 
             0x00001ccc: 12 00 0d 00: 
             0x00001cd0: ff 2d 00 00: 
             0x00001cd4: c0 03 01 00: 
             0x00001cd8: 2e 00 00 00: 
             0x00001cdc: 12 00 0d 00: 
             0x00001ce0: 1e 2e 00 00: 
             0x00001ce4: 8a 03 01 00: 
             0x00001ce8: 36 00 00 00: 
             0x00001cec: 12 00 0d 00: 
             0x00001cf0: 3c 2e 00 00: 
             0x00001cf4: 01 00 00 00: 
             0x00001cf8: 00 00 00 00: 
             0x00001cfc: 00 00 f1 ff: 
             0x00001d00: 5a 2e 00 00: 
             0x00001d04: 01 00 00 00: 
             0x00001d08: 00 00 00 00: 
             0x00001d0c: 00 00 f1 ff: 
             0x00001d10: 82 2e 00 00: 
             0x00001d14: 01 00 00 00: 
             0x00001d18: 00 00 00 00: 
             0x00001d1c: 00 00 f1 ff: 
             0x00001d20: ab 2e 00 00: 
             0x00001d24: 01 00 00 00: 
             0x00001d28: 00 00 00 00: 
             0x00001d2c: 00 00 f1 ff: 
             0x00001d30: d0 2e 00 00: 
             0x00001d34: 01 00 00 00: 
             0x00001d38: 00 00 00 00: 
             0x00001d3c: 00 00 f1 ff: 
             0x00001d40: f8 2e 00 00: 
             0x00001d44: 01 00 00 00: 
             0x00001d48: 00 00 00 00: 
             0x00001d4c: 00 00 f1 ff: 
             0x00001d50: 1d 2f 00 00: 
             0x00001d54: 01 00 00 00: 
             0x00001d58: 00 00 00 00: 
             0x00001d5c: 00 00 f1 ff: 
             0x00001d60: 41 2f 00 00: 
             0x00001d64: 01 00 00 00: 
             0x00001d68: 00 00 00 00: 
             0x00001d6c: 00 00 f1 ff: 
             0x00001d70: 66 2f 00 00: 
             0x00001d74: 01 00 00 00: 
             0x00001d78: 00 00 00 00: 
             0x00001d7c: 00 00 f1 ff: 
             0x00001d80: 8d 2f 00 00: 
             0x00001d84: 01 00 00 00: 
             0x00001d88: 00 00 00 00: 
             0x00001d8c: 00 00 f1 ff: 
             0x00001d90: a6 2f 00 00: 
             0x00001d94: 01 00 00 00: 
             0x00001d98: 00 00 00 00: 
             0x00001d9c: 00 00 f1 ff: 
             0x00001da0: c3 2f 00 00: 
             0x00001da4: 01 00 00 00: 
             0x00001da8: 00 00 00 00: 
             0x00001dac: 00 00 f1 ff: 
             0x00001db0: da 2f 00 00: 
             0x00001db4: 01 00 00 00: 
             0x00001db8: 00 00 00 00: 
             0x00001dbc: 00 00 f1 ff: 
             0x00001dc0: eb 2f 00 00: 
             0x00001dc4: 01 00 00 00: 
             0x00001dc8: 00 00 00 00: 
             0x00001dcc: 00 00 f1 ff: 
             0x00001dd0: 0c 30 00 00: 
             0x00001dd4: 01 00 00 00: 
             0x00001dd8: 00 00 00 00: 
             0x00001ddc: 00 00 f1 ff: 
             0x00001de0: 37 30 00 00: 
             0x00001de4: 01 00 00 00: 
             0x00001de8: 00 00 00 00: 
             0x00001dec: 00 00 f1 ff: 
             0x00001df0: 63 30 00 00: 
             0x00001df4: 01 00 00 00: 
             0x00001df8: 00 00 00 00: 
             0x00001dfc: 00 00 f1 ff: 
             0x00001e00: 8b 30 00 00: 
             0x00001e04: 01 00 00 00: 
             0x00001e08: 00 00 00 00: 
             0x00001e0c: 00 00 f1 ff: 
             0x00001e10: b6 30 00 00: 
             0x00001e14: 01 00 00 00: 
             0x00001e18: 00 00 00 00: 
             0x00001e1c: 00 00 f1 ff: 
             0x00001e20: de 30 00 00: 
             0x00001e24: 01 00 00 00: 
             0x00001e28: 00 00 00 00: 
             0x00001e2c: 00 00 f1 ff: 
             0x00001e30: 05 31 00 00: 
             0x00001e34: 01 00 00 00: 
             0x00001e38: 00 00 00 00: 
             0x00001e3c: 00 00 f1 ff: 
             0x00001e40: 2d 31 00 00: 
             0x00001e44: 01 00 00 00: 
             0x00001e48: 00 00 00 00: 
             0x00001e4c: 00 00 f1 ff: 
             0x00001e50: 57 31 00 00: 
             0x00001e54: 01 00 00 00: 
             0x00001e58: 00 00 00 00: 
             0x00001e5c: 00 00 f1 ff: 
             0x00001e60: 73 31 00 00: 
             0x00001e64: 01 00 00 00: 
             0x00001e68: 00 00 00 00: 
             0x00001e6c: 00 00 f1 ff: 
             0x00001e70: 93 31 00 00: 
             0x00001e74: 01 00 00 00: 
             0x00001e78: 00 00 00 00: 
             0x00001e7c: 00 00 f1 ff: 
             0x00001e80: a3 31 00 00: 
             0x00001e84: 01 00 00 00: 
             0x00001e88: 00 00 00 00: 
             0x00001e8c: 00 00 f1 ff: 
             0x00001e90: bd 31 00 00: 
             0x00001e94: 01 00 00 00: 
             0x00001e98: 00 00 00 00: 
             0x00001e9c: 00 00 f1 ff: 
             0x00001ea0: d1 31 00 00: 
             0x00001ea4: 07 00 00 00: 
             0x00001ea8: 00 00 00 00: 
             0x00001eac: 10 00 f1 ff: 
             0x00001eb0: e0 31 00 00: 
             0x00001eb4: 06 00 00 00: 
             0x00001eb8: 00 00 00 00: 
             0x00001ebc: 10 00 f1 ff: 
             0x00001ec0: 00 32 00 00: 
             0x00001ec4: 01 00 00 00: 
             0x00001ec8: 00 00 00 00: 
             0x00001ecc: 10 00 f1 ff: 
             0x00001ed0: 0c 32 00 00: 
             0x00001ed4: 01 00 00 00: 
             0x00001ed8: 00 00 00 00: 
             0x00001edc: 10 00 f1 ff: 
             0x00001ee0: 29 32 00 00: 
             0x00001ee4: 00 00 00 00: 
             0x00001ee8: 00 00 00 00: 
             0x00001eec: 10 00 f1 ff: 
             0x00001ef0: 36 32 00 00: 
             0x00001ef4: 00 00 00 00: 
             0x00001ef8: 00 00 00 00: 
             0x00001efc: 10 00 f1 ff: 
             0x00001f00: 54 32 00 00: 
             0x00001f04: 01 00 00 00: 
             0x00001f08: 00 00 00 00: 
             0x00001f0c: 10 00 f1 ff: 
             0x00001f10: 63 32 00 00: 
             0x00001f14: 01 00 00 00: 
             0x00001f18: 00 00 00 00: 
             0x00001f1c: 10 00 f1 ff: 
             0x00001f20: 83 32 00 00: 
             0x00001f24: 01 00 00 00: 
             0x00001f28: 00 00 00 00: 
             0x00001f2c: 10 00 f1 ff: 
             0x00001f30: 96 32 00 00: 
             0x00001f34: 01 00 00 00: 
             0x00001f38: 00 00 00 00: 
             0x00001f3c: 10 00 f1 ff: 
             0x00001f40: a6 32 00 00: 
             0x00001f44: 00 00 00 00: 
             0x00001f48: 00 00 00 00: 
             0x00001f4c: 10 00 f1 ff: 
             0x00001f50: b7 32 00 00: 
             0x00001f54: 00 00 00 00: 
             0x00001f58: 00 00 00 00: 
             0x00001f5c: 10 00 f1 ff: 
             0x00001f60: ca 32 00 00: 
             0x00001f64: 00 00 00 00: 
             0x00001f68: 00 00 00 00: 
             0x00001f6c: 10 00 f1 ff: 
             0x00001f70: e6 32 00 00: 
             0x00001f74: 01 00 00 00: 
             0x00001f78: 00 00 00 00: 
             0x00001f7c: 10 00 f1 ff: 
             0x00001f80: ff 32 00 00: 
             0x00001f84: 00 00 00 00: 
             0x00001f88: 00 00 00 00: 
             0x00001f8c: 10 00 f1 ff: 
             0x00001f90: 19 33 00 00: 
             0x00001f94: 00 00 00 00: 
             0x00001f98: 00 00 00 00: 
             0x00001f9c: 10 00 f1 ff: 
             0x00001fa0: 35 33 00 00: 
             0x00001fa4: 05 00 00 00: 
             0x00001fa8: 00 00 00 00: 
             0x00001fac: 10 00 f1 ff: 
             0x00001fb0: 5f 33 00 00: 
             0x00001fb4: 01 00 00 00: 
             0x00001fb8: 00 00 00 00: 
             0x00001fbc: 10 00 f1 ff: 
             0x00001fc0: 86 33 00 00: 
             0x00001fc4: 00 00 00 00: 
             0x00001fc8: 00 00 00 00: 
             0x00001fcc: 10 00 f1 ff: 
             0x00001fd0: ae 33 00 00: 
             0x00001fd4: 01 00 00 00: 
             0x00001fd8: 00 00 00 00: 
             0x00001fdc: 10 00 f1 ff: 
             0x00001fe0: d8 33 00 00: 
             0x00001fe4: 04 00 00 00: 
             0x00001fe8: 00 00 00 00: 
             0x00001fec: 10 00 f1 ff: 
             0x00001ff0: 03 34 00 00: 
             0x00001ff4: 01 00 00 00: 
             0x00001ff8: 00 00 00 00: 
             0x00001ffc: 10 00 f1 ff: 
             0x00002000: 2b 34 00 00: 
             0x00002004: 00 00 00 00: 
             0x00002008: 00 00 00 00: 
             0x0000200c: 10 00 f1 ff: 
             0x00002010: 54 34 00 00: 
             0x00002014: 01 00 00 00: 
             0x00002018: 00 00 00 00: 
             0x0000201c: 10 00 f1 ff: 
             0x00002020: 7f 34 00 00: 
             0x00002024: 04 00 00 00: 
             0x00002028: 00 00 00 00: 
             0x0000202c: 10 00 f1 ff: 
             0x00002030: a6 34 00 00: 
             0x00002034: 01 00 00 00: 
             0x00002038: 00 00 00 00: 
             0x0000203c: 10 00 f1 ff: 
             0x00002040: ca 34 00 00: 
             0x00002044: 00 00 00 00: 
             0x00002048: 00 00 00 00: 
             0x0000204c: 10 00 f1 ff: 
             0x00002050: ef 34 00 00: 
             0x00002054: 01 00 00 00: 
             0x00002058: 00 00 00 00: 
             0x0000205c: 10 00 f1 ff: 
             0x00002060: 16 35 00 00: 
             0x00002064: 05 00 00 00: 
             0x00002068: 00 00 00 00: 
             0x0000206c: 10 00 f1 ff: 
             0x00002070: 40 35 00 00: 
             0x00002074: 01 00 00 00: 
             0x00002078: 00 00 00 00: 
             0x0000207c: 10 00 f1 ff: 
             0x00002080: 67 35 00 00: 
             0x00002084: 00 00 00 00: 
             0x00002088: 00 00 00 00: 
             0x0000208c: 10 00 f1 ff: 
             0x00002090: 8f 35 00 00: 
             0x00002094: 01 00 00 00: 
             0x00002098: 00 00 00 00: 
             0x0000209c: 10 00 f1 ff: 
             0x000020a0: b9 35 00 00: 
             0x000020a4: 04 00 00 00: 
             0x000020a8: 00 00 00 00: 
             0x000020ac: 10 00 f1 ff: 
             0x000020b0: e0 35 00 00: 
             0x000020b4: 01 00 00 00: 
             0x000020b8: 00 00 00 00: 
             0x000020bc: 10 00 f1 ff: 
             0x000020c0: 04 36 00 00: 
             0x000020c4: 00 00 00 00: 
             0x000020c8: 00 00 00 00: 
             0x000020cc: 10 00 f1 ff: 
             0x000020d0: 29 36 00 00: 
             0x000020d4: 01 00 00 00: 
             0x000020d8: 00 00 00 00: 
             0x000020dc: 10 00 f1 ff: 
             0x000020e0: 50 36 00 00: 
             0x000020e4: 04 00 00 00: 
             0x000020e8: 00 00 00 00: 
             0x000020ec: 10 00 f1 ff: 
             0x000020f0: 76 36 00 00: 
             0x000020f4: 01 00 00 00: 
             0x000020f8: 00 00 00 00: 
             0x000020fc: 10 00 f1 ff: 
             0x00002100: 99 36 00 00: 
             0x00002104: 00 00 00 00: 
             0x00002108: 00 00 00 00: 
             0x0000210c: 10 00 f1 ff: 
             0x00002110: bd 36 00 00: 
             0x00002114: 01 00 00 00: 
             0x00002118: 00 00 00 00: 
             0x0000211c: 10 00 f1 ff: 
             0x00002120: e3 36 00 00: 
             0x00002124: 05 00 00 00: 
             0x00002128: 00 00 00 00: 
             0x0000212c: 10 00 f1 ff: 
             0x00002130: 0a 37 00 00: 
             0x00002134: 01 00 00 00: 
             0x00002138: 00 00 00 00: 
             0x0000213c: 10 00 f1 ff: 
             0x00002140: 2e 37 00 00: 
             0x00002144: 00 00 00 00: 
             0x00002148: 00 00 00 00: 
             0x0000214c: 10 00 f1 ff: 
             0x00002150: 53 37 00 00: 
             0x00002154: 01 00 00 00: 
             0x00002158: 00 00 00 00: 
             0x0000215c: 10 00 f1 ff: 
             0x00002160: 7a 37 00 00: 
             0x00002164: 07 00 00 00: 
             0x00002168: 00 00 00 00: 
             0x0000216c: 10 00 f1 ff: 
             0x00002170: a3 37 00 00: 
             0x00002174: 01 00 00 00: 
             0x00002178: 00 00 00 00: 
             0x0000217c: 10 00 f1 ff: 
             0x00002180: c9 37 00 00: 
             0x00002184: 00 00 00 00: 
             0x00002188: 00 00 00 00: 
             0x0000218c: 10 00 f1 ff: 
             0x00002190: f0 37 00 00: 
             0x00002194: 01 00 00 00: 
             0x00002198: 00 00 00 00: 
             0x0000219c: 10 00 f1 ff: 
             0x000021a0: 19 38 00 00: 
             0x000021a4: 00 00 00 00: 
             0x000021a8: 00 00 00 00: 
             0x000021ac: 10 00 f1 ff: 
             0x000021b0: 34 38 00 00: 
             0x000021b4: 01 00 00 00: 
             0x000021b8: 00 00 00 00: 
             0x000021bc: 10 00 f1 ff: 
             0x000021c0: 4c 38 00 00: 
             0x000021c4: 00 00 00 00: 
             0x000021c8: 00 00 00 00: 
             0x000021cc: 10 00 f1 ff: 
             0x000021d0: 65 38 00 00: 
             0x000021d4: 00 00 00 00: 
             0x000021d8: 00 00 00 00: 
             0x000021dc: 10 00 f1 ff: 
             0x000021e0: 80 38 00 00: 
             0x000021e4: 00 00 00 00: 
             0x000021e8: 00 00 00 00: 
             0x000021ec: 10 00 f1 ff: 
             0x000021f0: 9f 38 00 00: 
             0x000021f4: 01 00 00 00: 
             0x000021f8: 00 00 00 00: 
             0x000021fc: 10 00 f1 ff: 
             0x00002200: bb 38 00 00: 
             0x00002204: 00 00 00 00: 
             0x00002208: 00 00 00 00: 
             0x0000220c: 10 00 f1 ff: 
             0x00002210: d8 38 00 00: 
             0x00002214: 00 00 00 00: 
             0x00002218: 00 00 00 00: 
             0x0000221c: 10 00 f1 ff: 
             0x00002220: f7 38 00 00: 
             0x00002224: 80 11 01 00: 
             0x00002228: 00 00 00 00: 
             0x0000222c: 12 00 f1 ff: 
             0x00002230: 33 39 00 00: 
             0x00002234: 00 00 00 00: 
             0x00002238: 00 00 00 00: 
             0x0000223c: 10 00 f1 ff: 
             0x00002240: 7b 39 00 00: 
             0x00002244: 00 00 00 00: 
             0x00002248: 00 00 00 00: 
             0x0000224c: 04 00 f1 ff: 
             0x00002250: 9a 39 00 00: 
             0x00002254: 01 00 00 00: 
             0x00002258: 00 00 00 00: 
             0x0000225c: 00 00 f1 ff: 
             0x00002260: b4 39 00 00: 
             0x00002264: 2e 04 01 00: 
             0x00002268: 10 00 00 00: 
             0x0000226c: 12 00 0d 00: 
             0x00002270: c4 39 00 00: 
             0x00002274: 01 00 00 00: 
             0x00002278: 00 00 00 00: 
             0x0000227c: 00 00 f1 ff: 
             0x00002280: e1 39 00 00: 
             0x00002284: 01 00 00 00: 
             0x00002288: 00 00 00 00: 
             0x0000228c: 00 00 f1 ff: 
             0x00002290: fd 39 00 00: 
             0x00002294: 01 00 00 00: 
             0x00002298: 00 00 00 00: 
             0x0000229c: 00 00 f1 ff: 
             0x000022a0: 1c 3a 00 00: 
             0x000022a4: 01 00 00 00: 
             0x000022a8: 00 00 00 00: 
             0x000022ac: 00 00 f1 ff: 
             0x000022b0: 2f 3a 00 00: 
             0x000022b4: 01 00 00 00: 
             0x000022b8: 00 00 00 00: 
             0x000022bc: 00 00 f1 ff: 
             0x000022c0: 45 3a 00 00: 
             0x000022c4: 01 00 00 00: 
             0x000022c8: 00 00 00 00: 
             0x000022cc: 00 00 f1 ff: 
             0x000022d0: 63 3a 00 00: 
             0x000022d4: 01 00 00 00: 
             0x000022d8: 00 00 00 00: 
             0x000022dc: 00 00 f1 ff: 
             0x000022e0: 84 3a 00 00: 
             0x000022e4: 01 00 00 00: 
             0x000022e8: 00 00 00 00: 
             0x000022ec: 00 00 f1 ff: 
             0x000022f0: 9e 3a 00 00: 
             0x000022f4: 01 00 00 00: 
             0x000022f8: 00 00 00 00: 
             0x000022fc: 00 00 f1 ff: 
             0x00002300: bb 3a 00 00: 
             0x00002304: 02 00 00 00: 
             0x00002308: 00 00 00 00: 
             0x0000230c: 10 00 f1 ff: 
             0x00002310: d7 3a 00 00: 
             0x00002314: 01 00 00 00: 
             0x00002318: 00 00 00 00: 
             0x0000231c: 10 00 f1 ff: 
             0x00002320: f0 3a 00 00: 
             0x00002324: 00 00 00 00: 
             0x00002328: 00 00 00 00: 
             0x0000232c: 10 00 f1 ff: 
             0x00002330: 0a 3b 00 00: 
             0x00002334: 00 00 00 00: 
             0x00002338: 00 00 00 00: 
             0x0000233c: 10 00 f1 ff: 
             0x00002340: 26 3b 00 00: 
             0x00002344: 00 00 00 00: 
             0x00002348: 00 00 00 00: 
             0x0000234c: 10 00 f1 ff: 
             0x00002350: 44 3b 00 00: 
             0x00002354: 01 00 00 00: 
             0x00002358: 00 00 00 00: 
             0x0000235c: 10 00 f1 ff: 
             0x00002360: 5f 3b 00 00: 
             0x00002364: 00 00 00 00: 
             0x00002368: 00 00 00 00: 
             0x0000236c: 10 00 f1 ff: 
             0x00002370: 7b 3b 00 00: 
             0x00002374: 00 00 00 00: 
             0x00002378: 00 00 00 00: 
             0x0000237c: 10 00 f1 ff: 
             0x00002380: 99 3b 00 00: 
             0x00002384: 00 00 00 00: 
             0x00002388: 00 00 00 00: 
             0x0000238c: 10 00 f1 ff: 
             0x00002390: ae 3b 00 00: 
             0x00002394: 00 00 00 00: 
             0x00002398: 00 00 00 00: 
             0x0000239c: 10 00 f1 ff: 
             0x000023a0: c3 3b 00 00: 
             0x000023a4: 01 00 00 00: 
             0x000023a8: 00 00 00 00: 
             0x000023ac: 10 00 f1 ff: 
             0x000023b0: d5 3b 00 00: 
             0x000023b4: 01 00 00 00: 
             0x000023b8: 00 00 00 00: 
             0x000023bc: 10 00 f1 ff: 
             0x000023c0: e7 3b 00 00: 
             0x000023c4: 00 00 00 00: 
             0x000023c8: 00 00 00 00: 
             0x000023cc: 10 00 f1 ff: 
             0x000023d0: fa 3b 00 00: 
             0x000023d4: 00 00 00 00: 
             0x000023d8: 00 00 00 00: 
             0x000023dc: 10 00 f1 ff: 
             0x000023e0: 0d 3c 00 00: 
             0x000023e4: 00 00 00 00: 
             0x000023e8: 00 00 00 00: 
             0x000023ec: 10 00 f1 ff: 
             0x000023f0: 22 3c 00 00: 
             0x000023f4: 00 00 00 00: 
             0x000023f8: 00 00 00 00: 
             0x000023fc: 10 00 f1 ff: 
             0x00002400: 37 3c 00 00: 
             0x00002404: 01 00 00 00: 
             0x00002408: 00 00 00 00: 
             0x0000240c: 10 00 f1 ff: 
             0x00002410: 57 3c 00 00: 
             0x00002414: 01 00 00 00: 
             0x00002418: 00 00 00 00: 
             0x0000241c: 10 00 f1 ff: 
             0x00002420: 74 3c 00 00: 
             0x00002424: 00 00 00 00: 
             0x00002428: 00 00 00 00: 
             0x0000242c: 10 00 f1 ff: 
             0x00002430: 92 3c 00 00: 
             0x00002434: 00 00 00 00: 
             0x00002438: 00 00 00 00: 
             0x0000243c: 10 00 f1 ff: 
             0x00002440: b2 3c 00 00: 
             0x00002444: 01 00 00 00: 
             0x00002448: 00 00 00 00: 
             0x0000244c: 10 00 f1 ff: 
             0x00002450: ce 3c 00 00: 
             0x00002454: 01 00 00 00: 
             0x00002458: 00 00 00 00: 
             0x0000245c: 10 00 f1 ff: 
             0x00002460: e7 3c 00 00: 
             0x00002464: 00 00 00 00: 
             0x00002468: 00 00 00 00: 
             0x0000246c: 10 00 f1 ff: 
             0x00002470: 01 3d 00 00: 
             0x00002474: 00 00 00 00: 
             0x00002478: 00 00 00 00: 
             0x0000247c: 10 00 f1 ff: 
             0x00002480: 1d 3d 00 00: 
             0x00002484: d8 07 01 00: 
             0x00002488: 6c 00 00 00: 
             0x0000248c: 12 00 0d 00: 
             0x00002490: 28 3d 00 00: 
             0x00002494: 00 00 00 00: 
             0x00002498: 00 00 00 00: 
             0x0000249c: 04 00 f1 ff: 
             0x000024a0: 3e 3d 00 00: 
             0x000024a4: 01 00 00 00: 
             0x000024a8: 00 00 00 00: 
             0x000024ac: 00 00 f1 ff: 
             0x000024b0: 5a 3d 00 00: 
             0x000024b4: 52 04 01 00: 
             0x000024b8: 74 01 00 00: 
             0x000024bc: 12 00 0d 00: 
             0x000024c0: 6c 3d 00 00: 
             0x000024c4: 01 00 00 00: 
             0x000024c8: 00 00 00 00: 
             0x000024cc: 00 00 f1 ff: 
             0x000024d0: 8b 3d 00 00: 
             0x000024d4: 01 00 00 00: 
             0x000024d8: 00 00 00 00: 
             0x000024dc: 00 00 f1 ff: 
             0x000024e0: a0 3d 00 00: 
             0x000024e4: 01 00 00 00: 
             0x000024e8: 00 00 00 00: 
             0x000024ec: 00 00 f1 ff: 
             0x000024f0: b8 3d 00 00: 
             0x000024f4: 01 00 00 00: 
             0x000024f8: 00 00 00 00: 
             0x000024fc: 00 00 f1 ff: 
             0x00002500: cd 3d 00 00: 
             0x00002504: 3e 04 01 00: 
             0x00002508: 00 00 00 00: 
             0x0000250c: 12 00 0d 00: 
             0x00002510: d8 3d 00 00: 
             0x00002514: 01 00 00 00: 
             0x00002518: 00 00 00 00: 
             0x0000251c: 00 00 f1 ff: 
             0x00002520: f0 3d 00 00: 
             0x00002524: 06 00 00 00: 
             0x00002528: 00 00 00 00: 
             0x0000252c: 10 00 f1 ff: 
             0x00002530: 07 3e 00 00: 
             0x00002534: 00 00 00 00: 
             0x00002538: 00 00 00 00: 
             0x0000253c: 10 00 f1 ff: 
             0x00002540: 21 3e 00 00: 
             0x00002544: 01 00 00 00: 
             0x00002548: 00 00 00 00: 
             0x0000254c: 10 00 f1 ff: 
             0x00002550: 35 3e 00 00: 
             0x00002554: 01 00 00 00: 
             0x00002558: 00 00 00 00: 
             0x0000255c: 10 00 f1 ff: 
             0x00002560: 4c 3e 00 00: 
             0x00002564: 00 00 00 00: 
             0x00002568: 00 00 00 00: 
             0x0000256c: 10 00 f1 ff: 
             0x00002570: 61 3e 00 00: 
             0x00002574: 00 00 00 00: 
             0x00002578: 00 00 00 00: 
             0x0000257c: 10 00 f1 ff: 
             0x00002580: 79 3e 00 00: 
             0x00002584: 00 00 00 00: 
             0x00002588: 00 00 00 00: 
             0x0000258c: 10 00 f1 ff: 
             0x00002590: 90 3e 00 00: 
             0x00002594: 00 00 00 00: 
             0x00002598: 00 00 00 00: 
             0x0000259c: 10 00 f1 ff: 
             0x000025a0: aa 3e 00 00: 
             0x000025a4: 5c 01 00 00: 
             0x000025a8: 00 00 00 00: 
             0x000025ac: 10 00 f1 ff: 
             0x000025b0: c8 3e 00 00: 
             0x000025b4: 00 00 00 00: 
             0x000025b8: 00 00 00 00: 
             0x000025bc: 10 00 f1 ff: 
             0x000025c0: db 3e 00 00: 
             0x000025c4: 04 00 00 00: 
             0x000025c8: 00 00 00 00: 
             0x000025cc: 10 00 f1 ff: 
             0x000025d0: fc 3e 00 00: 
             0x000025d4: 01 00 00 00: 
             0x000025d8: 00 00 00 00: 
             0x000025dc: 10 00 f1 ff: 
             0x000025e0: 17 3f 00 00: 
             0x000025e4: 01 00 00 00: 
             0x000025e8: 00 00 00 00: 
             0x000025ec: 10 00 f1 ff: 
             0x000025f0: 35 3f 00 00: 
             0x000025f4: 01 00 00 00: 
             0x000025f8: 00 00 00 00: 
             0x000025fc: 10 00 f1 ff: 
             0x00002600: 51 3f 00 00: 
             0x00002604: 00 00 00 00: 
             0x00002608: 00 00 00 00: 
             0x0000260c: 10 00 f1 ff: 
             0x00002610: 70 3f 00 00: 
             0x00002614: 01 00 00 00: 
             0x00002618: 00 00 00 00: 
             0x0000261c: 10 00 f1 ff: 
             0x00002620: 8e 3f 00 00: 
             0x00002624: 00 00 00 00: 
             0x00002628: 00 00 00 00: 
             0x0000262c: 10 00 f1 ff: 
             0x00002630: af 3f 00 00: 
             0x00002634: 06 00 00 00: 
             0x00002638: 00 00 00 00: 
             0x0000263c: 10 00 f1 ff: 
             0x00002640: c6 3f 00 00: 
             0x00002644: 03 00 00 00: 
             0x00002648: 00 00 00 00: 
             0x0000264c: 10 00 f1 ff: 
             0x00002650: e0 3f 00 00: 
             0x00002654: 01 00 00 00: 
             0x00002658: 00 00 00 00: 
             0x0000265c: 10 00 f1 ff: 
             0x00002660: f4 3f 00 00: 
             0x00002664: 01 00 00 00: 
             0x00002668: 00 00 00 00: 
             0x0000266c: 10 00 f1 ff: 
             0x00002670: 0b 40 00 00: 
             0x00002674: 00 00 00 00: 
             0x00002678: 00 00 00 00: 
             0x0000267c: 10 00 f1 ff: 
             0x00002680: 20 40 00 00: 
             0x00002684: 00 00 00 00: 
             0x00002688: 00 00 00 00: 
             0x0000268c: 10 00 f1 ff: 
             0x00002690: 38 40 00 00: 
             0x00002694: 00 00 00 00: 
             0x00002698: 00 00 00 00: 
             0x0000269c: 10 00 f1 ff: 
             0x000026a0: 4f 40 00 00: 
             0x000026a4: 00 00 00 00: 
             0x000026a8: 00 00 00 00: 
             0x000026ac: 10 00 f1 ff: 
             0x000026b0: 69 40 00 00: 
             0x000026b4: ce 09 01 00: 
             0x000026b8: 00 00 00 00: 
             0x000026bc: 12 00 0d 00: 
             0x000026c0: 7e 40 00 00: 
             0x000026c4: 84 09 01 00: 
             0x000026c8: 00 00 00 00: 
             0x000026cc: 12 00 0d 00: 
             0x000026d0: 8c 40 00 00: 
             0x000026d4: 80 11 01 00: 
             0x000026d8: 00 00 00 00: 
             0x000026dc: 12 00 f1 ff: 
             0x000026e0: bc 40 00 00: 
             0x000026e4: 00 00 00 00: 
             0x000026e8: 00 00 00 00: 
             0x000026ec: 10 00 f1 ff: 
             0x000026f0: f8 40 00 00: 
             0x000026f4: 3e 04 01 00: 
             0x000026f8: 14 00 00 00: 
             0x000026fc: 12 00 0d 00: 
             0x00002700: 4f 41 00 00: 
             0x00002704: 00 00 00 00: 
             0x00002708: 00 00 00 00: 
             0x0000270c: 10 00 f1 ff: 
             0x00002710: b2 41 00 00: 
             0x00002714: 0a 0f 01 00: 
             0x00002718: 00 00 00 00: 
             0x0000271c: 12 00 0d 00: 
             0x00002720: 19 42 00 00: 
             0x00002724: 07 00 00 00: 
             0x00002728: 00 00 00 00: 
             0x0000272c: 10 00 f1 ff: 
             0x00002730: 8c 42 00 00: 
             0x00002734: ec 0e 01 00: 
             0x00002738: 00 00 00 00: 
             0x0000273c: 12 00 0d 00: 
             0x00002740: e6 42 00 00: 
             0x00002744: 02 00 00 00: 
             0x00002748: 00 00 00 00: 
             0x0000274c: 10 00 f1 ff: 
             0x00002750: 4c 43 00 00: 
             0x00002754: 00 00 00 00: 
             0x00002758: 00 00 00 00: 
             0x0000275c: 04 00 f1 ff: 
             0x00002760: a2 06 00 00: 
             0x00002764: 00 00 00 00: 
             0x00002768: 00 00 00 00: 
             0x0000276c: 00 00 f1 ff: 
             0x00002770: 5b 43 00 00: 
             0x00002774: 50 0b 01 00: 
             0x00002778: 18 00 00 00: 
             0x0000277c: 12 00 0d 00: 
             0x00002780: 60 43 00 00: 
             0x00002784: b2 06 01 00: 
             0x00002788: 42 00 00 00: 
             0x0000278c: 12 00 0d 00: 
             0x00002790: 73 43 00 00: 
             0x00002794: 5a 06 01 00: 
             0x00002798: 58 00 00 00: 
             0x0000279c: 12 00 0d 00: 
             0x000027a0: 86 43 00 00: 
             0x000027a4: 01 00 00 00: 
             0x000027a8: 00 00 00 00: 
             0x000027ac: 00 00 f1 ff: 
             0x000027b0: c3 2f 00 00: 
             0x000027b4: 01 00 00 00: 
             0x000027b8: 00 00 00 00: 
             0x000027bc: 00 00 f1 ff: 
             0x000027c0: a3 43 00 00: 
             0x000027c4: 01 00 00 00: 
             0x000027c8: 00 00 00 00: 
             0x000027cc: 00 00 f1 ff: 
             0x000027d0: b8 43 00 00: 
             0x000027d4: 01 00 00 00: 
             0x000027d8: 00 00 00 00: 
             0x000027dc: 00 00 f1 ff: 
             0x000027e0: c9 43 00 00: 
             0x000027e4: 01 00 00 00: 
             0x000027e8: 00 00 00 00: 
             0x000027ec: 00 00 f1 ff: 
             0x000027f0: da 43 00 00: 
             0x000027f4: 01 00 00 00: 
             0x000027f8: 00 00 00 00: 
             0x000027fc: 00 00 f1 ff: 
             0x00002800: eb 43 00 00: 
             0x00002804: 01 00 00 00: 
             0x00002808: 00 00 00 00: 
             0x0000280c: 00 00 f1 ff: 
             0x00002810: 03 44 00 00: 
             0x00002814: 01 00 00 00: 
             0x00002818: 00 00 00 00: 
             0x0000281c: 00 00 f1 ff: 
             0x00002820: 15 44 00 00: 
             0x00002824: 01 00 00 00: 
             0x00002828: 00 00 00 00: 
             0x0000282c: 00 00 f1 ff: 
             0x00002830: 35 44 00 00: 
             0x00002834: 01 00 00 00: 
             0x00002838: 00 00 00 00: 
             0x0000283c: 00 00 f1 ff: 
             0x00002840: 55 44 00 00: 
             0x00002844: 01 00 00 00: 
             0x00002848: 00 00 00 00: 
             0x0000284c: 00 00 f1 ff: 
             0x00002850: a3 31 00 00: 
             0x00002854: 01 00 00 00: 
             0x00002858: 00 00 00 00: 
             0x0000285c: 00 00 f1 ff: 
             0x00002860: 75 44 00 00: 
             0x00002864: 01 00 00 00: 
             0x00002868: 00 00 00 00: 
             0x0000286c: 00 00 f1 ff: 
             0x00002870: 8f 44 00 00: 
             0x00002874: 01 00 00 00: 
             0x00002878: 00 00 00 00: 
             0x0000287c: 00 00 f1 ff: 
             0x00002880: a7 44 00 00: 
             0x00002884: 01 00 00 00: 
             0x00002888: 00 00 00 00: 
             0x0000288c: 00 00 f1 ff: 
             0x00002890: bd 44 00 00: 
             0x00002894: 01 00 00 00: 
             0x00002898: 00 00 00 00: 
             0x0000289c: 00 00 f1 ff: 
             0x000028a0: d5 44 00 00: 
             0x000028a4: 01 00 00 00: 
             0x000028a8: 00 00 00 00: 
             0x000028ac: 00 00 f1 ff: 
             0x000028b0: e9 44 00 00: 
             0x000028b4: 01 00 00 00: 
             0x000028b8: 00 00 00 00: 
             0x000028bc: 00 00 f1 ff: 
             0x000028c0: fd 44 00 00: 
             0x000028c4: 01 00 00 00: 
             0x000028c8: 00 00 00 00: 
             0x000028cc: 00 00 f1 ff: 
             0x000028d0: 11 45 00 00: 
             0x000028d4: 01 00 00 00: 
             0x000028d8: 00 00 00 00: 
             0x000028dc: 00 00 f1 ff: 
             0x000028e0: 2d 45 00 00: 
             0x000028e4: 01 00 00 00: 
             0x000028e8: 00 00 00 00: 
             0x000028ec: 00 00 f1 ff: 
             0x000028f0: 48 45 00 00: 
             0x000028f4: 01 00 00 00: 
             0x000028f8: 00 00 00 00: 
             0x000028fc: 00 00 f1 ff: 
             0x00002900: 5e 45 00 00: 
             0x00002904: 01 00 00 00: 
             0x00002908: 00 00 00 00: 
             0x0000290c: 00 00 f1 ff: 
             0x00002910: 73 45 00 00: 
             0x00002914: 00 00 00 00: 
             0x00002918: 00 00 00 00: 
             0x0000291c: 10 00 f1 ff: 
             0x00002920: 88 45 00 00: 
             0x00002924: 01 00 00 00: 
             0x00002928: 00 00 00 00: 
             0x0000292c: 10 00 f1 ff: 
             0x00002930: 9a 45 00 00: 
             0x00002934: 00 00 00 00: 
             0x00002938: 00 00 00 00: 
             0x0000293c: 10 00 f1 ff: 
             0x00002940: ad 45 00 00: 
             0x00002944: 00 00 00 00: 
             0x00002948: 00 00 00 00: 
             0x0000294c: 10 00 f1 ff: 
             0x00002950: c2 45 00 00: 
             0x00002954: 36 00 00 00: 
             0x00002958: 00 00 00 00: 
             0x0000295c: 10 00 f1 ff: 
             0x00002960: d3 45 00 00: 
             0x00002964: 01 00 00 00: 
             0x00002968: 00 00 00 00: 
             0x0000296c: 10 00 f1 ff: 
             0x00002970: e1 45 00 00: 
             0x00002974: 00 00 00 00: 
             0x00002978: 00 00 00 00: 
             0x0000297c: 10 00 f1 ff: 
             0x00002980: f0 45 00 00: 
             0x00002984: 00 00 00 00: 
             0x00002988: 00 00 00 00: 
             0x0000298c: 10 00 f1 ff: 
             0x00002990: 01 46 00 00: 
             0x00002994: 0b 00 00 00: 
             0x00002998: 00 00 00 00: 
             0x0000299c: 10 00 f1 ff: 
             0x000029a0: 20 46 00 00: 
             0x000029a4: 01 00 00 00: 
             0x000029a8: 00 00 00 00: 
             0x000029ac: 10 00 f1 ff: 
             0x000029b0: 3c 46 00 00: 
             0x000029b4: 00 00 00 00: 
             0x000029b8: 00 00 00 00: 
             0x000029bc: 10 00 f1 ff: 
             0x000029c0: 59 46 00 00: 
             0x000029c4: 01 00 00 00: 
             0x000029c8: 00 00 00 00: 
             0x000029cc: 10 00 f1 ff: 
             0x000029d0: 78 46 00 00: 
             0x000029d4: 07 00 00 00: 
             0x000029d8: 00 00 00 00: 
             0x000029dc: 10 00 f1 ff: 
             0x000029e0: 97 46 00 00: 
             0x000029e4: 01 00 00 00: 
             0x000029e8: 00 00 00 00: 
             0x000029ec: 10 00 f1 ff: 
             0x000029f0: b3 46 00 00: 
             0x000029f4: 00 00 00 00: 
             0x000029f8: 00 00 00 00: 
             0x000029fc: 10 00 f1 ff: 
             0x00002a00: d0 46 00 00: 
             0x00002a04: 01 00 00 00: 
             0x00002a08: 00 00 00 00: 
             0x00002a0c: 10 00 f1 ff: 
             0x00002a10: ef 46 00 00: 
             0x00002a14: 00 00 00 00: 
             0x00002a18: 00 00 00 00: 
             0x00002a1c: 10 00 f1 ff: 
             0x00002a20: 0e 47 00 00: 
             0x00002a24: 01 00 00 00: 
             0x00002a28: 00 00 00 00: 
             0x00002a2c: 10 00 f1 ff: 
             0x00002a30: 2a 47 00 00: 
             0x00002a34: 00 00 00 00: 
             0x00002a38: 00 00 00 00: 
             0x00002a3c: 10 00 f1 ff: 
             0x00002a40: 47 47 00 00: 
             0x00002a44: 00 00 00 00: 
             0x00002a48: 00 00 00 00: 
             0x00002a4c: 10 00 f1 ff: 
             0x00002a50: 66 47 00 00: 
             0x00002a54: 10 00 00 00: 
             0x00002a58: 00 00 00 00: 
             0x00002a5c: 10 00 f1 ff: 
             0x00002a60: 7f 47 00 00: 
             0x00002a64: 01 00 00 00: 
             0x00002a68: 00 00 00 00: 
             0x00002a6c: 10 00 f1 ff: 
             0x00002a70: 95 47 00 00: 
             0x00002a74: 00 00 00 00: 
             0x00002a78: 00 00 00 00: 
             0x00002a7c: 10 00 f1 ff: 
             0x00002a80: ac 47 00 00: 
             0x00002a84: 01 00 00 00: 
             0x00002a88: 00 00 00 00: 
             0x00002a8c: 10 00 f1 ff: 
             0x00002a90: c5 47 00 00: 
             0x00002a94: 1e 00 00 00: 
             0x00002a98: 00 00 00 00: 
             0x00002a9c: 10 00 f1 ff: 
             0x00002aa0: d8 47 00 00: 
             0x00002aa4: 0c 00 00 00: 
             0x00002aa8: 00 00 00 00: 
             0x00002aac: 10 00 f1 ff: 
             0x00002ab0: ef 47 00 00: 
             0x00002ab4: 1b 00 00 00: 
             0x00002ab8: 00 00 00 00: 
             0x00002abc: 10 00 f1 ff: 
             0x00002ac0: 06 48 00 00: 
             0x00002ac4: 01 00 00 00: 
             0x00002ac8: 00 00 00 00: 
             0x00002acc: 10 00 f1 ff: 
             0x00002ad0: 16 48 00 00: 
             0x00002ad4: 01 00 00 00: 
             0x00002ad8: 00 00 00 00: 
             0x00002adc: 10 00 f1 ff: 
             0x00002ae0: 2a 48 00 00: 
             0x00002ae4: 01 00 00 00: 
             0x00002ae8: 00 00 00 00: 
             0x00002aec: 10 00 f1 ff: 
             0x00002af0: 3e 48 00 00: 
             0x00002af4: 00 00 00 00: 
             0x00002af8: 00 00 00 00: 
             0x00002afc: 10 00 f1 ff: 
             0x00002b00: 4f 48 00 00: 
             0x00002b04: 00 00 00 00: 
             0x00002b08: 00 00 00 00: 
             0x00002b0c: 10 00 f1 ff: 
             0x00002b10: 64 48 00 00: 
             0x00002b14: 00 00 00 00: 
             0x00002b18: 00 00 00 00: 
             0x00002b1c: 10 00 f1 ff: 
             0x00002b20: 79 48 00 00: 
             0x00002b24: 00 00 00 00: 
             0x00002b28: 00 00 00 00: 
             0x00002b2c: 10 00 f1 ff: 
             0x00002b30: 8c 48 00 00: 
             0x00002b34: 00 00 00 00: 
             0x00002b38: 00 00 00 00: 
             0x00002b3c: 10 00 f1 ff: 
             0x00002b40: a3 48 00 00: 
             0x00002b44: 00 00 00 00: 
             0x00002b48: 00 00 00 00: 
             0x00002b4c: 10 00 f1 ff: 
             0x00002b50: ba 48 00 00: 
             0x00002b54: 0d 00 00 00: 
             0x00002b58: 00 00 00 00: 
             0x00002b5c: 10 00 f1 ff: 
             0x00002b60: cd 48 00 00: 
             0x00002b64: 01 00 00 00: 
             0x00002b68: 00 00 00 00: 
             0x00002b6c: 10 00 f1 ff: 
             0x00002b70: dd 48 00 00: 
             0x00002b74: 00 00 00 00: 
             0x00002b78: 00 00 00 00: 
             0x00002b7c: 10 00 f1 ff: 
             0x00002b80: ee 48 00 00: 
             0x00002b84: 00 00 00 00: 
             0x00002b88: 00 00 00 00: 
             0x00002b8c: 10 00 f1 ff: 
             0x00002b90: 01 49 00 00: 
             0x00002b94: 0d 00 00 00: 
             0x00002b98: 00 00 00 00: 
             0x00002b9c: 10 00 f1 ff: 
             0x00002ba0: 14 49 00 00: 
             0x00002ba4: 01 00 00 00: 
             0x00002ba8: 00 00 00 00: 
             0x00002bac: 10 00 f1 ff: 
             0x00002bb0: 24 49 00 00: 
             0x00002bb4: 00 00 00 00: 
             0x00002bb8: 00 00 00 00: 
             0x00002bbc: 10 00 f1 ff: 
             0x00002bc0: 35 49 00 00: 
             0x00002bc4: 00 00 00 00: 
             0x00002bc8: 00 00 00 00: 
             0x00002bcc: 10 00 f1 ff: 
             0x00002bd0: 48 49 00 00: 
             0x00002bd4: 05 00 00 00: 
             0x00002bd8: 00 00 00 00: 
             0x00002bdc: 10 00 f1 ff: 
             0x00002be0: 5f 49 00 00: 
             0x00002be4: 01 00 00 00: 
             0x00002be8: 00 00 00 00: 
             0x00002bec: 10 00 f1 ff: 
             0x00002bf0: 73 49 00 00: 
             0x00002bf4: 00 00 00 00: 
             0x00002bf8: 00 00 00 00: 
             0x00002bfc: 10 00 f1 ff: 
             0x00002c00: b2 2b 00 00: 
             0x00002c04: 00 00 00 00: 
             0x00002c08: 00 00 00 00: 
             0x00002c0c: 10 00 00 00: 
             0x00002c10: 88 49 00 00: 
             0x00002c14: 00 00 00 00: 
             0x00002c18: 00 00 00 00: 
             0x00002c1c: 10 00 f1 ff: 
             0x00002c20: 9f 49 00 00: 
             0x00002c24: 02 00 00 00: 
             0x00002c28: 00 00 00 00: 
             0x00002c2c: 10 00 f1 ff: 
             0x00002c30: b6 49 00 00: 
             0x00002c34: 01 00 00 00: 
             0x00002c38: 00 00 00 00: 
             0x00002c3c: 10 00 f1 ff: 
             0x00002c40: ca 49 00 00: 
             0x00002c44: 00 00 00 00: 
             0x00002c48: 00 00 00 00: 
             0x00002c4c: 10 00 f1 ff: 
             0x00002c50: df 49 00 00: 
             0x00002c54: 00 00 00 00: 
             0x00002c58: 00 00 00 00: 
             0x00002c5c: 10 00 f1 ff: 
             0x00002c60: f6 49 00 00: 
             0x00002c64: 1e 00 00 00: 
             0x00002c68: 00 00 00 00: 
             0x00002c6c: 10 00 f1 ff: 
             0x00002c70: 11 4a 00 00: 
             0x00002c74: 0a 00 00 00: 
             0x00002c78: 00 00 00 00: 
             0x00002c7c: 10 00 f1 ff: 
             0x00002c80: 26 4a 00 00: 
             0x00002c84: 01 00 00 00: 
             0x00002c88: 00 00 00 00: 
             0x00002c8c: 10 00 f1 ff: 
             0x00002c90: 3e 4a 00 00: 
             0x00002c94: 01 00 00 00: 
             0x00002c98: 00 00 00 00: 
             0x00002c9c: 10 00 f1 ff: 
             0x00002ca0: 50 4a 00 00: 
             0x00002ca4: 00 00 00 00: 
             0x00002ca8: 00 00 00 00: 
             0x00002cac: 10 00 f1 ff: 
             0x00002cb0: 69 4a 00 00: 
             0x00002cb4: 00 00 00 00: 
             0x00002cb8: 00 00 00 00: 
             0x00002cbc: 10 00 f1 ff: 
             0x00002cc0: 7c 4a 00 00: 
             0x00002cc4: 01 00 00 00: 
             0x00002cc8: 00 00 00 00: 
             0x00002ccc: 10 00 f1 ff: 
             0x00002cd0: 97 4a 00 00: 
             0x00002cd4: 00 00 00 00: 
             0x00002cd8: 00 00 00 00: 
             0x00002cdc: 10 00 f1 ff: 
             0x00002ce0: ac 4a 00 00: 
             0x00002ce4: 0e 00 00 00: 
             0x00002ce8: 00 00 00 00: 
             0x00002cec: 10 00 f1 ff: 
             0x00002cf0: c6 4a 00 00: 
             0x00002cf4: 01 00 00 00: 
             0x00002cf8: 00 00 00 00: 
             0x00002cfc: 10 00 f1 ff: 
             0x00002d00: dd 4a 00 00: 
             0x00002d04: 00 00 00 00: 
             0x00002d08: 00 00 00 00: 
             0x00002d0c: 10 00 f1 ff: 
             0x00002d10: f5 4a 00 00: 
             0x00002d14: 01 00 00 00: 
             0x00002d18: 00 00 00 00: 
             0x00002d1c: 10 00 f1 ff: 
             0x00002d20: 0f 4b 00 00: 
             0x00002d24: 01 00 00 00: 
             0x00002d28: 00 00 00 00: 
             0x00002d2c: 10 00 f1 ff: 
             0x00002d30: 23 4b 00 00: 
             0x00002d34: 01 00 00 00: 
             0x00002d38: 00 00 00 00: 
             0x00002d3c: 10 00 f1 ff: 
             0x00002d40: 34 4b 00 00: 
             0x00002d44: 00 00 00 00: 
             0x00002d48: 00 00 00 00: 
             0x00002d4c: 10 00 f1 ff: 
             0x00002d50: 46 4b 00 00: 
             0x00002d54: 01 00 00 00: 
             0x00002d58: 00 00 00 00: 
             0x00002d5c: 10 00 f1 ff: 
             0x00002d60: 5a 4b 00 00: 
             0x00002d64: c6 05 01 00: 
             0x00002d68: 94 00 00 00: 
             0x00002d6c: 12 00 0d 00: 
             0x00002d70: 85 4b 00 00: 
             0x00002d74: 00 00 00 00: 
             0x00002d78: 00 00 00 00: 
             0x00002d7c: 10 00 f1 ff: 
             0x00002d80: bc 4b 00 00: 
             0x00002d84: 00 00 00 00: 
             0x00002d88: 00 00 00 00: 
             0x00002d8c: 04 00 f1 ff: 
             0x00002d90: a2 06 00 00: 
             0x00002d94: 00 00 00 00: 
             0x00002d98: 00 00 00 00: 
             0x00002d9c: 00 00 f1 ff: 
             0x00002da0: cc 4b 00 00: 
             0x00002da4: dc 0d 01 00: 
             0x00002da8: 12 00 00 00: 
             0x00002dac: 12 00 0d 00: 
             0x00002db0: d2 4b 00 00: 
             0x00002db4: 44 08 01 00: 
             0x00002db8: 40 01 00 00: 
             0x00002dbc: 12 00 0d 00: 
             0x00002dc0: e2 4b 00 00: 
             0x00002dc4: f0 0d 01 00: 
             0x00002dc8: 3c 00 00 00: 
             0x00002dcc: 12 00 0d 00: 
             0x00002dd0: e7 4b 00 00: 
             0x00002dd4: 01 00 00 00: 
             0x00002dd8: 00 00 00 00: 
             0x00002ddc: 00 00 f1 ff: 
             0x00002de0: c3 2f 00 00: 
             0x00002de4: 01 00 00 00: 
             0x00002de8: 00 00 00 00: 
             0x00002dec: 00 00 f1 ff: 
             0x00002df0: fc 4b 00 00: 
             0x00002df4: 01 00 00 00: 
             0x00002df8: 00 00 00 00: 
             0x00002dfc: 00 00 f1 ff: 
             0x00002e00: 14 4c 00 00: 
             0x00002e04: 01 00 00 00: 
             0x00002e08: 00 00 00 00: 
             0x00002e0c: 00 00 f1 ff: 
             0x00002e10: 2b 4c 00 00: 
             0x00002e14: 01 00 00 00: 
             0x00002e18: 00 00 00 00: 
             0x00002e1c: 00 00 f1 ff: 
             0x00002e20: 42 4c 00 00: 
             0x00002e24: 01 00 00 00: 
             0x00002e28: 00 00 00 00: 
             0x00002e2c: 00 00 f1 ff: 
             0x00002e30: 5a 4c 00 00: 
             0x00002e34: 01 00 00 00: 
             0x00002e38: 00 00 00 00: 
             0x00002e3c: 00 00 f1 ff: 
             0x00002e40: 77 4c 00 00: 
             0x00002e44: 01 00 00 00: 
             0x00002e48: 00 00 00 00: 
             0x00002e4c: 00 00 f1 ff: 
             0x00002e50: a3 31 00 00: 
             0x00002e54: 01 00 00 00: 
             0x00002e58: 00 00 00 00: 
             0x00002e5c: 00 00 f1 ff: 
             0x00002e60: 92 4c 00 00: 
             0x00002e64: 01 00 00 00: 
             0x00002e68: 00 00 00 00: 
             0x00002e6c: 00 00 f1 ff: 
             0x00002e70: ad 4c 00 00: 
             0x00002e74: 01 00 00 00: 
             0x00002e78: 00 00 00 00: 
             0x00002e7c: 00 00 f1 ff: 
             0x00002e80: cf 4c 00 00: 
             0x00002e84: 0b 00 00 00: 
             0x00002e88: 00 00 00 00: 
             0x00002e8c: 10 00 f1 ff: 
             0x00002e90: e5 4c 00 00: 
             0x00002e94: 01 00 00 00: 
             0x00002e98: 00 00 00 00: 
             0x00002e9c: 10 00 f1 ff: 
             0x00002ea0: f8 4c 00 00: 
             0x00002ea4: 00 00 00 00: 
             0x00002ea8: 00 00 00 00: 
             0x00002eac: 10 00 f1 ff: 
             0x00002eb0: 0c 4d 00 00: 
             0x00002eb4: 01 00 00 00: 
             0x00002eb8: 00 00 00 00: 
             0x00002ebc: 10 00 f1 ff: 
             0x00002ec0: 22 4d 00 00: 
             0x00002ec4: 00 00 00 00: 
             0x00002ec8: 00 00 00 00: 
             0x00002ecc: 10 00 f1 ff: 
             0x00002ed0: 38 4d 00 00: 
             0x00002ed4: 01 00 00 00: 
             0x00002ed8: 00 00 00 00: 
             0x00002edc: 10 00 f1 ff: 
             0x00002ee0: 4b 4d 00 00: 
             0x00002ee4: 00 00 00 00: 
             0x00002ee8: 00 00 00 00: 
             0x00002eec: 10 00 f1 ff: 
             0x00002ef0: 5f 4d 00 00: 
             0x00002ef4: 00 00 00 00: 
             0x00002ef8: 00 00 00 00: 
             0x00002efc: 10 00 f1 ff: 
             0x00002f00: 75 4d 00 00: 
             0x00002f04: c2 02 00 00: 
             0x00002f08: 00 00 00 00: 
             0x00002f0c: 10 00 f1 ff: 
             0x00002f10: 8c 4d 00 00: 
             0x00002f14: 5d 01 00 00: 
             0x00002f18: 00 00 00 00: 
             0x00002f1c: 00 00 f1 ff: 
             0x00002f20: a7 4d 00 00: 
             0x00002f24: 1d 00 00 00: 
             0x00002f28: 00 00 00 00: 
             0x00002f2c: 10 00 f1 ff: 
             0x00002f30: c3 4d 00 00: 
             0x00002f34: 02 00 00 00: 
             0x00002f38: 00 00 00 00: 
             0x00002f3c: 10 00 f1 ff: 
             0x00002f40: d7 4d 00 00: 
             0x00002f44: 01 00 00 00: 
             0x00002f48: 00 00 00 00: 
             0x00002f4c: 00 00 f1 ff: 
             0x00002f50: ef 4d 00 00: 
             0x00002f54: 01 00 00 00: 
             0x00002f58: 00 00 00 00: 
             0x00002f5c: 10 00 f1 ff: 
             0x00002f60: 08 4e 00 00: 
             0x00002f64: 01 00 00 00: 
             0x00002f68: 00 00 00 00: 
             0x00002f6c: 10 00 f1 ff: 
             0x00002f70: 1d 4e 00 00: 
             0x00002f74: 01 00 00 00: 
             0x00002f78: 00 00 00 00: 
             0x00002f7c: 00 00 f1 ff: 
             0x00002f80: 36 4e 00 00: 
             0x00002f84: 00 00 00 00: 
             0x00002f88: 00 00 00 00: 
             0x00002f8c: 10 00 f1 ff: 
             0x00002f90: 50 4e 00 00: 
             0x00002f94: 02 00 00 00: 
             0x00002f98: 00 00 00 00: 
             0x00002f9c: 10 00 f1 ff: 
             0x00002fa0: 67 4e 00 00: 
             0x00002fa4: 01 00 00 00: 
             0x00002fa8: 00 00 00 00: 
             0x00002fac: 00 00 f1 ff: 
             0x00002fb0: 82 4e 00 00: 
             0x00002fb4: 01 00 00 00: 
             0x00002fb8: 00 00 00 00: 
             0x00002fbc: 10 00 f1 ff: 
             0x00002fc0: 9e 4e 00 00: 
             0x00002fc4: 00 00 00 00: 
             0x00002fc8: 00 00 00 00: 
             0x00002fcc: 10 00 f1 ff: 
             0x00002fd0: b0 4e 00 00: 
             0x00002fd4: 01 00 00 00: 
             0x00002fd8: 00 00 00 00: 
             0x00002fdc: 10 00 f1 ff: 
             0x00002fe0: c1 4e 00 00: 
             0x00002fe4: 01 00 00 00: 
             0x00002fe8: 00 00 00 00: 
             0x00002fec: 10 00 f1 ff: 
             0x00002ff0: cf 4e 00 00: 
             0x00002ff4: 01 00 00 00: 
             0x00002ff8: 00 00 00 00: 
             0x00002ffc: 10 00 f1 ff: 
             0x00003000: de 4e 00 00: 
             0x00003004: 00 00 00 00: 
             0x00003008: 00 00 00 00: 
             0x0000300c: 10 00 f1 ff: 
             0x00003010: ed 4e 00 00: 
             0x00003014: 00 00 00 00: 
             0x00003018: 00 00 00 00: 
             0x0000301c: 10 00 f1 ff: 
             0x00003020: fd 4e 00 00: 
             0x00003024: 00 00 00 00: 
             0x00003028: 00 00 00 00: 
             0x0000302c: 10 00 f1 ff: 
             0x00003030: 0e 4f 00 00: 
             0x00003034: 00 00 00 00: 
             0x00003038: 00 00 00 00: 
             0x0000303c: 10 00 f1 ff: 
             0x00003040: 20 4f 00 00: 
             0x00003044: c4 09 01 00: 
             0x00003048: 0a 00 00 00: 
             0x0000304c: 02 00 0d 00: 
             0x00003050: 2f 4f 00 00: 
             0x00003054: 0c 0b 01 00: 
             0x00003058: 02 00 00 00: 
             0x0000305c: 12 00 0d 00: 
             0x00003060: 3f 4f 00 00: 
             0x00003064: 3e 04 01 00: 
             0x00003068: 00 00 00 00: 
             0x0000306c: 12 00 f1 ff: 
             0x00003070: a2 4f 00 00: 
             0x00003074: 06 00 00 00: 
             0x00003078: 00 00 00 00: 
             0x0000307c: 10 00 f1 ff: 
             0x00003080: 11 50 00 00: 
             0x00003084: ce 09 01 00: 
             0x00003088: 34 01 00 00: 
             0x0000308c: 12 00 0d 00: 
             0x00003090: 94 50 00 00: 
             0x00003094: 04 00 00 00: 
             0x00003098: 00 00 00 00: 
             0x0000309c: 10 00 f1 ff: 
             0x000030a0: 23 51 00 00: 
             0x000030a4: 84 09 01 00: 
             0x000030a8: 40 00 00 00: 
             0x000030ac: 12 00 0d 00: 
             0x000030b0: 89 51 00 00: 
             0x000030b4: 00 00 00 00: 
             0x000030b8: 00 00 00 00: 
             0x000030bc: 10 00 f1 ff: 
             0x000030c0: fb 51 00 00: 
             0x000030c4: 00 00 00 00: 
             0x000030c8: 00 00 00 00: 
             0x000030cc: 04 00 f1 ff: 
             0x000030d0: 07 52 00 00: 
             0x000030d4: 01 00 00 00: 
             0x000030d8: 00 00 00 00: 
             0x000030dc: 00 00 f1 ff: 
             0x000030e0: 21 52 00 00: 
             0x000030e4: 00 00 00 00: 
             0x000030e8: 00 00 00 00: 
             0x000030ec: 10 00 f1 ff: 
             0x000030f0: 3a 52 00 00: 
             0x000030f4: 00 00 00 00: 
             0x000030f8: 00 00 00 00: 
             0x000030fc: 10 00 f1 ff: 
             0x00003100: 53 52 00 00: 
             0x00003104: 00 00 00 00: 
             0x00003108: 00 00 00 00: 
             0x0000310c: 10 00 f1 ff: 
             0x00003110: 6a 52 00 00: 
             0x00003114: 00 00 00 00: 
             0x00003118: 00 00 00 00: 
             0x0000311c: 10 00 f1 ff: 
             0x00003120: 80 52 00 00: 
             0x00003124: 00 00 00 00: 
             0x00003128: 00 00 00 00: 
             0x0000312c: 04 00 f1 ff: 
             0x00003130: 88 52 00 00: 
             0x00003134: 01 00 00 00: 
             0x00003138: 00 00 00 00: 
             0x0000313c: 00 00 f1 ff: 
             0x00003140: a2 52 00 00: 
             0x00003144: 01 00 00 00: 
             0x00003148: 00 00 00 00: 
             0x0000314c: 00 00 f1 ff: 
             0x00003150: bf 52 00 00: 
             0x00003154: 00 00 00 00: 
             0x00003158: 00 00 00 00: 
             0x0000315c: 04 00 f1 ff: 
             0x00003160: d1 52 00 00: 
             0x00003164: 00 00 00 00: 
             0x00003168: 00 00 00 00: 
             0x0000316c: 10 00 f1 ff: 
             0x00003170: ed 52 00 00: 
             0x00003174: 00 00 00 00: 
             0x00003178: 00 00 00 00: 
             0x0000317c: 10 00 f1 ff: 
             0x00003180: 09 53 00 00: 
             0x00003184: 00 00 00 00: 
             0x00003188: 00 00 00 00: 
             0x0000318c: 10 00 f1 ff: 
             0x00003190: 23 53 00 00: 
             0x00003194: 00 00 00 00: 
             0x00003198: 00 00 00 00: 
             0x0000319c: 10 00 f1 ff: 
             0x000031a0: 3c 53 00 00: 
             0x000031a4: 00 00 00 00: 
             0x000031a8: 00 00 00 00: 
             0x000031ac: 04 00 f1 ff: 
             0x000031b0: 73 53 00 00: 
             0x000031b4: 01 00 00 00: 
             0x000031b8: 00 00 00 00: 
             0x000031bc: 00 00 f1 ff: 
             0x000031c0: 89 53 00 00: 
             0x000031c4: 01 00 00 00: 
             0x000031c8: 00 00 00 00: 
             0x000031cc: 00 00 f1 ff: 
             0x000031d0: a2 53 00 00: 
             0x000031d4: 01 00 00 00: 
             0x000031d8: 00 00 00 00: 
             0x000031dc: 10 00 f1 ff: 
             0x000031e0: bf 53 00 00: 
             0x000031e4: 01 00 00 00: 
             0x000031e8: 00 00 00 00: 
             0x000031ec: 10 00 f1 ff: 
             0x000031f0: d4 53 00 00: 
             0x000031f4: 00 00 00 00: 
             0x000031f8: 00 00 00 00: 
             0x000031fc: 10 00 f1 ff: 
             0x00003200: e6 53 00 00: 
             0x00003204: 01 00 00 00: 
             0x00003208: 00 00 00 00: 
             0x0000320c: 10 00 f1 ff: 
             0x00003210: 00 54 00 00: 
             0x00003214: 01 00 00 00: 
             0x00003218: 00 00 00 00: 
             0x0000321c: 10 00 f1 ff: 
             0x00003220: 12 54 00 00: 
             0x00003224: 00 00 00 00: 
             0x00003228: 00 00 00 00: 
             0x0000322c: 10 00 f1 ff: 
             0x00003230: 21 54 00 00: 
             0x00003234: 00 00 00 00: 
             0x00003238: 00 00 00 00: 
             0x0000323c: 10 00 f1 ff: 
             0x00003240: 3c 54 00 00: 
             0x00003244: 00 00 00 00: 
             0x00003248: 00 00 00 00: 
             0x0000324c: 10 00 f1 ff: 
             0x00003250: 4f 54 00 00: 
             0x00003254: 00 00 00 00: 
             0x00003258: 00 00 00 00: 
             0x0000325c: 10 00 f1 ff: 
             0x00003260: 5f 54 00 00: 
             0x00003264: 00 00 00 00: 
             0x00003268: 00 00 00 00: 
             0x0000326c: 10 00 f1 ff: 
             0x00003270: 7c 54 00 00: 
             0x00003274: 00 00 00 00: 
             0x00003278: 00 00 00 00: 
             0x0000327c: 10 00 f1 ff: 
             0x00003280: 91 54 00 00: 
             0x00003284: 00 00 00 00: 
             0x00003288: 00 00 00 00: 
             0x0000328c: 10 00 f1 ff: 
             0x00003290: a3 54 00 00: 
             0x00003294: 30 0e 01 00: 
             0x00003298: 08 00 00 00: 
             0x0000329c: 12 00 0d 00: 
             0x000032a0: b4 54 00 00: 
             0x000032a4: 58 0e 01 00: 
             0x000032a8: 08 00 00 00: 
             0x000032ac: 12 00 0d 00: 
             0x000032b0: bd 54 00 00: 
             0x000032b4: 60 0e 01 00: 
             0x000032b8: 0a 00 00 00: 
             0x000032bc: 12 00 0d 00: 
             0x000032c0: c3 54 00 00: 
             0x000032c4: 00 00 00 00: 
             0x000032c8: 00 00 00 00: 
             0x000032cc: 04 00 f1 ff: 
             0x000032d0: ca 54 00 00: 
             0x000032d4: 01 00 00 00: 
             0x000032d8: 00 00 00 00: 
             0x000032dc: 00 00 f1 ff: 
             0x000032e0: dd 54 00 00: 
             0x000032e4: 00 00 00 00: 
             0x000032e8: 00 00 00 00: 
             0x000032ec: 10 00 f1 ff: 
             0x000032f0: ef 54 00 00: 
             0x000032f4: 00 00 00 00: 
             0x000032f8: 00 00 00 00: 
             0x000032fc: 10 00 f1 ff: 
             0x00003300: 01 55 00 00: 
             0x00003304: 00 00 00 00: 
             0x00003308: 00 00 00 00: 
             0x0000330c: 10 00 f1 ff: 
             0x00003310: 11 55 00 00: 
             0x00003314: 00 00 00 00: 
             0x00003318: 00 00 00 00: 
             0x0000331c: 10 00 f1 ff: 
             0x00003320: 20 55 00 00: 
             0x00003324: 00 00 00 00: 
             0x00003328: 00 00 00 00: 
             0x0000332c: 10 00 f1 ff: 
             0x00003330: 37 55 00 00: 
             0x00003334: 00 00 00 00: 
             0x00003338: 00 00 00 00: 
             0x0000333c: 10 00 f1 ff: 
             0x00003340: 4e 55 00 00: 
             0x00003344: 00 00 00 00: 
             0x00003348: 00 00 00 00: 
             0x0000334c: 10 00 f1 ff: 
             0x00003350: 63 55 00 00: 
             0x00003354: 00 00 00 00: 
             0x00003358: 00 00 00 00: 
             0x0000335c: 10 00 f1 ff: 
             0x00003360: 77 55 00 00: 
             0x00003364: 2c 0e 01 00: 
             0x00003368: 04 00 00 00: 
             0x0000336c: 12 00 0d 00: 
             0x00003370: 82 55 00 00: 
             0x00003374: 00 00 00 00: 
             0x00003378: 00 00 00 00: 
             0x0000337c: 04 00 f1 ff: 
             0x00003380: b9 55 00 00: 
             0x00003384: 01 00 00 00: 
             0x00003388: 00 00 00 00: 
             0x0000338c: 00 00 f1 ff: 
             0x00003390: d2 55 00 00: 
             0x00003394: 01 00 00 00: 
             0x00003398: 00 00 00 00: 
             0x0000339c: 00 00 f1 ff: 
             0x000033a0: ee 55 00 00: 
             0x000033a4: 01 00 00 00: 
             0x000033a8: 00 00 00 00: 
             0x000033ac: 00 00 f1 ff: 
             0x000033b0: fd 55 00 00: 
             0x000033b4: 01 00 00 00: 
             0x000033b8: 00 00 00 00: 
             0x000033bc: 00 00 f1 ff: 
             0x000033c0: 0f 56 00 00: 
             0x000033c4: 00 00 00 00: 
             0x000033c8: 00 00 00 00: 
             0x000033cc: 10 00 f1 ff: 
             0x000033d0: 33 56 00 00: 
             0x000033d4: 01 00 00 00: 
             0x000033d8: 00 00 00 00: 
             0x000033dc: 10 00 f1 ff: 
             0x000033e0: 54 56 00 00: 
             0x000033e4: 00 00 00 00: 
             0x000033e8: 00 00 00 00: 
             0x000033ec: 10 00 f1 ff: 
             0x000033f0: 76 56 00 00: 
             0x000033f4: 00 00 00 00: 
             0x000033f8: 00 00 00 00: 
             0x000033fc: 10 00 f1 ff: 
             0x00003400: 9a 56 00 00: 
             0x00003404: 1c 12 01 00: 
             0x00003408: 04 00 00 00: 
             0x0000340c: 01 00 05 00: 
             0x00003410: a6 56 00 00: 
             0x00003414: 40 0e 01 00: 
             0x00003418: 16 00 00 00: 
             0x0000341c: 12 00 0d 00: 
             0x00003420: be 56 00 00: 
             0x00003424: 00 00 00 00: 
             0x00003428: 00 00 00 00: 
             0x0000342c: 04 00 f1 ff: 
             0x00003430: d1 56 00 00: 
             0x00003434: 01 00 00 00: 
             0x00003438: 00 00 00 00: 
             0x0000343c: 00 00 f1 ff: 
             0x00003440: ec 56 00 00: 
             0x00003444: 01 00 00 00: 
             0x00003448: 00 00 00 00: 
             0x0000344c: 00 00 f1 ff: 
             0x00003450: 0a 57 00 00: 
             0x00003454: 01 00 00 00: 
             0x00003458: 00 00 00 00: 
             0x0000345c: 00 00 f1 ff: 
             0x00003460: 31 57 00 00: 
             0x00003464: 01 00 00 00: 
             0x00003468: 00 00 00 00: 
             0x0000346c: 00 00 f1 ff: 
             0x00003470: 5b 57 00 00: 
             0x00003474: 01 00 00 00: 
             0x00003478: 00 00 00 00: 
             0x0000347c: 00 00 f1 ff: 
             0x00003480: 78 57 00 00: 
             0x00003484: 68 0b 01 00: 
             0x00003488: a4 00 00 00: 
             0x0000348c: 12 00 0d 00: 
             0x00003490: 8b 57 00 00: 
             0x00003494: 01 00 00 00: 
             0x00003498: 00 00 00 00: 
             0x0000349c: 00 00 f1 ff: 
             0x000034a0: ab 57 00 00: 
             0x000034a4: 01 00 00 00: 
             0x000034a8: 00 00 00 00: 
             0x000034ac: 00 00 f1 ff: 
             0x000034b0: bc 57 00 00: 
             0x000034b4: 01 00 00 00: 
             0x000034b8: 00 00 00 00: 
             0x000034bc: 00 00 f1 ff: 
             0x000034c0: d0 57 00 00: 
             0x000034c4: 01 00 00 00: 
             0x000034c8: 00 00 00 00: 
             0x000034cc: 00 00 f1 ff: 
             0x000034d0: ea 57 00 00: 
             0x000034d4: 01 00 00 00: 
             0x000034d8: 00 00 00 00: 
             0x000034dc: 00 00 f1 ff: 
             0x000034e0: 07 58 00 00: 
             0x000034e4: 00 00 00 00: 
             0x000034e8: 00 00 00 00: 
             0x000034ec: 10 00 f1 ff: 
             0x000034f0: 24 58 00 00: 
             0x000034f4: 01 00 00 00: 
             0x000034f8: 00 00 00 00: 
             0x000034fc: 10 00 f1 ff: 
             0x00003500: 3e 58 00 00: 
             0x00003504: 00 00 00 00: 
             0x00003508: 00 00 00 00: 
             0x0000350c: 10 00 f1 ff: 
             0x00003510: 59 58 00 00: 
             0x00003514: 00 00 00 00: 
             0x00003518: 00 00 00 00: 
             0x0000351c: 10 00 f1 ff: 
             0x00003520: 76 58 00 00: 
             0x00003524: 00 00 00 00: 
             0x00003528: 00 00 00 00: 
             0x0000352c: 10 00 f1 ff: 
             0x00003530: 9f 58 00 00: 
             0x00003534: 01 00 00 00: 
             0x00003538: 00 00 00 00: 
             0x0000353c: 10 00 f1 ff: 
             0x00003540: c5 58 00 00: 
             0x00003544: 00 00 00 00: 
             0x00003548: 00 00 00 00: 
             0x0000354c: 10 00 f1 ff: 
             0x00003550: ec 58 00 00: 
             0x00003554: 00 00 00 00: 
             0x00003558: 00 00 00 00: 
             0x0000355c: 10 00 f1 ff: 
             0x00003560: 15 59 00 00: 
             0x00003564: 05 00 00 00: 
             0x00003568: 00 00 00 00: 
             0x0000356c: 10 00 f1 ff: 
             0x00003570: 34 59 00 00: 
             0x00003574: 00 00 00 00: 
             0x00003578: 00 00 00 00: 
             0x0000357c: 10 00 f1 ff: 
             0x00003580: 4f 59 00 00: 
             0x00003584: 00 00 00 00: 
             0x00003588: 00 00 00 00: 
             0x0000358c: 10 00 f1 ff: 
             0x00003590: 6f 59 00 00: 
             0x00003594: 00 00 00 00: 
             0x00003598: 00 00 00 00: 
             0x0000359c: 10 00 f1 ff: 
             0x000035a0: 8f 59 00 00: 
             0x000035a4: 01 00 00 00: 
             0x000035a8: 00 00 00 00: 
             0x000035ac: 10 00 f1 ff: 
             0x000035b0: ab 59 00 00: 
             0x000035b4: 01 00 00 00: 
             0x000035b8: 00 00 00 00: 
             0x000035bc: 10 00 f1 ff: 
             0x000035c0: c3 59 00 00: 
             0x000035c4: 01 00 00 00: 
             0x000035c8: 00 00 00 00: 
             0x000035cc: 10 00 f1 ff: 
             0x000035d0: e0 59 00 00: 
             0x000035d4: 01 00 00 00: 
             0x000035d8: 00 00 00 00: 
             0x000035dc: 10 00 f1 ff: 
             0x000035e0: fd 59 00 00: 
             0x000035e4: 00 00 00 00: 
             0x000035e8: 00 00 00 00: 
             0x000035ec: 10 00 f1 ff: 
             0x000035f0: 1a 5a 00 00: 
             0x000035f4: 00 00 00 00: 
             0x000035f8: 00 00 00 00: 
             0x000035fc: 10 00 f1 ff: 
             0x00003600: 33 5a 00 00: 
             0x00003604: 00 00 00 00: 
             0x00003608: 00 00 00 00: 
             0x0000360c: 10 00 f1 ff: 
             0x00003610: 51 5a 00 00: 
             0x00003614: 00 00 00 00: 
             0x00003618: 00 00 00 00: 
             0x0000361c: 10 00 f1 ff: 
             0x00003620: 6f 5a 00 00: 
             0x00003624: 00 00 00 00: 
             0x00003628: 00 00 00 00: 
             0x0000362c: 10 00 f1 ff: 
             0x00003630: 8e 5a 00 00: 
             0x00003634: 00 00 00 00: 
             0x00003638: 00 00 00 00: 
             0x0000363c: 10 00 f1 ff: 
             0x00003640: a9 5a 00 00: 
             0x00003644: 00 00 00 00: 
             0x00003648: 00 00 00 00: 
             0x0000364c: 10 00 00 00: 
             0x00003650: c9 5a 00 00: 
             0x00003654: 00 00 00 00: 
             0x00003658: 00 00 00 00: 
             0x0000365c: 10 00 f1 ff: 
             0x00003660: e9 5a 00 00: 
             0x00003664: 07 00 00 00: 
             0x00003668: 00 00 00 00: 
             0x0000366c: 10 00 f1 ff: 
             0x00003670: fc 5a 00 00: 
             0x00003674: 02 00 00 00: 
             0x00003678: 00 00 00 00: 
             0x0000367c: 10 00 f1 ff: 
             0x00003680: 1d 5b 00 00: 
             0x00003684: 01 00 00 00: 
             0x00003688: 00 00 00 00: 
             0x0000368c: 10 00 f1 ff: 
             0x00003690: 2d 5b 00 00: 
             0x00003694: 01 00 00 00: 
             0x00003698: 00 00 00 00: 
             0x0000369c: 10 00 f1 ff: 
             0x000036a0: 4b 5b 00 00: 
             0x000036a4: 00 00 00 00: 
             0x000036a8: 00 00 00 00: 
             0x000036ac: 10 00 f1 ff: 
             0x000036b0: 5c 5b 00 00: 
             0x000036b4: 00 00 00 00: 
             0x000036b8: 00 00 00 00: 
             0x000036bc: 10 00 f1 ff: 
             0x000036c0: 7b 5b 00 00: 
             0x000036c4: 00 00 00 00: 
             0x000036c8: 00 00 00 00: 
             0x000036cc: 10 00 f1 ff: 
             0x000036d0: 8e 5b 00 00: 
             0x000036d4: 00 00 00 00: 
             0x000036d8: 00 00 00 00: 
             0x000036dc: 10 00 f1 ff: 
             0x000036e0: af 5b 00 00: 
             0x000036e4: 0f 00 00 00: 
             0x000036e8: 00 00 00 00: 
             0x000036ec: 10 00 f1 ff: 
             0x000036f0: cb 5b 00 00: 
             0x000036f4: 00 00 00 00: 
             0x000036f8: 00 00 00 00: 
             0x000036fc: 10 00 f1 ff: 
             0x00003700: e9 5b 00 00: 
             0x00003704: 00 00 00 00: 
             0x00003708: 00 00 00 00: 
             0x0000370c: 10 00 f1 ff: 
             0x00003710: 0e 5c 00 00: 
             0x00003714: 00 00 00 00: 
             0x00003718: 00 00 00 00: 
             0x0000371c: 10 00 f1 ff: 
             0x00003720: 2d 5c 00 00: 
             0x00003724: 00 00 00 00: 
             0x00003728: 00 00 00 00: 
             0x0000372c: 10 00 f1 ff: 
             0x00003730: 40 5c 00 00: 
             0x00003734: 01 00 00 00: 
             0x00003738: 00 00 00 00: 
             0x0000373c: 10 00 f1 ff: 
             0x00003740: 59 5c 00 00: 
             0x00003744: 01 00 00 00: 
             0x00003748: 00 00 00 00: 
             0x0000374c: 10 00 f1 ff: 
             0x00003750: 69 5c 00 00: 
             0x00003754: 01 00 00 00: 
             0x00003758: 00 00 00 00: 
             0x0000375c: 10 00 f1 ff: 
             0x00003760: 85 5c 00 00: 
             0x00003764: 01 00 00 00: 
             0x00003768: 00 00 00 00: 
             0x0000376c: 10 00 f1 ff: 
             0x00003770: a0 5c 00 00: 
             0x00003774: 00 00 00 00: 
             0x00003778: 00 00 00 00: 
             0x0000377c: 10 00 f1 ff: 
             0x00003780: c2 5c 00 00: 
             0x00003784: 00 00 00 00: 
             0x00003788: 00 00 00 00: 
             0x0000378c: 10 00 f1 ff: 
             0x00003790: dc 5c 00 00: 
             0x00003794: 00 00 00 00: 
             0x00003798: 00 00 00 00: 
             0x0000379c: 10 00 f1 ff: 
             0x000037a0: ed 5c 00 00: 
             0x000037a4: 00 00 00 00: 
             0x000037a8: 00 00 00 00: 
             0x000037ac: 10 00 00 00: 
             0x000037b0: 0a 5d 00 00: 
             0x000037b4: 00 00 00 00: 
             0x000037b8: 00 00 00 00: 
             0x000037bc: 10 00 f1 ff: 
             0x000037c0: 26 5d 00 00: 
             0x000037c4: 00 00 00 00: 
             0x000037c8: 00 00 00 00: 
             0x000037cc: 10 00 f1 ff: 
             0x000037d0: 49 5d 00 00: 
             0x000037d4: 01 00 00 00: 
             0x000037d8: 00 00 00 00: 
             0x000037dc: 10 00 f1 ff: 
             0x000037e0: 65 5d 00 00: 
             0x000037e4: 00 00 00 00: 
             0x000037e8: 00 00 00 00: 
             0x000037ec: 10 00 f1 ff: 
             0x000037f0: 78 5d 00 00: 
             0x000037f4: 00 00 00 00: 
             0x000037f8: 00 00 00 00: 
             0x000037fc: 10 00 00 00: 
             0x00003800: 97 5d 00 00: 
             0x00003804: 00 00 00 00: 
             0x00003808: 00 00 00 00: 
             0x0000380c: 10 00 00 00: 
             0x00003810: b5 5d 00 00: 
             0x00003814: 00 00 00 00: 
             0x00003818: 00 00 00 00: 
             0x0000381c: 10 00 f1 ff: 
             0x00003820: da 5d 00 00: 
             0x00003824: 2e 0c 01 00: 
             0x00003828: 32 00 00 00: 
             0x0000382c: 02 00 0d 00: 
             0x00003830: eb 5d 00 00: 
             0x00003834: 01 00 00 00: 
             0x00003838: 00 00 00 00: 
             0x0000383c: 00 00 f1 ff: 
             0x00003840: 08 5e 00 00: 
             0x00003844: 00 00 00 00: 
             0x00003848: 00 00 00 00: 
             0x0000384c: 20 00 00 00: 
             0x00003850: 25 5e 00 00: 
             0x00003854: 00 00 00 00: 
             0x00003858: 00 00 00 00: 
             0x0000385c: 10 00 f1 ff: 
             0x00003860: 43 5e 00 00: 
             0x00003864: 01 00 00 00: 
             0x00003868: 00 00 00 00: 
             0x0000386c: 00 00 f1 ff: 
             0x00003870: 5d 5e 00 00: 
             0x00003874: 01 00 00 00: 
             0x00003878: 00 00 00 00: 
             0x0000387c: 10 00 f1 ff: 
             0x00003880: 78 5e 00 00: 
             0x00003884: 00 00 00 00: 
             0x00003888: 00 00 00 00: 
             0x0000388c: 20 00 00 00: 
             0x00003890: 92 5e 00 00: 
             0x00003894: 00 00 00 00: 
             0x00003898: 00 00 00 00: 
             0x0000389c: 00 00 f1 ff: 
             0x000038a0: ad 5e 00 00: 
             0x000038a4: 00 00 00 00: 
             0x000038a8: 00 00 00 00: 
             0x000038ac: 10 00 f1 ff: 
             0x000038b0: c9 5e 00 00: 
             0x000038b4: 00 00 00 00: 
             0x000038b8: 00 00 00 00: 
             0x000038bc: 20 00 00 00: 
             0x000038c0: e4 5e 00 00: 
             0x000038c4: 01 00 00 00: 
             0x000038c8: 00 00 00 00: 
             0x000038cc: 00 00 f1 ff: 
             0x000038d0: 01 5f 00 00: 
             0x000038d4: 01 00 00 00: 
             0x000038d8: 00 00 00 00: 
             0x000038dc: 10 00 f1 ff: 
             0x000038e0: 1f 5f 00 00: 
             0x000038e4: 00 00 00 00: 
             0x000038e8: 00 00 00 00: 
             0x000038ec: 20 00 00 00: 
             0x000038f0: 3c 5f 00 00: 
             0x000038f4: 20 12 01 00: 
             0x000038f8: 04 00 00 00: 
             0x000038fc: 11 00 05 00: 
             0x00003900: 46 5f 00 00: 
             0x00003904: 24 12 01 00: 
             0x00003908: 04 00 00 00: 
             0x0000390c: 11 00 05 00: 
             0x00003910: 52 5f 00 00: 
             0x00003914: 28 12 01 00: 
             0x00003918: 04 00 00 00: 
             0x0000391c: 01 00 05 00: 
             0x00003920: 65 5f 00 00: 
             0x00003924: 00 00 00 00: 
             0x00003928: 00 00 00 00: 
             0x0000392c: 20 00 00 00: 
             0x00003930: 76 5f 00 00: 
             0x00003934: 94 0e 01 00: 
             0x00003938: 1e 00 00 00: 
             0x0000393c: 10 00 0d 00: 
             0x00003940: 8a 5f 00 00: 
             0x00003944: b2 0e 01 00: 
             0x00003948: 10 00 00 00: 
             0x0000394c: 10 00 0d 00: 
             0x00003950: 9e 5f 00 00: 
             0x00003954: 7c 0e 01 00: 
             0x00003958: 0a 00 00 00: 
             0x0000395c: 12 00 0d 00: 
             0x00003960: ad 5f 00 00: 
             0x00003964: 86 0e 01 00: 
             0x00003968: 0c 00 00 00: 
             0x0000396c: 12 00 0d 00: 
             0x00003970: c2 5f 00 00: 
             0x00003974: 60 0c 01 00: 
             0x00003978: 08 00 00 00: 
             0x0000397c: 12 00 0d 00: 
             0x00003980: d4 5f 00 00: 
             0x00003984: f4 11 01 00: 
             0x00003988: 00 00 00 00: 
             0x0000398c: 10 00 06 00: 
             0x00003990: de 5f 00 00: 
             0x00003994: 0c 0c 01 00: 
             0x00003998: 22 00 00 00: 
             0x0000399c: 12 00 0d 00: 
             0x000039a0: 15 60 00 00: 
             0x000039a4: 00 00 00 00: 
             0x000039a8: 00 00 00 00: 
             0x000039ac: 10 00 f1 ff: 
             0x000039b0: 58 60 00 00: 
             0x000039b4: 00 00 00 00: 
             0x000039b8: 00 00 00 00: 
             0x000039bc: 04 00 f1 ff: 
             0x000039c0: 65 60 00 00: 
             0x000039c4: 00 00 00 00: 
             0x000039c8: 00 00 00 00: 
             0x000039cc: 10 00 f1 ff: 
             0x000039d0: 82 60 00 00: 
             0x000039d4: 00 00 00 00: 
             0x000039d8: 00 00 00 00: 
             0x000039dc: 00 00 f1 ff: 
             0x000039e0: 9e 60 00 00: 
             0x000039e4: 00 00 00 00: 
             0x000039e8: 00 00 00 00: 
             0x000039ec: 00 00 f1 ff: 
             0x000039f0: b6 60 00 00: 
             0x000039f4: 01 00 00 00: 
             0x000039f8: 00 00 00 00: 
             0x000039fc: 10 00 f1 ff: 
             0x00003a00: d0 60 00 00: 
             0x00003a04: 01 00 00 00: 
             0x00003a08: 00 00 00 00: 
             0x00003a0c: 00 00 f1 ff: 
             0x00003a10: e9 60 00 00: 
             0x00003a14: 01 00 00 00: 
             0x00003a18: 00 00 00 00: 
             0x00003a1c: 00 00 f1 ff: 
             0x00003a20: fe 60 00 00: 
             0x00003a24: 00 00 00 00: 
             0x00003a28: 00 00 00 00: 
             0x00003a2c: 10 00 f1 ff: 
             0x00003a30: 19 61 00 00: 
             0x00003a34: 00 00 00 00: 
             0x00003a38: 00 00 00 00: 
             0x00003a3c: 00 00 f1 ff: 
             0x00003a40: 33 61 00 00: 
             0x00003a44: 00 00 00 00: 
             0x00003a48: 00 00 00 00: 
             0x00003a4c: 00 00 f1 ff: 
             0x00003a50: 49 61 00 00: 
             0x00003a54: 01 00 00 00: 
             0x00003a58: 00 00 00 00: 
             0x00003a5c: 10 00 f1 ff: 
             0x00003a60: 66 61 00 00: 
             0x00003a64: 01 00 00 00: 
             0x00003a68: 00 00 00 00: 
             0x00003a6c: 00 00 f1 ff: 
             0x00003a70: 82 61 00 00: 
             0x00003a74: 00 00 00 00: 
             0x00003a78: 00 00 00 00: 
             0x00003a7c: 00 00 f1 ff: 
             0x00003a80: 9a 61 00 00: 
             0x00003a84: 00 00 00 00: 
             0x00003a88: 00 00 00 00: 
             0x00003a8c: 10 00 f1 ff: 
             0x00003a90: b7 61 00 00: 
             0x00003a94: 01 00 00 00: 
             0x00003a98: 00 00 00 00: 
             0x00003a9c: 10 00 f1 ff: 
             0x00003aa0: d1 61 00 00: 
             0x00003aa4: 00 00 00 00: 
             0x00003aa8: 00 00 00 00: 
             0x00003aac: 10 00 f1 ff: 
             0x00003ab0: ec 61 00 00: 
             0x00003ab4: 01 00 00 00: 
             0x00003ab8: 00 00 00 00: 
             0x00003abc: 10 00 f1 ff: 
             0x00003ac0: 09 62 00 00: 
             0x00003ac4: 00 00 00 00: 
             0x00003ac8: 00 00 00 00: 
             0x00003acc: 00 00 f1 ff: 
             0x00003ad0: 26 62 00 00: 
             0x00003ad4: 01 00 00 00: 
             0x00003ad8: 00 00 00 00: 
             0x00003adc: 00 00 f1 ff: 
             0x00003ae0: 40 62 00 00: 
             0x00003ae4: 00 00 00 00: 
             0x00003ae8: 00 00 00 00: 
             0x00003aec: 00 00 f1 ff: 
             0x00003af0: 5b 62 00 00: 
             0x00003af4: 01 00 00 00: 
             0x00003af8: 00 00 00 00: 
             0x00003afc: 00 00 f1 ff: 
             0x00003b00: 78 62 00 00: 
             0x00003b04: 00 00 00 00: 
             0x00003b08: 00 00 00 00: 
             0x00003b0c: 10 00 f1 ff: 
             0x00003b10: 9d 62 00 00: 
             0x00003b14: 01 00 00 00: 
             0x00003b18: 00 00 00 00: 
             0x00003b1c: 10 00 f1 ff: 
             0x00003b20: bf 62 00 00: 
             0x00003b24: 00 00 00 00: 
             0x00003b28: 00 00 00 00: 
             0x00003b2c: 10 00 f1 ff: 
             0x00003b30: e2 62 00 00: 
             0x00003b34: 01 00 00 00: 
             0x00003b38: 00 00 00 00: 
             0x00003b3c: 10 00 f1 ff: 
             0x00003b40: 07 63 00 00: 
             0x00003b44: 68 0c 01 00: 
             0x00003b48: 50 00 00 00: 
             0x00003b4c: 02 00 0d 00: 
             0x00003b50: 18 63 00 00: 
             0x00003b54: 88 0c 01 00: 
             0x00003b58: 00 00 00 00: 
             0x00003b5c: 00 00 0d 00: 
             0x00003b60: 2c 63 00 00: 
             0x00003b64: 90 0c 01 00: 
             0x00003b68: 00 00 00 00: 
             0x00003b6c: 00 00 0d 00: 
             0x00003b70: 42 63 00 00: 
             0x00003b74: aa 0c 01 00: 
             0x00003b78: 00 00 00 00: 
             0x00003b7c: 00 00 0d 00: 
             0x00003b80: 5c 63 00 00: 
             0x00003b84: b0 0c 01 00: 
             0x00003b88: 00 00 00 00: 
             0x00003b8c: 00 00 0d 00: 
             0x00003b90: 7f 63 00 00: 
             0x00003b94: 00 00 00 00: 
             0x00003b98: 00 00 00 00: 
             0x00003b9c: 04 00 f1 ff: 
             0x00003ba0: 88 63 00 00: 
             0x00003ba4: 00 00 00 00: 
             0x00003ba8: 00 00 00 00: 
             0x00003bac: 10 00 f1 ff: 
             0x00003bb0: 9b 63 00 00: 
             0x00003bb4: 00 00 00 00: 
             0x00003bb8: 00 00 00 00: 
             0x00003bbc: 10 00 f1 ff: 
             0x00003bc0: ac 63 00 00: 
             0x00003bc4: 00 00 00 00: 
             0x00003bc8: 00 00 00 00: 
             0x00003bcc: 10 00 f1 ff: 
             0x00003bd0: bc 63 00 00: 
             0x00003bd4: 01 00 00 00: 
             0x00003bd8: 00 00 00 00: 
             0x00003bdc: 00 00 f1 ff: 
             0x00003be0: d0 63 00 00: 
             0x00003be4: 00 00 00 00: 
             0x00003be8: 00 00 00 00: 
             0x00003bec: 04 00 f1 ff: 
             0x00003bf0: a2 06 00 00: 
             0x00003bf4: 00 00 00 00: 
             0x00003bf8: 00 00 00 00: 
             0x00003bfc: 00 00 f1 ff: 
             0x00003c00: d9 63 00 00: 
             0x00003c04: 00 00 00 00: 
             0x00003c08: 00 00 00 00: 
             0x00003c0c: 00 00 f1 ff: 
             0x00003c10: e6 63 00 00: 
             0x00003c14: 00 00 00 00: 
             0x00003c18: 00 00 00 00: 
             0x00003c1c: 00 00 f1 ff: 
             0x00003c20: f3 63 00 00: 
             0x00003c24: 00 00 00 00: 
             0x00003c28: 00 00 00 00: 
             0x00003c2c: 00 00 f1 ff: 
             0x00003c30: 00 64 00 00: 
             0x00003c34: 00 00 00 00: 
             0x00003c38: 00 00 00 00: 
             0x00003c3c: 00 00 f1 ff: 
             0x00003c40: 0d 64 00 00: 
             0x00003c44: 00 00 00 00: 
             0x00003c48: 00 00 00 00: 
             0x00003c4c: 00 00 f1 ff: 
             0x00003c50: 1a 64 00 00: 
             0x00003c54: 00 00 00 00: 
             0x00003c58: 00 00 00 00: 
             0x00003c5c: 00 00 f1 ff: 
             0x00003c60: 27 64 00 00: 
             0x00003c64: 0a 0d 01 00: 
             0x00003c68: 16 00 00 00: 
             0x00003c6c: 12 00 0d 00: 
             0x00003c70: 31 64 00 00: 
             0x00003c74: 01 00 00 00: 
             0x00003c78: 00 00 00 00: 
             0x00003c7c: 00 00 f1 ff: 
             0x00003c80: 45 64 00 00: 
             0x00003c84: 01 00 00 00: 
             0x00003c88: 00 00 00 00: 
             0x00003c8c: 00 00 f1 ff: 
             0x00003c90: 5b 64 00 00: 
             0x00003c94: 01 00 00 00: 
             0x00003c98: 00 00 00 00: 
             0x00003c9c: 00 00 f1 ff: 
             0x00003ca0: 72 64 00 00: 
             0x00003ca4: 01 00 00 00: 
             0x00003ca8: 00 00 00 00: 
             0x00003cac: 00 00 f1 ff: 
             0x00003cb0: 89 64 00 00: 
             0x00003cb4: 01 00 00 00: 
             0x00003cb8: 00 00 00 00: 
             0x00003cbc: 00 00 f1 ff: 
             0x00003cc0: 9d 64 00 00: 
             0x00003cc4: 01 00 00 00: 
             0x00003cc8: 00 00 00 00: 
             0x00003ccc: 00 00 f1 ff: 
             0x00003cd0: b3 64 00 00: 
             0x00003cd4: 01 00 00 00: 
             0x00003cd8: 00 00 00 00: 
             0x00003cdc: 00 00 f1 ff: 
             0x00003ce0: c6 64 00 00: 
             0x00003ce4: 01 00 00 00: 
             0x00003ce8: 00 00 00 00: 
             0x00003cec: 00 00 f1 ff: 
             0x00003cf0: db 64 00 00: 
             0x00003cf4: 01 00 00 00: 
             0x00003cf8: 00 00 00 00: 
             0x00003cfc: 00 00 f1 ff: 
             0x00003d00: f2 64 00 00: 
             0x00003d04: 01 00 00 00: 
             0x00003d08: 00 00 00 00: 
             0x00003d0c: 00 00 f1 ff: 
             0x00003d10: 09 65 00 00: 
             0x00003d14: 01 00 00 00: 
             0x00003d18: 00 00 00 00: 
             0x00003d1c: 00 00 f1 ff: 
             0x00003d20: 1f 65 00 00: 
             0x00003d24: 01 00 00 00: 
             0x00003d28: 00 00 00 00: 
             0x00003d2c: 00 00 f1 ff: 
             0x00003d30: 37 65 00 00: 
             0x00003d34: 01 00 00 00: 
             0x00003d38: 00 00 00 00: 
             0x00003d3c: 00 00 f1 ff: 
             0x00003d40: 4c 65 00 00: 
             0x00003d44: 01 00 00 00: 
             0x00003d48: 00 00 00 00: 
             0x00003d4c: 00 00 f1 ff: 
             0x00003d50: 63 65 00 00: 
             0x00003d54: 01 00 00 00: 
             0x00003d58: 00 00 00 00: 
             0x00003d5c: 00 00 f1 ff: 
             0x00003d60: 76 65 00 00: 
             0x00003d64: 01 00 00 00: 
             0x00003d68: 00 00 00 00: 
             0x00003d6c: 00 00 f1 ff: 
             0x00003d70: 8b 65 00 00: 
             0x00003d74: 01 00 00 00: 
             0x00003d78: 00 00 00 00: 
             0x00003d7c: 00 00 f1 ff: 
             0x00003d80: a3 65 00 00: 
             0x00003d84: 01 00 00 00: 
             0x00003d88: 00 00 00 00: 
             0x00003d8c: 00 00 f1 ff: 
             0x00003d90: bd 65 00 00: 
             0x00003d94: 01 00 00 00: 
             0x00003d98: 00 00 00 00: 
             0x00003d9c: 00 00 f1 ff: 
             0x00003da0: d0 65 00 00: 
             0x00003da4: 01 00 00 00: 
             0x00003da8: 00 00 00 00: 
             0x00003dac: 00 00 f1 ff: 
             0x00003db0: e5 65 00 00: 
             0x00003db4: 01 00 00 00: 
             0x00003db8: 00 00 00 00: 
             0x00003dbc: 00 00 f1 ff: 
             0x00003dc0: fc 65 00 00: 
             0x00003dc4: 01 00 00 00: 
             0x00003dc8: 00 00 00 00: 
             0x00003dcc: 00 00 f1 ff: 
             0x00003dd0: a3 31 00 00: 
             0x00003dd4: 01 00 00 00: 
             0x00003dd8: 00 00 00 00: 
             0x00003ddc: 00 00 f1 ff: 
             0x00003de0: 15 66 00 00: 
             0x00003de4: 01 00 00 00: 
             0x00003de8: 00 00 00 00: 
             0x00003dec: 00 00 f1 ff: 
             0x00003df0: 2f 66 00 00: 
             0x00003df4: 01 00 00 00: 
             0x00003df8: 00 00 00 00: 
             0x00003dfc: 00 00 f1 ff: 
             0x00003e00: 49 66 00 00: 
             0x00003e04: 01 00 00 00: 
             0x00003e08: 00 00 00 00: 
             0x00003e0c: 00 00 f1 ff: 
             0x00003e10: 60 66 00 00: 
             0x00003e14: 01 00 00 00: 
             0x00003e18: 00 00 00 00: 
             0x00003e1c: 00 00 f1 ff: 
             0x00003e20: 79 66 00 00: 
             0x00003e24: 01 00 00 00: 
             0x00003e28: 00 00 00 00: 
             0x00003e2c: 00 00 f1 ff: 
             0x00003e30: 8f 66 00 00: 
             0x00003e34: 01 00 00 00: 
             0x00003e38: 00 00 00 00: 
             0x00003e3c: 00 00 f1 ff: 
             0x00003e40: a7 66 00 00: 
             0x00003e44: 01 00 00 00: 
             0x00003e48: 00 00 00 00: 
             0x00003e4c: 00 00 f1 ff: 
             0x00003e50: c1 66 00 00: 
             0x00003e54: 01 00 00 00: 
             0x00003e58: 00 00 00 00: 
             0x00003e5c: 00 00 f1 ff: 
             0x00003e60: db 66 00 00: 
             0x00003e64: 01 00 00 00: 
             0x00003e68: 00 00 00 00: 
             0x00003e6c: 00 00 f1 ff: 
             0x00003e70: f4 66 00 00: 
             0x00003e74: 01 00 00 00: 
             0x00003e78: 00 00 00 00: 
             0x00003e7c: 00 00 f1 ff: 
             0x00003e80: 0f 67 00 00: 
             0x00003e84: 01 00 00 00: 
             0x00003e88: 00 00 00 00: 
             0x00003e8c: 00 00 f1 ff: 
             0x00003e90: 27 67 00 00: 
             0x00003e94: 01 00 00 00: 
             0x00003e98: 00 00 00 00: 
             0x00003e9c: 00 00 f1 ff: 
             0x00003ea0: 41 67 00 00: 
             0x00003ea4: 01 00 00 00: 
             0x00003ea8: 00 00 00 00: 
             0x00003eac: 00 00 f1 ff: 
             0x00003eb0: 57 67 00 00: 
             0x00003eb4: 01 00 00 00: 
             0x00003eb8: 00 00 00 00: 
             0x00003ebc: 00 00 f1 ff: 
             0x00003ec0: 6f 67 00 00: 
             0x00003ec4: 01 00 00 00: 
             0x00003ec8: 00 00 00 00: 
             0x00003ecc: 00 00 f1 ff: 
             0x00003ed0: 8a 67 00 00: 
             0x00003ed4: 01 00 00 00: 
             0x00003ed8: 00 00 00 00: 
             0x00003edc: 00 00 f1 ff: 
             0x00003ee0: a7 67 00 00: 
             0x00003ee4: 01 00 00 00: 
             0x00003ee8: 00 00 00 00: 
             0x00003eec: 00 00 f1 ff: 
             0x00003ef0: bd 67 00 00: 
             0x00003ef4: 01 00 00 00: 
             0x00003ef8: 00 00 00 00: 
             0x00003efc: 00 00 f1 ff: 
             0x00003f00: d5 67 00 00: 
             0x00003f04: 09 00 00 00: 
             0x00003f08: 00 00 00 00: 
             0x00003f0c: 10 00 f1 ff: 
             0x00003f10: eb 67 00 00: 
             0x00003f14: 01 00 00 00: 
             0x00003f18: 00 00 00 00: 
             0x00003f1c: 10 00 f1 ff: 
             0x00003f20: fe 67 00 00: 
             0x00003f24: 00 00 00 00: 
             0x00003f28: 00 00 00 00: 
             0x00003f2c: 10 00 f1 ff: 
             0x00003f30: 12 68 00 00: 
             0x00003f34: 00 00 00 00: 
             0x00003f38: 00 00 00 00: 
             0x00003f3c: 10 00 f1 ff: 
             0x00003f40: 28 68 00 00: 
             0x00003f44: 09 00 00 00: 
             0x00003f48: 00 00 00 00: 
             0x00003f4c: 10 00 f1 ff: 
             0x00003f50: 40 68 00 00: 
             0x00003f54: 01 00 00 00: 
             0x00003f58: 00 00 00 00: 
             0x00003f5c: 10 00 f1 ff: 
             0x00003f60: 55 68 00 00: 
             0x00003f64: 00 00 00 00: 
             0x00003f68: 00 00 00 00: 
             0x00003f6c: 10 00 f1 ff: 
             0x00003f70: 6b 68 00 00: 
             0x00003f74: 00 00 00 00: 
             0x00003f78: 00 00 00 00: 
             0x00003f7c: 10 00 f1 ff: 
             0x00003f80: 83 68 00 00: 
             0x00003f84: 19 00 00 00: 
             0x00003f88: 00 00 00 00: 
             0x00003f8c: 10 00 f1 ff: 
             0x00003f90: 98 68 00 00: 
             0x00003f94: 16 00 00 00: 
             0x00003f98: 00 00 00 00: 
             0x00003f9c: 00 00 f1 ff: 
             0x00003fa0: b3 68 00 00: 
             0x00003fa4: 01 00 00 00: 
             0x00003fa8: 00 00 00 00: 
             0x00003fac: 10 00 f1 ff: 
             0x00003fb0: c5 68 00 00: 
             0x00003fb4: 01 00 00 00: 
             0x00003fb8: 00 00 00 00: 
             0x00003fbc: 00 00 f1 ff: 
             0x00003fc0: dd 68 00 00: 
             0x00003fc4: 00 00 00 00: 
             0x00003fc8: 00 00 00 00: 
             0x00003fcc: 10 00 f1 ff: 
             0x00003fd0: f0 68 00 00: 
             0x00003fd4: 00 00 00 00: 
             0x00003fd8: 00 00 00 00: 
             0x00003fdc: 00 00 f1 ff: 
             0x00003fe0: 09 69 00 00: 
             0x00003fe4: 00 00 00 00: 
             0x00003fe8: 00 00 00 00: 
             0x00003fec: 10 00 f1 ff: 
             0x00003ff0: 1e 69 00 00: 
             0x00003ff4: 00 00 00 00: 
             0x00003ff8: 00 00 00 00: 
             0x00003ffc: 00 00 f1 ff: 
             0x00004000: 39 69 00 00: 
             0x00004004: 17 00 00 00: 
             0x00004008: 00 00 00 00: 
             0x0000400c: 10 00 f1 ff: 
             0x00004010: 4f 69 00 00: 
             0x00004014: 01 00 00 00: 
             0x00004018: 00 00 00 00: 
             0x0000401c: 10 00 f1 ff: 
             0x00004020: 62 69 00 00: 
             0x00004024: 00 00 00 00: 
             0x00004028: 00 00 00 00: 
             0x0000402c: 10 00 f1 ff: 
             0x00004030: 76 69 00 00: 
             0x00004034: 00 00 00 00: 
             0x00004038: 00 00 00 00: 
             0x0000403c: 10 00 f1 ff: 
             0x00004040: 8c 69 00 00: 
             0x00004044: 18 00 00 00: 
             0x00004048: 00 00 00 00: 
             0x0000404c: 10 00 f1 ff: 
             0x00004050: a4 69 00 00: 
             0x00004054: 01 00 00 00: 
             0x00004058: 00 00 00 00: 
             0x0000405c: 10 00 f1 ff: 
             0x00004060: b9 69 00 00: 
             0x00004064: 00 00 00 00: 
             0x00004068: 00 00 00 00: 
             0x0000406c: 10 00 f1 ff: 
             0x00004070: cf 69 00 00: 
             0x00004074: 00 00 00 00: 
             0x00004078: 00 00 00 00: 
             0x0000407c: 10 00 f1 ff: 
             0x00004080: e7 69 00 00: 
             0x00004084: 25 00 00 00: 
             0x00004088: 00 00 00 00: 
             0x0000408c: 10 00 f1 ff: 
             0x00004090: fe 69 00 00: 
             0x00004094: 21 00 00 00: 
             0x00004098: 00 00 00 00: 
             0x0000409c: 00 00 f1 ff: 
             0x000040a0: 1b 6a 00 00: 
             0x000040a4: 01 00 00 00: 
             0x000040a8: 00 00 00 00: 
             0x000040ac: 10 00 f1 ff: 
             0x000040b0: 2f 6a 00 00: 
             0x000040b4: 01 00 00 00: 
             0x000040b8: 00 00 00 00: 
             0x000040bc: 00 00 f1 ff: 
             0x000040c0: 49 6a 00 00: 
             0x000040c4: 00 00 00 00: 
             0x000040c8: 00 00 00 00: 
             0x000040cc: 10 00 f1 ff: 
             0x000040d0: 5e 6a 00 00: 
             0x000040d4: 00 00 00 00: 
             0x000040d8: 00 00 00 00: 
             0x000040dc: 00 00 f1 ff: 
             0x000040e0: 79 6a 00 00: 
             0x000040e4: 00 00 00 00: 
             0x000040e8: 00 00 00 00: 
             0x000040ec: 10 00 f1 ff: 
             0x000040f0: 90 6a 00 00: 
             0x000040f4: 00 00 00 00: 
             0x000040f8: 00 00 00 00: 
             0x000040fc: 00 00 f1 ff: 
             0x00004100: ad 6a 00 00: 
             0x00004104: 27 00 00 00: 
             0x00004108: 00 00 00 00: 
             0x0000410c: 10 00 f1 ff: 
             0x00004110: c6 6a 00 00: 
             0x00004114: 01 00 00 00: 
             0x00004118: 00 00 00 00: 
             0x0000411c: 10 00 f1 ff: 
             0x00004120: dc 6a 00 00: 
             0x00004124: 00 00 00 00: 
             0x00004128: 00 00 00 00: 
             0x0000412c: 10 00 f1 ff: 
             0x00004130: f3 6a 00 00: 
             0x00004134: 00 00 00 00: 
             0x00004138: 00 00 00 00: 
             0x0000413c: 10 00 f1 ff: 
             0x00004140: 0c 6b 00 00: 
             0x00004144: 22 00 00 00: 
             0x00004148: 00 00 00 00: 
             0x0000414c: 10 00 f1 ff: 
             0x00004150: 24 6b 00 00: 
             0x00004154: 01 00 00 00: 
             0x00004158: 00 00 00 00: 
             0x0000415c: 10 00 f1 ff: 
             0x00004160: 39 6b 00 00: 
             0x00004164: 00 00 00 00: 
             0x00004168: 00 00 00 00: 
             0x0000416c: 10 00 f1 ff: 
             0x00004170: 4f 6b 00 00: 
             0x00004174: 00 00 00 00: 
             0x00004178: 00 00 00 00: 
             0x0000417c: 10 00 f1 ff: 
             0x00004180: 67 6b 00 00: 
             0x00004184: 23 00 00 00: 
             0x00004188: 00 00 00 00: 
             0x0000418c: 10 00 f1 ff: 
             0x00004190: 81 6b 00 00: 
             0x00004194: 01 00 00 00: 
             0x00004198: 00 00 00 00: 
             0x0000419c: 10 00 f1 ff: 
             0x000041a0: 98 6b 00 00: 
             0x000041a4: 00 00 00 00: 
             0x000041a8: 00 00 00 00: 
             0x000041ac: 10 00 f1 ff: 
             0x000041b0: b0 6b 00 00: 
             0x000041b4: 00 00 00 00: 
             0x000041b8: 00 00 00 00: 
             0x000041bc: 10 00 f1 ff: 
             0x000041c0: ca 6b 00 00: 
             0x000041c4: 17 00 00 00: 
             0x000041c8: 00 00 00 00: 
             0x000041cc: 10 00 f1 ff: 
             0x000041d0: df 6b 00 00: 
             0x000041d4: 01 00 00 00: 
             0x000041d8: 00 00 00 00: 
             0x000041dc: 10 00 f1 ff: 
             0x000041e0: f1 6b 00 00: 
             0x000041e4: 00 00 00 00: 
             0x000041e8: 00 00 00 00: 
             0x000041ec: 10 00 f1 ff: 
             0x000041f0: 04 6c 00 00: 
             0x000041f4: 00 00 00 00: 
             0x000041f8: 00 00 00 00: 
             0x000041fc: 10 00 f1 ff: 
             0x00004200: 19 6c 00 00: 
             0x00004204: 18 00 00 00: 
             0x00004208: 00 00 00 00: 
             0x0000420c: 10 00 f1 ff: 
             0x00004210: 30 6c 00 00: 
             0x00004214: 01 00 00 00: 
             0x00004218: 00 00 00 00: 
             0x0000421c: 10 00 f1 ff: 
             0x00004220: 44 6c 00 00: 
             0x00004224: 00 00 00 00: 
             0x00004228: 00 00 00 00: 
             0x0000422c: 10 00 f1 ff: 
             0x00004230: 59 6c 00 00: 
             0x00004234: 00 00 00 00: 
             0x00004238: 00 00 00 00: 
             0x0000423c: 10 00 f1 ff: 
             0x00004240: 70 6c 00 00: 
             0x00004244: 22 00 00 00: 
             0x00004248: 00 00 00 00: 
             0x0000424c: 10 00 f1 ff: 
             0x00004250: 8a 6c 00 00: 
             0x00004254: 01 00 00 00: 
             0x00004258: 00 00 00 00: 
             0x0000425c: 10 00 f1 ff: 
             0x00004260: a1 6c 00 00: 
             0x00004264: 00 00 00 00: 
             0x00004268: 00 00 00 00: 
             0x0000426c: 10 00 f1 ff: 
             0x00004270: b9 6c 00 00: 
             0x00004274: 00 00 00 00: 
             0x00004278: 00 00 00 00: 
             0x0000427c: 10 00 f1 ff: 
             0x00004280: d3 6c 00 00: 
             0x00004284: 23 00 00 00: 
             0x00004288: 00 00 00 00: 
             0x0000428c: 10 00 f1 ff: 
             0x00004290: ef 6c 00 00: 
             0x00004294: 01 00 00 00: 
             0x00004298: 00 00 00 00: 
             0x0000429c: 10 00 f1 ff: 
             0x000042a0: 08 6d 00 00: 
             0x000042a4: 00 00 00 00: 
             0x000042a8: 00 00 00 00: 
             0x000042ac: 10 00 f1 ff: 
             0x000042b0: 22 6d 00 00: 
             0x000042b4: 00 00 00 00: 
             0x000042b8: 00 00 00 00: 
             0x000042bc: 10 00 f1 ff: 
             0x000042c0: 3e 6d 00 00: 
             0x000042c4: 00 00 00 00: 
             0x000042c8: 00 00 00 00: 
             0x000042cc: 10 00 f1 ff: 
             0x000042d0: 55 6d 00 00: 
             0x000042d4: 01 00 00 00: 
             0x000042d8: 00 00 00 00: 
             0x000042dc: 10 00 f1 ff: 
             0x000042e0: 69 6d 00 00: 
             0x000042e4: 00 00 00 00: 
             0x000042e8: 00 00 00 00: 
             0x000042ec: 10 00 f1 ff: 
             0x000042f0: 7e 6d 00 00: 
             0x000042f4: 00 00 00 00: 
             0x000042f8: 00 00 00 00: 
             0x000042fc: 10 00 f1 ff: 
             0x00004300: 95 6d 00 00: 
             0x00004304: 52 0d 01 00: 
             0x00004308: 2e 00 00 00: 
             0x0000430c: 02 00 0d 00: 
             0x00004310: a3 6d 00 00: 
             0x00004314: 01 00 00 00: 
             0x00004318: 00 00 00 00: 
             0x0000431c: 00 00 f1 ff: 
             0x00004320: bd 6d 00 00: 
             0x00004324: 01 00 00 00: 
             0x00004328: 00 00 00 00: 
             0x0000432c: 00 00 f1 ff: 
             0x00004330: d4 6d 00 00: 
             0x00004334: 00 00 00 00: 
             0x00004338: 00 00 00 00: 
             0x0000433c: 00 00 f1 ff: 
             0x00004340: ec 6d 00 00: 
             0x00004344: 00 00 00 00: 
             0x00004348: 00 00 00 00: 
             0x0000434c: 00 00 f1 ff: 
             0x00004350: 06 6e 00 00: 
             0x00004354: 80 0d 01 00: 
             0x00004358: 5a 00 00 00: 
             0x0000435c: 02 00 0d 00: 
             0x00004360: 15 6e 00 00: 
             0x00004364: 03 00 00 00: 
             0x00004368: 00 00 00 00: 
             0x0000436c: 10 00 f1 ff: 
             0x00004370: 2b 6e 00 00: 
             0x00004374: 07 00 00 00: 
             0x00004378: 00 00 00 00: 
             0x0000437c: 10 00 f1 ff: 
             0x00004380: 41 6e 00 00: 
             0x00004384: fc 11 01 00: 
             0x00004388: 01 00 00 00: 
             0x0000438c: 01 00 07 00: 
             0x00004390: 49 6e 00 00: 
             0x00004394: 00 12 01 00: 
             0x00004398: 11 00 00 00: 
             0x0000439c: 01 00 07 00: 
             0x000043a0: 50 6e 00 00: 
             0x000043a4: 0c 0c 01 00: 
             0x000043a8: 00 00 00 00: 
             0x000043ac: 12 00 f1 ff: 
             0x000043b0: 93 6e 00 00: 
             0x000043b4: 07 00 00 00: 
             0x000043b8: 00 00 00 00: 
             0x000043bc: 10 00 f1 ff: 
             0x000043c0: e2 6e 00 00: 
             0x000043c4: 00 00 00 00: 
             0x000043c8: 00 00 00 00: 
             0x000043cc: 04 00 f1 ff: 
             0x000043d0: 0f 6f 00 00: 
             0x000043d4: 01 00 00 00: 
             0x000043d8: 00 00 00 00: 
             0x000043dc: 00 00 f1 ff: 
             0x000043e0: 1f 6f 00 00: 
             0x000043e4: 01 00 00 00: 
             0x000043e8: 00 00 00 00: 
             0x000043ec: 00 00 f1 ff: 
             0x000043f0: 32 6f 00 00: 
             0x000043f4: 01 00 00 00: 
             0x000043f8: 00 00 00 00: 
             0x000043fc: 00 00 f1 ff: 
             0x00004400: 41 6f 00 00: 
             0x00004404: 01 00 00 00: 
             0x00004408: 00 00 00 00: 
             0x0000440c: 00 00 f1 ff: 
             0x00004410: 53 6f 00 00: 
             0x00004414: ac 11 01 00: 
             0x00004418: 40 00 00 00: 
             0x0000441c: 01 00 06 00: 
             0x00004420: 5e 6f 00 00: 
             0x00004424: 00 00 00 00: 
             0x00004428: 00 00 00 00: 
             0x0000442c: 04 00 f1 ff: 
             0x00004430: 68 6f 00 00: 
             0x00004434: 00 00 00 00: 
             0x00004438: 00 00 00 00: 
             0x0000443c: 04 00 f1 ff: 
             0x00004440: a8 6f 00 00: 
             0x00004444: 01 00 00 00: 
             0x00004448: 00 00 00 00: 
             0x0000444c: 00 00 f1 ff: 
             0x00004450: c8 6f 00 00: 
             0x00004454: c0 0f 01 00: 
             0x00004458: 02 00 00 00: 
             0x0000445c: 22 00 0e 00: 
             0x00004460: de 6f 00 00: 
             0x00004464: 01 00 00 00: 
             0x00004468: 00 00 00 00: 
             0x0000446c: 00 00 f1 ff: 
             0x00004470: 01 70 00 00: 
             0x00004474: 01 00 00 00: 
             0x00004478: 00 00 00 00: 
             0x0000447c: 00 00 f1 ff: 
             0x00004480: 1c 70 00 00: 
             0x00004484: 01 00 00 00: 
             0x00004488: 00 00 00 00: 
             0x0000448c: 00 00 f1 ff: 
             0x00004490: 3a 70 00 00: 
             0x00004494: 00 00 00 00: 
             0x00004498: 00 00 00 00: 
             0x0000449c: 20 00 f1 ff: 
             0x000044a0: 5c 70 00 00: 
             0x000044a4: 01 00 00 00: 
             0x000044a8: 00 00 00 00: 
             0x000044ac: 20 00 f1 ff: 
             0x000044b0: 7b 70 00 00: 
             0x000044b4: 00 00 00 00: 
             0x000044b8: 00 00 00 00: 
             0x000044bc: 20 00 f1 ff: 
             0x000044c0: 9b 70 00 00: 
             0x000044c4: 00 00 00 00: 
             0x000044c8: 00 00 00 00: 
             0x000044cc: 20 00 f1 ff: 
             0x000044d0: bd 70 00 00: 
             0x000044d4: 00 00 00 00: 
             0x000044d8: 00 00 00 00: 
             0x000044dc: 04 00 f1 ff: 
             0x000044e0: f0 70 00 00: 
             0x000044e4: 01 00 00 00: 
             0x000044e8: 00 00 00 00: 
             0x000044ec: 00 00 f1 ff: 
             0x000044f0: 0e 71 00 00: 
             0x000044f4: 01 00 00 00: 
             0x000044f8: 00 00 00 00: 
             0x000044fc: 00 00 f1 ff: 
             0x00004500: 2f 71 00 00: 
             0x00004504: 01 00 00 00: 
             0x00004508: 00 00 00 00: 
             0x0000450c: 00 00 f1 ff: 
             0x00004510: 4c 71 00 00: 
             0x00004514: 01 00 00 00: 
             0x00004518: 00 00 00 00: 
             0x0000451c: 00 00 f1 ff: 
             0x00004520: 6c 71 00 00: 
             0x00004524: 01 00 00 00: 
             0x00004528: 00 00 00 00: 
             0x0000452c: 00 00 f1 ff: 
             0x00004530: 87 71 00 00: 
             0x00004534: 01 00 00 00: 
             0x00004538: 00 00 00 00: 
             0x0000453c: 00 00 f1 ff: 
             0x00004540: a5 71 00 00: 
             0x00004544: 01 00 00 00: 
             0x00004548: 00 00 00 00: 
             0x0000454c: 00 00 f1 ff: 
             0x00004550: c1 71 00 00: 
             0x00004554: 01 00 00 00: 
             0x00004558: 00 00 00 00: 
             0x0000455c: 00 00 f1 ff: 
             0x00004560: e0 71 00 00: 
             0x00004564: 01 00 00 00: 
             0x00004568: 00 00 00 00: 
             0x0000456c: 00 00 f1 ff: 
             0x00004570: fe 71 00 00: 
             0x00004574: 01 00 00 00: 
             0x00004578: 00 00 00 00: 
             0x0000457c: 00 00 f1 ff: 
             0x00004580: 1f 72 00 00: 
             0x00004584: 01 00 00 00: 
             0x00004588: 00 00 00 00: 
             0x0000458c: 00 00 f1 ff: 
             0x00004590: 41 72 00 00: 
             0x00004594: 01 00 00 00: 
             0x00004598: 00 00 00 00: 
             0x0000459c: 00 00 f1 ff: 
             0x000045a0: 66 72 00 00: 
             0x000045a4: 01 00 00 00: 
             0x000045a8: 00 00 00 00: 
             0x000045ac: 00 00 f1 ff: 
             0x000045b0: 84 72 00 00: 
             0x000045b4: 01 00 00 00: 
             0x000045b8: 00 00 00 00: 
             0x000045bc: 00 00 f1 ff: 
             0x000045c0: a5 72 00 00: 
             0x000045c4: 01 00 00 00: 
             0x000045c8: 00 00 00 00: 
             0x000045cc: 00 00 f1 ff: 
             0x000045d0: ca 72 00 00: 
             0x000045d4: 01 00 00 00: 
             0x000045d8: 00 00 00 00: 
             0x000045dc: 00 00 f1 ff: 
             0x000045e0: f2 72 00 00: 
             0x000045e4: 01 00 00 00: 
             0x000045e8: 00 00 00 00: 
             0x000045ec: 00 00 f1 ff: 
             0x000045f0: 18 73 00 00: 
             0x000045f4: 01 00 00 00: 
             0x000045f8: 00 00 00 00: 
             0x000045fc: 00 00 f1 ff: 
             0x00004600: 41 73 00 00: 
             0x00004604: 01 00 00 00: 
             0x00004608: 00 00 00 00: 
             0x0000460c: 00 00 f1 ff: 
             0x00004610: 69 73 00 00: 
             0x00004614: 01 00 00 00: 
             0x00004618: 00 00 00 00: 
             0x0000461c: 00 00 f1 ff: 
             0x00004620: 94 73 00 00: 
             0x00004624: 01 00 00 00: 
             0x00004628: 00 00 00 00: 
             0x0000462c: 00 00 f1 ff: 
             0x00004630: c0 73 00 00: 
             0x00004634: 01 00 00 00: 
             0x00004638: 00 00 00 00: 
             0x0000463c: 00 00 f1 ff: 
             0x00004640: ef 73 00 00: 
             0x00004644: 01 00 00 00: 
             0x00004648: 00 00 00 00: 
             0x0000464c: 00 00 f1 ff: 
             0x00004650: 17 74 00 00: 
             0x00004654: 01 00 00 00: 
             0x00004658: 00 00 00 00: 
             0x0000465c: 00 00 f1 ff: 
             0x00004660: 42 74 00 00: 
             0x00004664: 00 00 00 00: 
             0x00004668: 00 00 00 00: 
             0x0000466c: 10 00 f1 ff: 
             0x00004670: 62 74 00 00: 
             0x00004674: 01 00 00 00: 
             0x00004678: 00 00 00 00: 
             0x0000467c: 10 00 f1 ff: 
             0x00004680: 7f 74 00 00: 
             0x00004684: 00 00 00 00: 
             0x00004688: 00 00 00 00: 
             0x0000468c: 10 00 f1 ff: 
             0x00004690: 9d 74 00 00: 
             0x00004694: 00 00 00 00: 
             0x00004698: 00 00 00 00: 
             0x0000469c: 10 00 f1 ff: 
             0x000046a0: bd 74 00 00: 
             0x000046a4: 00 00 00 00: 
             0x000046a8: 00 00 00 00: 
             0x000046ac: 10 00 f1 ff: 
             0x000046b0: dc 74 00 00: 
             0x000046b4: 01 00 00 00: 
             0x000046b8: 00 00 00 00: 
             0x000046bc: 10 00 f1 ff: 
             0x000046c0: f8 74 00 00: 
             0x000046c4: 00 00 00 00: 
             0x000046c8: 00 00 00 00: 
             0x000046cc: 10 00 f1 ff: 
             0x000046d0: 15 75 00 00: 
             0x000046d4: 00 00 00 00: 
             0x000046d8: 00 00 00 00: 
             0x000046dc: 10 00 f1 ff: 
             0x000046e0: 34 75 00 00: 
             0x000046e4: 00 00 00 00: 
             0x000046e8: 00 00 00 00: 
             0x000046ec: 10 00 f1 ff: 
             0x000046f0: 51 75 00 00: 
             0x000046f4: 01 00 00 00: 
             0x000046f8: 00 00 00 00: 
             0x000046fc: 10 00 f1 ff: 
             0x00004700: 6b 75 00 00: 
             0x00004704: 00 00 00 00: 
             0x00004708: 00 00 00 00: 
             0x0000470c: 10 00 f1 ff: 
             0x00004710: 86 75 00 00: 
             0x00004714: 00 00 00 00: 
             0x00004718: 00 00 00 00: 
             0x0000471c: 10 00 f1 ff: 
             0x00004720: a3 75 00 00: 
             0x00004724: 00 00 00 00: 
             0x00004728: 00 00 00 00: 
             0x0000472c: 10 00 f1 ff: 
             0x00004730: c1 75 00 00: 
             0x00004734: 01 00 00 00: 
             0x00004738: 00 00 00 00: 
             0x0000473c: 10 00 f1 ff: 
             0x00004740: dc 75 00 00: 
             0x00004744: 00 00 00 00: 
             0x00004748: 00 00 00 00: 
             0x0000474c: 10 00 f1 ff: 
             0x00004750: f8 75 00 00: 
             0x00004754: 00 00 00 00: 
             0x00004758: 00 00 00 00: 
             0x0000475c: 10 00 f1 ff: 
             0x00004760: 16 76 00 00: 
             0x00004764: 00 00 00 00: 
             0x00004768: 00 00 00 00: 
             0x0000476c: 10 00 f1 ff: 
             0x00004770: 36 76 00 00: 
             0x00004774: 01 00 00 00: 
             0x00004778: 00 00 00 00: 
             0x0000477c: 10 00 f1 ff: 
             0x00004780: 53 76 00 00: 
             0x00004784: 00 00 00 00: 
             0x00004788: 00 00 00 00: 
             0x0000478c: 10 00 f1 ff: 
             0x00004790: 71 76 00 00: 
             0x00004794: 00 00 00 00: 
             0x00004798: 00 00 00 00: 
             0x0000479c: 10 00 f1 ff: 
             0x000047a0: 91 76 00 00: 
             0x000047a4: 00 00 00 00: 
             0x000047a8: 00 00 00 00: 
             0x000047ac: 10 00 f1 ff: 
             0x000047b0: b1 76 00 00: 
             0x000047b4: 01 00 00 00: 
             0x000047b8: 00 00 00 00: 
             0x000047bc: 10 00 f1 ff: 
             0x000047c0: ce 76 00 00: 
             0x000047c4: 00 00 00 00: 
             0x000047c8: 00 00 00 00: 
             0x000047cc: 10 00 f1 ff: 
             0x000047d0: ec 76 00 00: 
             0x000047d4: 00 00 00 00: 
             0x000047d8: 00 00 00 00: 
             0x000047dc: 10 00 f1 ff: 
             0x000047e0: 0c 77 00 00: 
             0x000047e4: 00 00 00 00: 
             0x000047e8: 00 00 00 00: 
             0x000047ec: 10 00 f1 ff: 
             0x000047f0: 33 77 00 00: 
             0x000047f4: 01 00 00 00: 
             0x000047f8: 00 00 00 00: 
             0x000047fc: 10 00 f1 ff: 
             0x00004800: 57 77 00 00: 
             0x00004804: 00 00 00 00: 
             0x00004808: 00 00 00 00: 
             0x0000480c: 10 00 f1 ff: 
             0x00004810: 7c 77 00 00: 
             0x00004814: 00 00 00 00: 
             0x00004818: 00 00 00 00: 
             0x0000481c: 10 00 f1 ff: 
             0x00004820: a3 77 00 00: 
             0x00004824: 00 00 00 00: 
             0x00004828: 00 00 00 00: 
             0x0000482c: 10 00 f1 ff: 
             0x00004830: cb 77 00 00: 
             0x00004834: 01 00 00 00: 
             0x00004838: 00 00 00 00: 
             0x0000483c: 10 00 f1 ff: 
             0x00004840: f0 77 00 00: 
             0x00004844: 00 00 00 00: 
             0x00004848: 00 00 00 00: 
             0x0000484c: 10 00 f1 ff: 
             0x00004850: 16 78 00 00: 
             0x00004854: 00 00 00 00: 
             0x00004858: 00 00 00 00: 
             0x0000485c: 10 00 f1 ff: 
             0x00004860: 3e 78 00 00: 
             0x00004864: 00 00 00 00: 
             0x00004868: 00 00 00 00: 
             0x0000486c: 10 00 f1 ff: 
             0x00004870: 68 78 00 00: 
             0x00004874: 01 00 00 00: 
             0x00004878: 00 00 00 00: 
             0x0000487c: 10 00 f1 ff: 
             0x00004880: 8f 78 00 00: 
             0x00004884: 00 00 00 00: 
             0x00004888: 00 00 00 00: 
             0x0000488c: 10 00 f1 ff: 
             0x00004890: b7 78 00 00: 
             0x00004894: 00 00 00 00: 
             0x00004898: 00 00 00 00: 
             0x0000489c: 10 00 f1 ff: 
             0x000048a0: e1 78 00 00: 
             0x000048a4: 00 00 00 00: 
             0x000048a8: 00 00 00 00: 
             0x000048ac: 10 00 f1 ff: 
             0x000048b0: 0f 79 00 00: 
             0x000048b4: 01 00 00 00: 
             0x000048b8: 00 00 00 00: 
             0x000048bc: 10 00 f1 ff: 
             0x000048c0: 3a 79 00 00: 
             0x000048c4: 00 00 00 00: 
             0x000048c8: 00 00 00 00: 
             0x000048cc: 10 00 f1 ff: 
             0x000048d0: 66 79 00 00: 
             0x000048d4: 00 00 00 00: 
             0x000048d8: 00 00 00 00: 
             0x000048dc: 10 00 f1 ff: 
             0x000048e0: 94 79 00 00: 
             0x000048e4: 00 00 00 00: 
             0x000048e8: 00 00 00 00: 
             0x000048ec: 10 00 f1 ff: 
             0x000048f0: be 79 00 00: 
             0x000048f4: 01 00 00 00: 
             0x000048f8: 00 00 00 00: 
             0x000048fc: 10 00 f1 ff: 
             0x00004900: e5 79 00 00: 
             0x00004904: 00 00 00 00: 
             0x00004908: 00 00 00 00: 
             0x0000490c: 10 00 f1 ff: 
             0x00004910: 0d 7a 00 00: 
             0x00004914: 00 00 00 00: 
             0x00004918: 00 00 00 00: 
             0x0000491c: 10 00 f1 ff: 
             0x00004920: 37 7a 00 00: 
             0x00004924: 2c 12 01 00: 
             0x00004928: 04 00 00 00: 
             0x0000492c: 11 00 05 00: 
             0x00004930: 45 7a 00 00: 
             0x00004934: 00 00 00 00: 
             0x00004938: 00 00 00 00: 
             0x0000493c: 04 00 f1 ff: 
             0x00004940: 5d 7a 00 00: 
             0x00004944: 01 00 00 00: 
             0x00004948: 00 00 00 00: 
             0x0000494c: 00 00 f1 ff: 
             0x00004950: 71 7a 00 00: 
             0x00004954: 01 00 00 00: 
             0x00004958: 00 00 00 00: 
             0x0000495c: 00 00 f1 ff: 
             0x00004960: 88 7a 00 00: 
             0x00004964: 01 00 00 00: 
             0x00004968: 00 00 00 00: 
             0x0000496c: 10 00 f1 ff: 
             0x00004970: 9b 7a 00 00: 
             0x00004974: 00 00 00 00: 
             0x00004978: 00 00 00 00: 
             0x0000497c: 10 00 f1 ff: 
             0x00004980: af 7a 00 00: 
             0x00004984: 00 00 00 00: 
             0x00004988: 00 00 00 00: 
             0x0000498c: 10 00 f1 ff: 
             0x00004990: 45 7a 00 00: 
             0x00004994: 00 00 00 00: 
             0x00004998: 00 00 00 00: 
             0x0000499c: 04 00 f1 ff: 
             0x000049a0: c5 7a 00 00: 
             0x000049a4: 01 00 00 00: 
             0x000049a8: 00 00 00 00: 
             0x000049ac: 00 00 f1 ff: 
             0x000049b0: d9 7a 00 00: 
             0x000049b4: 01 00 00 00: 
             0x000049b8: 00 00 00 00: 
             0x000049bc: 00 00 f1 ff: 
             0x000049c0: f0 7a 00 00: 
             0x000049c4: 01 00 00 00: 
             0x000049c8: 00 00 00 00: 
             0x000049cc: 10 00 f1 ff: 
             0x000049d0: 03 7b 00 00: 
             0x000049d4: 00 00 00 00: 
             0x000049d8: 00 00 00 00: 
             0x000049dc: 10 00 f1 ff: 
             0x000049e0: 17 7b 00 00: 
             0x000049e4: 00 00 00 00: 
             0x000049e8: 00 00 00 00: 
             0x000049ec: 10 00 f1 ff: 
             0x000049f0: 2d 7b 00 00: 
             0x000049f4: 00 00 00 00: 
             0x000049f8: 00 00 00 00: 
             0x000049fc: 04 00 f1 ff: 
             0x00004a00: 67 7b 00 00: 
             0x00004a04: 01 00 00 00: 
             0x00004a08: 00 00 00 00: 
             0x00004a0c: 00 00 f1 ff: 
             0x00004a10: 7f 7b 00 00: 
             0x00004a14: c4 0f 01 00: 
             0x00004a18: 02 00 00 00: 
             0x00004a1c: 22 00 0f 00: 
             0x00004a20: 8d 7b 00 00: 
             0x00004a24: 01 00 00 00: 
             0x00004a28: 00 00 00 00: 
             0x00004a2c: 00 00 f1 ff: 
             0x00004a30: a8 7b 00 00: 
             0x00004a34: 01 00 00 00: 
             0x00004a38: 00 00 00 00: 
             0x00004a3c: 00 00 f1 ff: 
             0x00004a40: bb 7b 00 00: 
             0x00004a44: 01 00 00 00: 
             0x00004a48: 00 00 00 00: 
             0x00004a4c: 00 00 f1 ff: 
             0x00004a50: d1 7b 00 00: 
             0x00004a54: 00 00 00 00: 
             0x00004a58: 00 00 00 00: 
             0x00004a5c: 20 00 f1 ff: 
             0x00004a60: eb 7b 00 00: 
             0x00004a64: 01 00 00 00: 
             0x00004a68: 00 00 00 00: 
             0x00004a6c: 20 00 f1 ff: 
             0x00004a70: 02 7c 00 00: 
             0x00004a74: 00 00 00 00: 
             0x00004a78: 00 00 00 00: 
             0x00004a7c: 20 00 f1 ff: 
             0x00004a80: 1a 7c 00 00: 
             0x00004a84: 00 00 00 00: 
             0x00004a88: 00 00 00 00: 
             0x00004a8c: 20 00 f1 ff: 
             0x00004a90: 34 7c 00 00: 
             0x00004a94: 00 00 00 00: 
             0x00004a98: 00 00 00 00: 
             0x00004a9c: 04 00 f1 ff: 
             0x00004aa0: 3b 7c 00 00: 
             0x00004aa4: 01 00 00 00: 
             0x00004aa8: 00 00 00 00: 
             0x00004aac: 00 00 f1 ff: 
             0x00004ab0: 4e 7c 00 00: 
             0x00004ab4: 00 00 00 00: 
             0x00004ab8: 00 00 00 00: 
             0x00004abc: 04 00 f1 ff: 
             0x00004ac0: 5c 7c 00 00: 
             0x00004ac4: 01 00 00 00: 
             0x00004ac8: 00 00 00 00: 
             0x00004acc: 00 00 f1 ff: 
             0x00004ad0: 71 7c 00 00: 
             0x00004ad4: 01 00 00 00: 
             0x00004ad8: 00 00 00 00: 
             0x00004adc: 00 00 f1 ff: 
             0x00004ae0: 87 7c 00 00: 
             0x00004ae4: 01 00 00 00: 
             0x00004ae8: 00 00 00 00: 
             0x00004aec: 00 00 f1 ff: 
             0x00004af0: 9c 7c 00 00: 
             0x00004af4: 01 00 00 00: 
             0x00004af8: 00 00 00 00: 
             0x00004afc: 00 00 f1 ff: 
             0x00004b00: b1 7c 00 00: 
             0x00004b04: 01 00 00 00: 
             0x00004b08: 00 00 00 00: 
             0x00004b0c: 00 00 f1 ff: 
             0x00004b10: c7 7c 00 00: 
             0x00004b14: 01 00 00 00: 
             0x00004b18: 00 00 00 00: 
             0x00004b1c: 00 00 f1 ff: 
             0x00004b20: dc 7c 00 00: 
             0x00004b24: 01 00 00 00: 
             0x00004b28: 00 00 00 00: 
             0x00004b2c: 00 00 f1 ff: 
             0x00004b30: f2 7c 00 00: 
             0x00004b34: 01 00 00 00: 
             0x00004b38: 00 00 00 00: 
             0x00004b3c: 00 00 f1 ff: 
             0x00004b40: 08 7d 00 00: 
             0x00004b44: 01 00 00 00: 
             0x00004b48: 00 00 00 00: 
             0x00004b4c: 00 00 f1 ff: 
             0x00004b50: 1d 7d 00 00: 
             0x00004b54: 01 00 00 00: 
             0x00004b58: 00 00 00 00: 
             0x00004b5c: 00 00 f1 ff: 
             0x00004b60: 35 7d 00 00: 
             0x00004b64: 01 00 00 00: 
             0x00004b68: 00 00 00 00: 
             0x00004b6c: 00 00 f1 ff: 
             0x00004b70: 4e 7d 00 00: 
             0x00004b74: 01 00 00 00: 
             0x00004b78: 00 00 00 00: 
             0x00004b7c: 00 00 f1 ff: 
             0x00004b80: 66 7d 00 00: 
             0x00004b84: 01 00 00 00: 
             0x00004b88: 00 00 00 00: 
             0x00004b8c: 00 00 f1 ff: 
             0x00004b90: 7f 7d 00 00: 
             0x00004b94: 01 00 00 00: 
             0x00004b98: 00 00 00 00: 
             0x00004b9c: 00 00 f1 ff: 
             0x00004ba0: 97 7d 00 00: 
             0x00004ba4: 01 00 00 00: 
             0x00004ba8: 00 00 00 00: 
             0x00004bac: 00 00 f1 ff: 
             0x00004bb0: b0 7d 00 00: 
             0x00004bb4: 01 00 00 00: 
             0x00004bb8: 00 00 00 00: 
             0x00004bbc: 00 00 f1 ff: 
             0x00004bc0: c8 7d 00 00: 
             0x00004bc4: 01 00 00 00: 
             0x00004bc8: 00 00 00 00: 
             0x00004bcc: 00 00 f1 ff: 
             0x00004bd0: e0 7d 00 00: 
             0x00004bd4: 01 00 00 00: 
             0x00004bd8: 00 00 00 00: 
             0x00004bdc: 00 00 f1 ff: 
             0x00004be0: f9 7d 00 00: 
             0x00004be4: 01 00 00 00: 
             0x00004be8: 00 00 00 00: 
             0x00004bec: 00 00 f1 ff: 
             0x00004bf0: 11 7e 00 00: 
             0x00004bf4: 01 00 00 00: 
             0x00004bf8: 00 00 00 00: 
             0x00004bfc: 00 00 f1 ff: 
             0x00004c00: 2a 7e 00 00: 
             0x00004c04: 01 00 00 00: 
             0x00004c08: 00 00 00 00: 
             0x00004c0c: 00 00 f1 ff: 
             0x00004c10: 43 7e 00 00: 
             0x00004c14: 01 00 00 00: 
             0x00004c18: 00 00 00 00: 
             0x00004c1c: 00 00 f1 ff: 
             0x00004c20: 5b 7e 00 00: 
             0x00004c24: 02 00 00 00: 
             0x00004c28: 00 00 00 00: 
             0x00004c2c: 10 00 f1 ff: 
             0x00004c30: 72 7e 00 00: 
             0x00004c34: 01 00 00 00: 
             0x00004c38: 00 00 00 00: 
             0x00004c3c: 10 00 f1 ff: 
             0x00004c40: 86 7e 00 00: 
             0x00004c44: 00 00 00 00: 
             0x00004c48: 00 00 00 00: 
             0x00004c4c: 10 00 f1 ff: 
             0x00004c50: 9b 7e 00 00: 
             0x00004c54: 00 00 00 00: 
             0x00004c58: 00 00 00 00: 
             0x00004c5c: 10 00 f1 ff: 
             0x00004c60: b2 7e 00 00: 
             0x00004c64: 03 00 00 00: 
             0x00004c68: 00 00 00 00: 
             0x00004c6c: 10 00 f1 ff: 
             0x00004c70: ca 7e 00 00: 
             0x00004c74: 01 00 00 00: 
             0x00004c78: 00 00 00 00: 
             0x00004c7c: 10 00 f1 ff: 
             0x00004c80: df 7e 00 00: 
             0x00004c84: 00 00 00 00: 
             0x00004c88: 00 00 00 00: 
             0x00004c8c: 10 00 f1 ff: 
             0x00004c90: f5 7e 00 00: 
             0x00004c94: 00 00 00 00: 
             0x00004c98: 00 00 00 00: 
             0x00004c9c: 10 00 f1 ff: 
             0x00004ca0: 0d 7f 00 00: 
             0x00004ca4: 03 00 00 00: 
             0x00004ca8: 00 00 00 00: 
             0x00004cac: 10 00 f1 ff: 
             0x00004cb0: 24 7f 00 00: 
             0x00004cb4: 01 00 00 00: 
             0x00004cb8: 00 00 00 00: 
             0x00004cbc: 10 00 f1 ff: 
             0x00004cc0: 38 7f 00 00: 
             0x00004cc4: 00 00 00 00: 
             0x00004cc8: 00 00 00 00: 
             0x00004ccc: 10 00 f1 ff: 
             0x00004cd0: 4d 7f 00 00: 
             0x00004cd4: 00 00 00 00: 
             0x00004cd8: 00 00 00 00: 
             0x00004cdc: 10 00 f1 ff: 
             0x00004ce0: 64 7f 00 00: 
             0x00004ce4: 04 00 00 00: 
             0x00004ce8: 00 00 00 00: 
             0x00004cec: 10 00 f1 ff: 
             0x00004cf0: 7c 7f 00 00: 
             0x00004cf4: 01 00 00 00: 
             0x00004cf8: 00 00 00 00: 
             0x00004cfc: 10 00 f1 ff: 
             0x00004d00: 91 7f 00 00: 
             0x00004d04: 00 00 00 00: 
             0x00004d08: 00 00 00 00: 
             0x00004d0c: 10 00 f1 ff: 
             0x00004d10: a7 7f 00 00: 
             0x00004d14: 00 00 00 00: 
             0x00004d18: 00 00 00 00: 
             0x00004d1c: 10 00 f1 ff: 
             0x00004d20: bf 7f 00 00: 
             0x00004d24: 03 00 00 00: 
             0x00004d28: 00 00 00 00: 
             0x00004d2c: 10 00 f1 ff: 
             0x00004d30: d6 7f 00 00: 
             0x00004d34: 01 00 00 00: 
             0x00004d38: 00 00 00 00: 
             0x00004d3c: 10 00 f1 ff: 
             0x00004d40: ea 7f 00 00: 
             0x00004d44: 00 00 00 00: 
             0x00004d48: 00 00 00 00: 
             0x00004d4c: 10 00 f1 ff: 
             0x00004d50: ff 7f 00 00: 
             0x00004d54: 00 00 00 00: 
             0x00004d58: 00 00 00 00: 
             0x00004d5c: 10 00 f1 ff: 
             0x00004d60: 16 80 00 00: 
             0x00004d64: 05 00 00 00: 
             0x00004d68: 00 00 00 00: 
             0x00004d6c: 10 00 f1 ff: 
             0x00004d70: 2e 80 00 00: 
             0x00004d74: 01 00 00 00: 
             0x00004d78: 00 00 00 00: 
             0x00004d7c: 10 00 f1 ff: 
             0x00004d80: 43 80 00 00: 
             0x00004d84: 00 00 00 00: 
             0x00004d88: 00 00 00 00: 
             0x00004d8c: 10 00 f1 ff: 
             0x00004d90: 59 80 00 00: 
             0x00004d94: 00 00 00 00: 
             0x00004d98: 00 00 00 00: 
             0x00004d9c: 10 00 f1 ff: 
             0x00004da0: 71 80 00 00: 
             0x00004da4: 01 00 00 00: 
             0x00004da8: 00 00 00 00: 
             0x00004dac: 10 00 f1 ff: 
             0x00004db0: 88 80 00 00: 
             0x00004db4: 01 00 00 00: 
             0x00004db8: 00 00 00 00: 
             0x00004dbc: 10 00 f1 ff: 
             0x00004dc0: 9c 80 00 00: 
             0x00004dc4: 00 00 00 00: 
             0x00004dc8: 00 00 00 00: 
             0x00004dcc: 10 00 f1 ff: 
             0x00004dd0: b1 80 00 00: 
             0x00004dd4: 00 00 00 00: 
             0x00004dd8: 00 00 00 00: 
             0x00004ddc: 10 00 f1 ff: 
             0x00004de0: c8 80 00 00: 
             0x00004de4: 02 00 00 00: 
             0x00004de8: 00 00 00 00: 
             0x00004dec: 10 00 f1 ff: 
             0x00004df0: e0 80 00 00: 
             0x00004df4: 01 00 00 00: 
             0x00004df8: 00 00 00 00: 
             0x00004dfc: 10 00 f1 ff: 
             0x00004e00: f5 80 00 00: 
             0x00004e04: 00 00 00 00: 
             0x00004e08: 00 00 00 00: 
             0x00004e0c: 10 00 f1 ff: 
             0x00004e10: 0b 81 00 00: 
             0x00004e14: 00 00 00 00: 
             0x00004e18: 00 00 00 00: 
             0x00004e1c: 10 00 f1 ff: 
             0x00004e20: 23 81 00 00: 
             0x00004e24: 05 00 00 00: 
             0x00004e28: 00 00 00 00: 
             0x00004e2c: 10 00 f1 ff: 
             0x00004e30: 3a 81 00 00: 
             0x00004e34: 01 00 00 00: 
             0x00004e38: 00 00 00 00: 
             0x00004e3c: 10 00 f1 ff: 
             0x00004e40: 4e 81 00 00: 
             0x00004e44: 00 00 00 00: 
             0x00004e48: 00 00 00 00: 
             0x00004e4c: 10 00 f1 ff: 
             0x00004e50: 63 81 00 00: 
             0x00004e54: 00 00 00 00: 
             0x00004e58: 00 00 00 00: 
             0x00004e5c: 10 00 f1 ff: 
             0x00004e60: 7a 81 00 00: 
             0x00004e64: 04 00 00 00: 
             0x00004e68: 00 00 00 00: 
             0x00004e6c: 10 00 f1 ff: 
             0x00004e70: 92 81 00 00: 
             0x00004e74: 01 00 00 00: 
             0x00004e78: 00 00 00 00: 
             0x00004e7c: 10 00 f1 ff: 
             0x00004e80: a7 81 00 00: 
             0x00004e84: 00 00 00 00: 
             0x00004e88: 00 00 00 00: 
             0x00004e8c: 10 00 f1 ff: 
             0x00004e90: bd 81 00 00: 
             0x00004e94: 00 00 00 00: 
             0x00004e98: 00 00 00 00: 
             0x00004e9c: 10 00 f1 ff: 
             0x00004ea0: d5 81 00 00: 
             0x00004ea4: 05 00 00 00: 
             0x00004ea8: 00 00 00 00: 
             0x00004eac: 10 00 f1 ff: 
             0x00004eb0: ed 81 00 00: 
             0x00004eb4: 01 00 00 00: 
             0x00004eb8: 00 00 00 00: 
             0x00004ebc: 10 00 f1 ff: 
             0x00004ec0: 02 82 00 00: 
             0x00004ec4: 00 00 00 00: 
             0x00004ec8: 00 00 00 00: 
             0x00004ecc: 10 00 f1 ff: 
             0x00004ed0: 18 82 00 00: 
             0x00004ed4: 00 00 00 00: 
             0x00004ed8: 00 00 00 00: 
             0x00004edc: 10 00 f1 ff: 
             0x00004ee0: 30 82 00 00: 
             0x00004ee4: 06 00 00 00: 
             0x00004ee8: 00 00 00 00: 
             0x00004eec: 10 00 f1 ff: 
             0x00004ef0: 47 82 00 00: 
             0x00004ef4: 01 00 00 00: 
             0x00004ef8: 00 00 00 00: 
             0x00004efc: 10 00 f1 ff: 
             0x00004f00: 5b 82 00 00: 
             0x00004f04: 00 00 00 00: 
             0x00004f08: 00 00 00 00: 
             0x00004f0c: 10 00 f1 ff: 
             0x00004f10: 70 82 00 00: 
             0x00004f14: 00 00 00 00: 
             0x00004f18: 00 00 00 00: 
             0x00004f1c: 10 00 f1 ff: 
             0x00004f20: 87 82 00 00: 
             0x00004f24: 00 00 00 00: 
             0x00004f28: 00 00 00 00: 
             0x00004f2c: 04 00 f1 ff: 
             0x00004f30: b6 82 00 00: 
             0x00004f34: 01 00 00 00: 
             0x00004f38: 00 00 00 00: 
             0x00004f3c: 00 00 f1 ff: 
             0x00004f40: c7 82 00 00: 
             0x00004f44: 01 00 00 00: 
             0x00004f48: 00 00 00 00: 
             0x00004f4c: 00 00 f1 ff: 
             0x00004f50: db 82 00 00: 
             0x00004f54: 00 00 00 00: 
             0x00004f58: 00 00 00 00: 
             0x00004f5c: 04 00 f1 ff: 
             0x00004f60: e3 82 00 00: 
             0x00004f64: 30 12 01 00: 
             0x00004f68: 04 00 00 00: 
             0x00004f6c: 11 00 05 00: 
             0x00004f70: ee 82 00 00: 
             0x00004f74: 01 00 00 00: 
             0x00004f78: 00 00 00 00: 
             0x00004f7c: 00 00 f1 ff: 
             0x00004f80: 0a 83 00 00: 
             0x00004f84: 6c 0e 01 00: 
             0x00004f88: 08 00 00 00: 
             0x00004f8c: 02 00 0d 00: 
             0x00004f90: 1a 83 00 00: 
             0x00004f94: 00 00 00 00: 
             0x00004f98: 00 00 00 00: 
             0x00004f9c: 00 00 f1 ff: 
             0x00004fa0: 36 83 00 00: 
             0x00004fa4: 01 00 00 00: 
             0x00004fa8: 00 00 00 00: 
             0x00004fac: 00 00 f1 ff: 
             0x00004fb0: 4f 83 00 00: 
             0x00004fb4: 00 00 00 00: 
             0x00004fb8: 00 00 00 00: 
             0x00004fbc: 00 00 f1 ff: 
             0x00004fc0: 6b 83 00 00: 
             0x00004fc4: 74 0e 01 00: 
             0x00004fc8: 08 00 00 00: 
             0x00004fcc: 02 00 0d 00: 
             0x00004fd0: 7b 83 00 00: 
             0x00004fd4: 00 00 00 00: 
             0x00004fd8: 00 00 00 00: 
             0x00004fdc: 00 00 f1 ff: 
             0x00004fe0: 97 83 00 00: 
             0x00004fe4: 01 00 00 00: 
             0x00004fe8: 00 00 00 00: 
             0x00004fec: 00 00 f1 ff: 
             0x00004ff0: b0 83 00 00: 
             0x00004ff4: 00 00 00 00: 
             0x00004ff8: 00 00 00 00: 
             0x00004ffc: 00 00 f1 ff: 
             0x00005000: cc 83 00 00: 
             0x00005004: 00 00 00 00: 
             0x00005008: 00 00 00 00: 
             0x0000500c: 04 00 f1 ff: 
             0x00005010: e3 83 00 00: 
             0x00005014: 01 00 00 00: 
             0x00005018: 00 00 00 00: 
             0x0000501c: 00 00 f1 ff: 
             0x00005020: 05 84 00 00: 
             0x00005024: 02 00 00 00: 
             0x00005028: 00 00 00 00: 
             0x0000502c: 10 00 f1 ff: 
             0x00005030: 21 84 00 00: 
             0x00005034: 00 00 00 00: 
             0x00005038: 00 00 00 00: 
             0x0000503c: 10 00 f1 ff: 
             0x00005040: 3d 84 00 00: 
             0x00005044: 00 00 00 00: 
             0x00005048: 00 00 00 00: 
             0x0000504c: 10 00 f1 ff: 
             0x00005050: 57 84 00 00: 
             0x00005054: 01 00 00 00: 
             0x00005058: 00 00 00 00: 
             0x0000505c: 10 00 f1 ff: 
             0x00005060: 70 84 00 00: 
             0x00005064: c2 0e 01 00: 
             0x00005068: 1e 00 00 00: 
             0x0000506c: 12 00 0d 00: 
             0x00005070: 80 84 00 00: 
             0x00005074: 00 00 00 00: 
             0x00005078: 00 00 00 00: 
             0x0000507c: 04 00 f1 ff: 
             0x00005080: 92 84 00 00: 
             0x00005084: f8 11 01 00: 
             0x00005088: 00 00 00 00: 
             0x0000508c: 10 00 06 00: 
             0x00005090: 9b 84 00 00: 
             0x00005094: ae 0e 01 00: 
             0x00005098: 00 00 00 00: 
             0x0000509c: 00 00 0d 00: 
             0x000050a0: ad 84 00 00: 
             0x000050a4: b0 0e 01 00: 
             0x000050a8: 00 00 00 00: 
             0x000050ac: 00 00 0d 00: 
             0x000050b0: c5 84 00 00: 
             0x000050b4: c0 0e 01 00: 
             0x000050b8: 00 00 00 00: 
             0x000050bc: 00 00 0d 00: 
             0x000050c0: dd 84 00 00: 
             0x000050c4: 00 00 00 00: 
             0x000050c8: 00 00 00 00: 
             0x000050cc: 04 00 f1 ff: 
             0x000050d0: ec 84 00 00: 
             0x000050d4: 00 00 00 00: 
             0x000050d8: 00 00 00 00: 
             0x000050dc: 10 00 f1 ff: 
             0x000050e0: 00 85 00 00: 
             0x000050e4: 00 00 00 00: 
             0x000050e8: 00 00 00 00: 
             0x000050ec: 10 00 f1 ff: 
             0x000050f0: 14 85 00 00: 
             0x000050f4: 00 00 00 00: 
             0x000050f8: 00 00 00 00: 
             0x000050fc: 10 00 f1 ff: 
             0x00005100: 26 85 00 00: 
             0x00005104: 01 00 00 00: 
             0x00005108: 00 00 00 00: 
             0x0000510c: 10 00 f1 ff: 
             0x00005110: 37 85 00 00: 
             0x00005114: e0 0e 01 00: 
             0x00005118: 0c 00 00 00: 
             0x0000511c: 12 00 0d 00: 
             0x00005120: 3f 85 00 00: 
             0x00005124: 00 00 00 00: 
             0x00005128: 00 00 00 00: 
             0x0000512c: 04 00 f1 ff: 
             0x00005130: 6c 85 00 00: 
             0x00005134: 01 00 00 00: 
             0x00005138: 00 00 00 00: 
             0x0000513c: 00 00 f1 ff: 
             0x00005140: 7e 85 00 00: 
             0x00005144: 01 00 00 00: 
             0x00005148: 00 00 00 00: 
             0x0000514c: 00 00 f1 ff: 
             0x00005150: 93 85 00 00: 
             0x00005154: 34 12 01 00: 
             0x00005158: 20 00 00 00: 
             0x0000515c: 01 00 05 00: 
             0x00005160: 9a 85 00 00: 
             0x00005164: 00 00 00 00: 
             0x00005168: 00 00 00 00: 
             0x0000516c: 04 00 f1 ff: 
             0x00005170: a3 85 00 00: 
             0x00005174: ec 11 01 00: 
             0x00005178: 00 00 00 00: 
             0x0000517c: 00 00 06 00: 
             0x00005180: b1 85 00 00: 
             0x00005184: f0 11 01 00: 
             0x00005188: 00 00 00 00: 
             0x0000518c: 00 00 06 00: 
             0x00005190: bc 85 00 00: 
             0x00005194: 24 10 01 00: 
             0x00005198: 00 00 00 00: 
             0x0000519c: 10 00 04 00: 
             0x000051a0: c7 85 00 00: 
             0x000051a4: 7a 0f 01 00: 
             0x000051a8: 00 00 00 00: 
             0x000051ac: 00 00 0b 00: 
             0x000051b0: d5 85 00 00: 
             0x000051b4: 84 0f 01 00: 
             0x000051b8: 00 00 00 00: 
             0x000051bc: 00 00 0b 00: 
             0x000051c0: e2 85 00 00: 
             0x000051c4: 54 12 01 00: 
             0x000051c8: 00 00 00 00: 
             0x000051cc: 00 00 05 00: 
             0x000051d0: ee 85 00 00: 
             0x000051d4: ec 0f 01 00: 
             0x000051d8: 00 00 00 00: 
             0x000051dc: 10 00 09 00: 
             0x000051e0: ff 85 00 00: 
             0x000051e4: 00 00 00 00: 
             0x000051e8: 00 00 00 00: 
             0x000051ec: 04 00 f1 ff: 
             0x000051f0: 06 86 00 00: 
             0x000051f4: 00 00 00 00: 
             0x000051f8: 00 00 00 00: 
             0x000051fc: 04 00 f1 ff: 
             0x00005200: 12 86 00 00: 
             0x00005204: 00 00 00 00: 
             0x00005208: 00 00 00 00: 
             0x0000520c: 04 00 f1 ff: 
             0x00005210: 1e 86 00 00: 
             0x00005214: 00 00 00 00: 
             0x00005218: 00 00 00 00: 
             0x0000521c: 04 00 f1 ff: 
             0x00005220: 29 86 00 00: 
             0x00005224: 00 00 01 00: 
             0x00005228: 00 00 00 00: 
             0x0000522c: 10 00 f1 ff: 
             0x00005230: 33 86 00 00: 
             0x00005234: f0 0f 01 00: 
             0x00005238: 04 00 00 00: 
             0x0000523c: 00 00 03 00: 
             0x00005240: 39 86 00 00: 
             0x00005244: f4 0f 01 00: 
             0x00005248: 04 00 00 00: 
             0x0000524c: 00 00 03 00: 
             0x00005250: 3f 86 00 00: 
             0x00005254: f8 0f 01 00: 
             0x00005258: 04 00 00 00: 
             0x0000525c: 00 00 03 00: 
             0x00005260: 45 86 00 00: 
             0x00005264: fc 0f 01 00: 
             0x00005268: 04 00 00 00: 
             0x0000526c: 00 00 03 00: 
             0x00005270: 4b 86 00 00: 
             0x00005274: 00 10 01 00: 
             0x00005278: 04 00 00 00: 
             0x0000527c: 00 00 03 00: 
             0x00005280: 51 86 00 00: 
             0x00005284: 04 10 01 00: 
             0x00005288: 04 00 00 00: 
             0x0000528c: 00 00 03 00: 
             0x00005290: 57 86 00 00: 
             0x00005294: 08 10 01 00: 
             0x00005298: 04 00 00 00: 
             0x0000529c: 00 00 03 00: 
             0x000052a0: 5d 86 00 00: 
             0x000052a4: 0c 10 01 00: 
             0x000052a8: 04 00 00 00: 
             0x000052ac: 00 00 03 00: 
             0x000052b0: 63 86 00 00: 
             0x000052b4: 10 10 01 00: 
             0x000052b8: 04 00 00 00: 
             0x000052bc: 00 00 03 00: 
             0x000052c0: 69 86 00 00: 
             0x000052c4: 14 10 01 00: 
             0x000052c8: 04 00 00 00: 
             0x000052cc: 00 00 03 00: 
             0x000052d0: 6f 86 00 00: 
             0x000052d4: 18 10 01 00: 
             0x000052d8: 04 00 00 00: 
             0x000052dc: 00 00 03 00: 

Disassembly of section .strtab (size: 36340)

.label70     0x00000000: 00 2e 62 73: 
             0x00000004: 73 00 2e 63: 
             0x00000008: 70 2e 72 6f: 
             0x0000000c: 64 61 74 61: 
             0x00000010: 00 2e 63 70: 
             0x00000014: 2e 72 6f 64: 
             0x00000018: 61 74 61 2e: 
             0x0000001c: 63 73 74 34: 
             0x00000020: 00 2e 63 74: 
             0x00000024: 6f 72 73 00: 
             0x00000028: 2e 64 70 2e: 
             0x0000002c: 62 73 73 00: 
             0x00000030: 2e 64 70 2e: 
             0x00000034: 64 61 74 61: 
             0x00000038: 00 2e 64 70: 
             0x0000003c: 2e 72 6f 64: 
             0x00000040: 61 74 61 00: 
             0x00000044: 2e 64 74 6f: 
             0x00000048: 72 73 00 2e: 
             0x0000004c: 65 68 5f 66: 
             0x00000050: 72 61 6d 65: 
             0x00000054: 00 2e 66 69: 
             0x00000058: 6e 69 00 2e: 
             0x0000005c: 69 6e 69 74: 
             0x00000060: 00 2e 72 6f: 
             0x00000064: 64 61 74 61: 
             0x00000068: 00 2e 74 65: 
             0x0000006c: 78 74 00 2e: 
             0x00000070: 74 65 78 74: 
             0x00000074: 2e 5f 5f 63: 
             0x00000078: 61 6c 6c 5f: 
             0x0000007c: 65 78 69 74: 
             0x00000080: 70 72 6f 63: 
             0x00000084: 73 5f 69 6d: 
             0x00000088: 70 6c 00 2e: 
             0x0000008c: 74 65 78 74: 
             0x00000090: 2e 5f 63 6c: 
             0x00000094: 65 61 6e 75: 
             0x00000098: 70 5f 69 6d: 
             0x0000009c: 70 6c 00 2e: 
             0x000000a0: 78 74 61 62: 
             0x000000a4: 72 61 6e 63: 
             0x000000a8: 68 00 2e 78: 
             0x000000ac: 74 61 63 61: 
             0x000000b0: 6c 6c 74 61: 
             0x000000b4: 62 6c 65 00: 
             0x000000b8: 2e 78 74 61: 
             0x000000bc: 65 6e 64 70: 
             0x000000c0: 6f 69 6e 74: 
             0x000000c4: 74 61 62 6c: 
             0x000000c8: 65 00 2e 78: 
             0x000000cc: 74 61 6c 61: 
             0x000000d0: 62 65 6c 74: 
             0x000000d4: 61 62 6c 65: 
             0x000000d8: 00 2e 78 74: 
             0x000000dc: 61 6c 6f 6f: 
             0x000000e0: 70 00 2e 78: 
             0x000000e4: 74 61 6c 6f: 
             0x000000e8: 6f 70 6c 61: 
             0x000000ec: 62 65 6c 74: 
             0x000000f0: 61 62 6c 65: 
             0x000000f4: 00 2e 78 74: 
             0x000000f8: 61 73 79 73: 
             0x000000fc: 74 65 6d 00: 
             0x00000100: 2e 78 74 61: 
             0x00000104: 74 68 72 65: 
             0x00000108: 61 64 73 74: 
             0x0000010c: 61 72 74 00: 
             0x00000110: 2e 78 74 61: 
             0x00000114: 74 68 72 65: 
             0x00000118: 61 64 73 74: 
             0x0000011c: 6f 70 00 5f: 
             0x00000120: 63 70 00 5f: 
             0x00000124: 64 70 00 5f: 
             0x00000128: 66 62 73 73: 
             0x0000012c: 00 5f 66 64: 
             0x00000130: 70 2e 62 73: 
             0x00000134: 73 00 5f 43: 
             0x00000138: 54 4f 52 5f: 
             0x0000013c: 4c 49 53 54: 
             0x00000140: 5f 00 5f 44: 
             0x00000144: 54 4f 52 5f: 
             0x00000148: 4c 49 53 54: 
             0x0000014c: 5f 00 5f 78: 
             0x00000150: 73 31 5f 74: 
             0x00000154: 69 6d 65 72: 
             0x00000158: 5f 68 7a 00: 
             0x0000015c: 5f 64 65 66: 
             0x00000160: 61 75 6c 74: 
             0x00000164: 5f 63 6c 6b: 
             0x00000168: 62 6c 6b 00: 
             0x0000016c: 5f 5f 6d 61: 
             0x00000170: 69 6e 5f 64: 
             0x00000174: 65 66 61 75: 
             0x00000178: 6c 74 5f 6e: 
             0x0000017c: 65 74 77 6f: 
             0x00000180: 72 6b 00 63: 
             0x00000184: 72 74 31 2e: 
             0x00000188: 53 00 5f 65: 
             0x0000018c: 68 65 61 70: 
             0x00000190: 00 5f 62 68: 
             0x00000194: 65 61 70 00: 
             0x00000198: 6d 61 69 6e: 
             0x0000019c: 2e 6e 73 74: 
             0x000001a0: 61 63 6b 77: 
             0x000001a4: 6f 72 64 73: 
             0x000001a8: 2e 64 65 66: 
             0x000001ac: 69 6e 65 64: 
             0x000001b0: 00 6d 61 69: 
             0x000001b4: 6e 2e 6e 73: 
             0x000001b8: 74 61 63 6b: 
             0x000001bc: 77 6f 72 64: 
             0x000001c0: 73 00 5f 73: 
             0x000001c4: 74 61 72 74: 
             0x000001c8: 00 2e 72 61: 
             0x000001cc: 6d 5f 73 69: 
             0x000001d0: 7a 65 00 5f: 
             0x000001d4: 65 64 70 2e: 
             0x000001d8: 62 73 73 00: 
             0x000001dc: 5f 53 65 74: 
             0x000001e0: 75 70 54 72: 
             0x000001e4: 61 70 73 00: 
             0x000001e8: 5f 47 65 74: 
             0x000001ec: 52 61 6d 45: 
             0x000001f0: 6e 64 00 5f: 
             0x000001f4: 49 6e 69 74: 
             0x000001f8: 54 68 72 65: 
             0x000001fc: 61 64 00 5f: 
             0x00000200: 54 6f 75 63: 
             0x00000204: 68 52 65 67: 
             0x00000208: 69 73 74 65: 
             0x0000020c: 72 73 00 5f: 
             0x00000210: 69 6e 69 74: 
             0x00000214: 00 6d 61 69: 
             0x00000218: 6e 00 5f 5f: 
             0x0000021c: 6c 69 62 63: 
             0x00000220: 5f 64 6f 6e: 
             0x00000224: 65 00 5f 65: 
             0x00000228: 78 69 74 5f: 
             0x0000022c: 75 6e 6c 6f: 
             0x00000230: 63 6b 65 64: 
             0x00000234: 00 5f 73 74: 
             0x00000238: 61 72 74 2e: 
             0x0000023c: 6e 73 74 61: 
             0x00000240: 63 6b 77 6f: 
             0x00000244: 72 64 73 00: 
             0x00000248: 5f 73 74 61: 
             0x0000024c: 72 74 2e 6d: 
             0x00000250: 61 78 63 6f: 
             0x00000254: 72 65 73 00: 
             0x00000258: 5f 73 74 61: 
             0x0000025c: 72 74 2e 6d: 
             0x00000260: 61 78 74 69: 
             0x00000264: 6d 65 72 73: 
             0x00000268: 00 5f 73 74: 
             0x0000026c: 61 72 74 2e: 
             0x00000270: 6d 61 78 63: 
             0x00000274: 68 61 6e 65: 
             0x00000278: 6e 64 73 00: 
             0x0000027c: 5f 53 65 74: 
             0x00000280: 75 70 54 72: 
             0x00000284: 61 70 73 2e: 
             0x00000288: 6e 73 74 61: 
             0x0000028c: 63 6b 77 6f: 
             0x00000290: 72 64 73 00: 
             0x00000294: 5f 47 65 74: 
             0x00000298: 52 61 6d 45: 
             0x0000029c: 6e 64 2e 6e: 
             0x000002a0: 73 74 61 63: 
             0x000002a4: 6b 77 6f 72: 
             0x000002a8: 64 73 00 5f: 
             0x000002ac: 49 6e 69 74: 
             0x000002b0: 54 68 72 65: 
             0x000002b4: 61 64 2e 6e: 
             0x000002b8: 73 74 61 63: 
             0x000002bc: 6b 77 6f 72: 
             0x000002c0: 64 73 00 5f: 
             0x000002c4: 54 6f 75 63: 
             0x000002c8: 68 52 65 67: 
             0x000002cc: 69 73 74 65: 
             0x000002d0: 72 73 2e 6e: 
             0x000002d4: 73 74 61 63: 
             0x000002d8: 6b 77 6f 72: 
             0x000002dc: 64 73 00 5f: 
             0x000002e0: 69 6e 69 74: 
             0x000002e4: 2e 6e 73 74: 
             0x000002e8: 61 63 6b 77: 
             0x000002ec: 6f 72 64 73: 
             0x000002f0: 00 5f 5f 6c: 
             0x000002f4: 69 62 63 5f: 
             0x000002f8: 64 6f 6e 65: 
             0x000002fc: 2e 6e 73 74: 
             0x00000300: 61 63 6b 77: 
             0x00000304: 6f 72 64 73: 
             0x00000308: 00 5f 65 78: 
             0x0000030c: 69 74 5f 75: 
             0x00000310: 6e 6c 6f 63: 
             0x00000314: 6b 65 64 2e: 
             0x00000318: 6e 73 74 61: 
             0x0000031c: 63 6b 77 6f: 
             0x00000320: 72 64 73 00: 
             0x00000324: 5f 53 65 74: 
             0x00000328: 75 70 54 72: 
             0x0000032c: 61 70 73 2e: 
             0x00000330: 6d 61 78 63: 
             0x00000334: 6f 72 65 73: 
             0x00000338: 00 5f 47 65: 
             0x0000033c: 74 52 61 6d: 
             0x00000340: 45 6e 64 2e: 
             0x00000344: 6d 61 78 63: 
             0x00000348: 6f 72 65 73: 
             0x0000034c: 00 5f 49 6e: 
             0x00000350: 69 74 54 68: 
             0x00000354: 72 65 61 64: 
             0x00000358: 2e 6d 61 78: 
             0x0000035c: 63 6f 72 65: 
             0x00000360: 73 00 5f 54: 
             0x00000364: 6f 75 63 68: 
             0x00000368: 52 65 67 69: 
             0x0000036c: 73 74 65 72: 
             0x00000370: 73 2e 6d 61: 
             0x00000374: 78 63 6f 72: 
             0x00000378: 65 73 00 5f: 
             0x0000037c: 69 6e 69 74: 
             0x00000380: 2e 6d 61 78: 
             0x00000384: 63 6f 72 65: 
             0x00000388: 73 00 6d 61: 
             0x0000038c: 69 6e 2e 6d: 
             0x00000390: 61 78 63 6f: 
             0x00000394: 72 65 73 00: 
             0x00000398: 5f 5f 6c 69: 
             0x0000039c: 62 63 5f 64: 
             0x000003a0: 6f 6e 65 2e: 
             0x000003a4: 6d 61 78 63: 
             0x000003a8: 6f 72 65 73: 
             0x000003ac: 00 5f 65 78: 
             0x000003b0: 69 74 5f 75: 
             0x000003b4: 6e 6c 6f 63: 
             0x000003b8: 6b 65 64 2e: 
             0x000003bc: 6d 61 78 63: 
             0x000003c0: 6f 72 65 73: 
             0x000003c4: 00 5f 53 65: 
             0x000003c8: 74 75 70 54: 
             0x000003cc: 72 61 70 73: 
             0x000003d0: 2e 6d 61 78: 
             0x000003d4: 74 69 6d 65: 
             0x000003d8: 72 73 00 5f: 
             0x000003dc: 47 65 74 52: 
             0x000003e0: 61 6d 45 6e: 
             0x000003e4: 64 2e 6d 61: 
             0x000003e8: 78 74 69 6d: 
             0x000003ec: 65 72 73 00: 
             0x000003f0: 5f 49 6e 69: 
             0x000003f4: 74 54 68 72: 
             0x000003f8: 65 61 64 2e: 
             0x000003fc: 6d 61 78 74: 
             0x00000400: 69 6d 65 72: 
             0x00000404: 73 00 5f 54: 
             0x00000408: 6f 75 63 68: 
             0x0000040c: 52 65 67 69: 
             0x00000410: 73 74 65 72: 
             0x00000414: 73 2e 6d 61: 
             0x00000418: 78 74 69 6d: 
             0x0000041c: 65 72 73 00: 
             0x00000420: 5f 69 6e 69: 
             0x00000424: 74 2e 6d 61: 
             0x00000428: 78 74 69 6d: 
             0x0000042c: 65 72 73 00: 
             0x00000430: 6d 61 69 6e: 
             0x00000434: 2e 6d 61 78: 
             0x00000438: 74 69 6d 65: 
             0x0000043c: 72 73 00 5f: 
             0x00000440: 5f 6c 69 62: 
             0x00000444: 63 5f 64 6f: 
             0x00000448: 6e 65 2e 6d: 
             0x0000044c: 61 78 74 69: 
             0x00000450: 6d 65 72 73: 
             0x00000454: 00 5f 65 78: 
             0x00000458: 69 74 5f 75: 
             0x0000045c: 6e 6c 6f 63: 
             0x00000460: 6b 65 64 2e: 
             0x00000464: 6d 61 78 74: 
             0x00000468: 69 6d 65 72: 
             0x0000046c: 73 00 5f 53: 
             0x00000470: 65 74 75 70: 
             0x00000474: 54 72 61 70: 
             0x00000478: 73 2e 6d 61: 
             0x0000047c: 78 63 68 61: 
             0x00000480: 6e 65 6e 64: 
             0x00000484: 73 00 5f 47: 
             0x00000488: 65 74 52 61: 
             0x0000048c: 6d 45 6e 64: 
             0x00000490: 2e 6d 61 78: 
             0x00000494: 63 68 61 6e: 
             0x00000498: 65 6e 64 73: 
             0x0000049c: 00 5f 49 6e: 
             0x000004a0: 69 74 54 68: 
             0x000004a4: 72 65 61 64: 
             0x000004a8: 2e 6d 61 78: 
             0x000004ac: 63 68 61 6e: 
             0x000004b0: 65 6e 64 73: 
             0x000004b4: 00 5f 54 6f: 
             0x000004b8: 75 63 68 52: 
             0x000004bc: 65 67 69 73: 
             0x000004c0: 74 65 72 73: 
             0x000004c4: 2e 6d 61 78: 
             0x000004c8: 63 68 61 6e: 
             0x000004cc: 65 6e 64 73: 
             0x000004d0: 00 5f 69 6e: 
             0x000004d4: 69 74 2e 6d: 
             0x000004d8: 61 78 63 68: 
             0x000004dc: 61 6e 65 6e: 
             0x000004e0: 64 73 00 6d: 
             0x000004e4: 61 69 6e 2e: 
             0x000004e8: 6d 61 78 63: 
             0x000004ec: 68 61 6e 65: 
             0x000004f0: 6e 64 73 00: 
             0x000004f4: 5f 5f 6c 69: 
             0x000004f8: 62 63 5f 64: 
             0x000004fc: 6f 6e 65 2e: 
             0x00000500: 6d 61 78 63: 
             0x00000504: 68 61 6e 65: 
             0x00000508: 6e 64 73 00: 
             0x0000050c: 5f 65 78 69: 
             0x00000510: 74 5f 75 6e: 
             0x00000514: 6c 6f 63 6b: 
             0x00000518: 65 64 2e 6d: 
             0x0000051c: 61 78 63 68: 
             0x00000520: 61 6e 65 6e: 
             0x00000524: 64 73 00 5f: 
             0x00000528: 49 6e 69 74: 
             0x0000052c: 54 68 72 65: 
             0x00000530: 61 64 4c 6f: 
             0x00000534: 6f 70 00 5f: 
             0x00000538: 45 78 69 74: 
             0x0000053c: 57 69 74 68: 
             0x00000540: 45 72 72 6f: 
             0x00000544: 72 00 5f 4a: 
             0x00000548: 6f 69 6e 00: 
             0x0000054c: 5f 4e 6f 6e: 
             0x00000550: 5a 65 72 6f: 
             0x00000554: 52 65 74 75: 
             0x00000558: 72 6e 00 5f: 
             0x0000055c: 54 72 61 70: 
             0x00000560: 48 61 6e 64: 
             0x00000564: 6c 65 72 00: 
             0x00000568: 5f 49 6e 69: 
             0x0000056c: 74 54 68 72: 
             0x00000570: 65 61 64 52: 
             0x00000574: 6f 75 74 69: 
             0x00000578: 6e 65 00 5f: 
             0x0000057c: 5f 61 6c 6c: 
             0x00000580: 6f 63 5f 6c: 
             0x00000584: 69 62 63 5f: 
             0x00000588: 68 77 6c 6f: 
             0x0000058c: 63 6b 00 5f: 
             0x00000590: 5f 72 65 67: 
             0x00000594: 69 73 74 65: 
             0x00000598: 72 5f 66 72: 
             0x0000059c: 61 6d 65 5f: 
             0x000005a0: 69 6e 66 6f: 
             0x000005a4: 5f 62 61 73: 
             0x000005a8: 65 73 00 5f: 
             0x000005ac: 5f 66 72 65: 
             0x000005b0: 65 5f 6c 69: 
             0x000005b4: 62 63 5f 68: 
             0x000005b8: 77 6c 6f 63: 
             0x000005bc: 6b 00 5f 66: 
             0x000005c0: 69 6e 69 00: 
             0x000005c4: 5f 66 69 6e: 
             0x000005c8: 69 2e 6e 73: 
             0x000005cc: 74 61 63 6b: 
             0x000005d0: 77 6f 72 64: 
             0x000005d4: 73 00 5f 66: 
             0x000005d8: 69 6e 69 2e: 
             0x000005dc: 6d 61 78 63: 
             0x000005e0: 68 61 6e 65: 
             0x000005e4: 6e 64 73 00: 
             0x000005e8: 5f 66 69 6e: 
             0x000005ec: 69 2e 6d 61: 
             0x000005f0: 78 74 69 6d: 
             0x000005f4: 65 72 73 00: 
             0x000005f8: 5f 66 69 6e: 
             0x000005fc: 69 2e 6d 61: 
             0x00000600: 78 63 6f 72: 
             0x00000604: 65 73 00 5f: 
             0x00000608: 52 61 6d 53: 
             0x0000060c: 69 7a 65 00: 
             0x00000610: 5f 4e 75 6c: 
             0x00000614: 6c 50 74 72: 
             0x00000618: 00 5f 65 78: 
             0x0000061c: 69 74 00 5f: 
             0x00000620: 44 6f 45 78: 
             0x00000624: 63 65 70 74: 
             0x00000628: 69 6f 6e 00: 
             0x0000062c: 5f 65 62 73: 
             0x00000630: 73 00 6d 65: 
             0x00000634: 6d 73 65 74: 
             0x00000638: 00 63 72 74: 
             0x0000063c: 62 65 67 69: 
             0x00000640: 6e 2e 73 00: 
             0x00000644: 64 74 6f 72: 
             0x00000648: 5f 6c 69 73: 
             0x0000064c: 74 5f 70 74: 
             0x00000650: 72 00 64 74: 
             0x00000654: 6f 72 73 5f: 
             0x00000658: 73 69 7a 65: 
             0x0000065c: 00 5f 44 54: 
             0x00000660: 4f 52 5f 45: 
             0x00000664: 4e 44 5f 00: 
             0x00000668: 64 6f 5f 64: 
             0x0000066c: 74 6f 72 73: 
             0x00000670: 5f 6c 6f 6f: 
             0x00000674: 70 00 64 6f: 
             0x00000678: 5f 64 74 6f: 
             0x0000067c: 72 73 5f 65: 
             0x00000680: 6e 64 00 5f: 
             0x00000684: 5f 45 48 5f: 
             0x00000688: 46 52 41 4d: 
             0x0000068c: 45 5f 42 45: 
             0x00000690: 47 49 4e 5f: 
             0x00000694: 5f 00 73 63: 
             0x00000698: 6d 61 69 6e: 
             0x0000069c: 5f 33 2e 78: 
             0x000006a0: 63 00 75 73: 
             0x000006a4: 61 67 65 2e: 
             0x000006a8: 61 6e 6f 6e: 
             0x000006ac: 2e 30 00 73: 
             0x000006b0: 77 5f 6e 63: 
             0x000006b4: 6f 6c 73 00: 
             0x000006b8: 5f 5f 69 6e: 
             0x000006bc: 69 74 4c 69: 
             0x000006c0: 6e 6b 73 00: 
             0x000006c4: 73 77 5f 6e: 
             0x000006c8: 72 6f 77 73: 
             0x000006cc: 00 6e 4f 53: 
             0x000006d0: 5f 73 74 61: 
             0x000006d4: 72 74 00 69: 
             0x000006d8: 6f 5f 72 65: 
             0x000006dc: 64 69 72 65: 
             0x000006e0: 63 74 00 67: 
             0x000006e4: 65 74 43 68: 
             0x000006e8: 61 6e 65 6e: 
             0x000006ec: 64 00 6d 61: 
             0x000006f0: 69 6e 2e 6c: 
             0x000006f4: 6f 63 6e 6f: 
             0x000006f8: 73 69 64 65: 
             0x000006fc: 00 5f 5f 69: 
             0x00000700: 6e 69 74 4c: 
             0x00000704: 69 6e 6b 73: 
             0x00000708: 2e 6c 6f 63: 
             0x0000070c: 6e 6f 63 68: 
             0x00000710: 61 6e 64 65: 
             0x00000714: 63 00 6d 61: 
             0x00000718: 69 6e 2e 6c: 
             0x0000071c: 6f 63 6e 6f: 
             0x00000720: 63 68 61 6e: 
             0x00000724: 64 65 63 00: 
             0x00000728: 5f 5f 69 6e: 
             0x0000072c: 69 74 4c 69: 
             0x00000730: 6e 6b 73 2e: 
             0x00000734: 6e 73 74 61: 
             0x00000738: 63 6b 77 6f: 
             0x0000073c: 72 64 73 00: 
             0x00000740: 69 6f 5f 72: 
             0x00000744: 65 64 69 72: 
             0x00000748: 65 63 74 2e: 
             0x0000074c: 6e 73 74 61: 
             0x00000750: 63 6b 77 6f: 
             0x00000754: 72 64 73 00: 
             0x00000758: 67 65 74 43: 
             0x0000075c: 68 61 6e 65: 
             0x00000760: 6e 64 2e 6e: 
             0x00000764: 73 74 61 63: 
             0x00000768: 6b 77 6f 72: 
             0x0000076c: 64 73 00 5f: 
             0x00000770: 5f 69 6e 69: 
             0x00000774: 74 4c 69 6e: 
             0x00000778: 6b 73 2e 6d: 
             0x0000077c: 61 78 63 6f: 
             0x00000780: 72 65 73 00: 
             0x00000784: 67 65 74 43: 
             0x00000788: 68 61 6e 65: 
             0x0000078c: 6e 64 2e 6d: 
             0x00000790: 61 78 63 6f: 
             0x00000794: 72 65 73 00: 
             0x00000798: 69 6f 5f 72: 
             0x0000079c: 65 64 69 72: 
             0x000007a0: 65 63 74 2e: 
             0x000007a4: 6d 61 78 63: 
             0x000007a8: 6f 72 65 73: 
             0x000007ac: 00 5f 5f 69: 
             0x000007b0: 6e 69 74 4c: 
             0x000007b4: 69 6e 6b 73: 
             0x000007b8: 2e 6d 61 78: 
             0x000007bc: 74 69 6d 65: 
             0x000007c0: 72 73 00 67: 
             0x000007c4: 65 74 43 68: 
             0x000007c8: 61 6e 65 6e: 
             0x000007cc: 64 2e 6d 61: 
             0x000007d0: 78 74 69 6d: 
             0x000007d4: 65 72 73 00: 
             0x000007d8: 69 6f 5f 72: 
             0x000007dc: 65 64 69 72: 
             0x000007e0: 65 63 74 2e: 
             0x000007e4: 6d 61 78 74: 
             0x000007e8: 69 6d 65 72: 
             0x000007ec: 73 00 5f 5f: 
             0x000007f0: 69 6e 69 74: 
             0x000007f4: 4c 69 6e 6b: 
             0x000007f8: 73 2e 6d 61: 
             0x000007fc: 78 63 68 61: 
             0x00000800: 6e 65 6e 64: 
             0x00000804: 73 00 67 65: 
             0x00000808: 74 43 68 61: 
             0x0000080c: 6e 65 6e 64: 
             0x00000810: 2e 6d 61 78: 
             0x00000814: 63 68 61 6e: 
             0x00000818: 65 6e 64 73: 
             0x0000081c: 00 69 6f 5f: 
             0x00000820: 72 65 64 69: 
             0x00000824: 72 65 63 74: 
             0x00000828: 2e 6d 61 78: 
             0x0000082c: 63 68 61 6e: 
             0x00000830: 65 6e 64 73: 
             0x00000834: 00 6e 4f 53: 
             0x00000838: 5f 73 74 61: 
             0x0000083c: 72 74 2e 6e: 
             0x00000840: 73 74 61 63: 
             0x00000844: 6b 77 6f 72: 
             0x00000848: 64 73 00 6e: 
             0x0000084c: 4f 53 5f 73: 
             0x00000850: 74 61 72 74: 
             0x00000854: 2e 6d 61 78: 
             0x00000858: 63 6f 72 65: 
             0x0000085c: 73 00 6e 4f: 
             0x00000860: 53 5f 73 74: 
             0x00000864: 61 72 74 2e: 
             0x00000868: 6d 61 78 74: 
             0x0000086c: 69 6d 65 72: 
             0x00000870: 73 00 6e 4f: 
             0x00000874: 53 5f 73 74: 
             0x00000878: 61 72 74 2e: 
             0x0000087c: 6d 61 78 63: 
             0x00000880: 68 61 6e 65: 
             0x00000884: 6e 64 73 00: 
             0x00000888: 6e 4f 53 5f: 
             0x0000088c: 73 74 61 72: 
             0x00000890: 74 2e 63 6f: 
             0x00000894: 65 72 73 65: 
             0x00000898: 64 2e 2e 66: 
             0x0000089c: 2e 37 62 30: 
             0x000008a0: 2e 37 64 2e: 
             0x000008a4: 32 38 75 69: 
             0x000008a8: 2e 32 63 75: 
             0x000008ac: 69 2e 32 39: 
             0x000008b0: 00 6e 4f 53: 
             0x000008b4: 5f 73 74 61: 
             0x000008b8: 72 74 2e 63: 
             0x000008bc: 6f 65 72 73: 
             0x000008c0: 65 64 2e 2e: 
             0x000008c4: 66 2e 37 62: 
             0x000008c8: 30 2e 37 64: 
             0x000008cc: 2e 32 38 75: 
             0x000008d0: 69 2e 32 63: 
             0x000008d4: 75 69 2e 32: 
             0x000008d8: 39 2e 6e 73: 
             0x000008dc: 74 61 63 6b: 
             0x000008e0: 77 6f 72 64: 
             0x000008e4: 73 00 2f 68: 
             0x000008e8: 6f 6d 65 2f: 
             0x000008ec: 73 6c 64 2d: 
             0x000008f0: 75 73 65 72: 
             0x000008f4: 2f 73 77 61: 
             0x000008f8: 6c 6c 6f 77: 
             0x000008fc: 5f 74 6f 6f: 
             0x00000900: 6c 73 2f 74: 
             0x00000904: 6f 6f 6c 5f: 
             0x00000908: 78 6d 70 31: 
             0x0000090c: 36 5f 6d 61: 
             0x00000910: 6e 79 63 6f: 
             0x00000914: 72 65 2f 74: 
             0x00000918: 6f 6f 6c 73: 
             0x0000091c: 2f 2e 2e 2f: 
             0x00000920: 63 6f 64 65: 
             0x00000924: 2f 73 63 5f: 
             0x00000928: 73 77 61 6c: 
             0x0000092c: 6c 6f 77 5f: 
             0x00000930: 63 6f 6d 6d: 
             0x00000934: 75 6e 69 63: 
             0x00000938: 61 74 69 6f: 
             0x0000093c: 6e 2f 6d 6f: 
             0x00000940: 64 75 6c 65: 
             0x00000944: 5f 73 77 61: 
             0x00000948: 6c 6c 6f 77: 
             0x0000094c: 5f 63 6f 6d: 
             0x00000950: 6d 73 2f 73: 
             0x00000954: 72 63 2f 73: 
             0x00000958: 77 61 6c 6c: 
             0x0000095c: 6f 77 5f 63: 
             0x00000960: 6f 6d 6d 73: 
             0x00000964: 2e 78 63 00: 
             0x00000968: 67 65 74 5f: 
             0x0000096c: 6c 6f 63 61: 
             0x00000970: 6c 5f 74 69: 
             0x00000974: 6c 65 5f 69: 
             0x00000978: 64 00 69 6f: 
             0x0000097c: 5f 72 65 64: 
             0x00000980: 69 72 65 63: 
             0x00000984: 74 2e 6c 6f: 
             0x00000988: 63 6e 6f 73: 
             0x0000098c: 69 64 65 00: 
             0x00000990: 5f 77 72 69: 
             0x00000994: 74 65 5f 69: 
             0x00000998: 6e 74 65 72: 
             0x0000099c: 63 65 70 74: 
             0x000009a0: 2e 6c 6f 63: 
             0x000009a4: 6e 6f 63 68: 
             0x000009a8: 61 6e 64 65: 
             0x000009ac: 63 00 69 6f: 
             0x000009b0: 5f 72 65 64: 
             0x000009b4: 69 72 65 63: 
             0x000009b8: 74 2e 6c 6f: 
             0x000009bc: 63 6e 6f 63: 
             0x000009c0: 68 61 6e 64: 
             0x000009c4: 65 63 00 66: 
             0x000009c8: 69 78 75 70: 
             0x000009cc: 43 68 61 6e: 
             0x000009d0: 4e 6f 64 65: 
             0x000009d4: 2e 6c 6f 63: 
             0x000009d8: 6e 6f 63 68: 
             0x000009dc: 61 6e 64 65: 
             0x000009e0: 63 00 66 69: 
             0x000009e4: 78 75 70 53: 
             0x000009e8: 74 72 65 61: 
             0x000009ec: 6d 69 6e 67: 
             0x000009f0: 43 68 61 6e: 
             0x000009f4: 4e 6f 64 65: 
             0x000009f8: 2e 6c 6f 63: 
             0x000009fc: 6e 6f 63 68: 
             0x00000a00: 61 6e 64 65: 
             0x00000a04: 63 00 66 69: 
             0x00000a08: 78 75 70 53: 
             0x00000a0c: 74 72 65 61: 
             0x00000a10: 6d 69 6e 67: 
             0x00000a14: 43 68 61 6e: 
             0x00000a18: 4e 6f 64 65: 
             0x00000a1c: 2e 6e 73 74: 
             0x00000a20: 61 63 6b 77: 
             0x00000a24: 6f 72 64 73: 
             0x00000a28: 00 67 65 74: 
             0x00000a2c: 4c 6f 63 61: 
             0x00000a30: 6c 53 74 72: 
             0x00000a34: 65 61 6d 69: 
             0x00000a38: 6e 67 43 68: 
             0x00000a3c: 61 6e 65 6e: 
             0x00000a40: 64 49 64 2e: 
             0x00000a44: 6e 73 74 61: 
             0x00000a48: 63 6b 77 6f: 
             0x00000a4c: 72 64 73 00: 
             0x00000a50: 67 65 74 5f: 
             0x00000a54: 6c 6f 63 61: 
             0x00000a58: 6c 5f 74 69: 
             0x00000a5c: 6c 65 5f 69: 
             0x00000a60: 64 2e 6e 73: 
             0x00000a64: 74 61 63 6b: 
             0x00000a68: 77 6f 72 64: 
             0x00000a6c: 73 00 66 69: 
             0x00000a70: 78 75 70 53: 
             0x00000a74: 74 72 65 61: 
             0x00000a78: 6d 69 6e 67: 
             0x00000a7c: 43 68 61 6e: 
             0x00000a80: 4e 6f 64 65: 
             0x00000a84: 2e 6d 61 78: 
             0x00000a88: 63 6f 72 65: 
             0x00000a8c: 73 00 67 65: 
             0x00000a90: 74 4c 6f 63: 
             0x00000a94: 61 6c 53 74: 
             0x00000a98: 72 65 61 6d: 
             0x00000a9c: 69 6e 67 43: 
             0x00000aa0: 68 61 6e 65: 
             0x00000aa4: 6e 64 49 64: 
             0x00000aa8: 2e 6d 61 78: 
             0x00000aac: 63 6f 72 65: 
             0x00000ab0: 73 00 67 65: 
             0x00000ab4: 74 5f 6c 6f: 
             0x00000ab8: 63 61 6c 5f: 
             0x00000abc: 74 69 6c 65: 
             0x00000ac0: 5f 69 64 2e: 
             0x00000ac4: 6d 61 78 63: 
             0x00000ac8: 6f 72 65 73: 
             0x00000acc: 00 66 69 78: 
             0x00000ad0: 75 70 53 74: 
             0x00000ad4: 72 65 61 6d: 
             0x00000ad8: 69 6e 67 43: 
             0x00000adc: 68 61 6e 4e: 
             0x00000ae0: 6f 64 65 2e: 
             0x00000ae4: 6d 61 78 74: 
             0x00000ae8: 69 6d 65 72: 
             0x00000aec: 73 00 67 65: 
             0x00000af0: 74 4c 6f 63: 
             0x00000af4: 61 6c 53 74: 
             0x00000af8: 72 65 61 6d: 
             0x00000afc: 69 6e 67 43: 
             0x00000b00: 68 61 6e 65: 
             0x00000b04: 6e 64 49 64: 
             0x00000b08: 2e 6d 61 78: 
             0x00000b0c: 74 69 6d 65: 
             0x00000b10: 72 73 00 67: 
             0x00000b14: 65 74 5f 6c: 
             0x00000b18: 6f 63 61 6c: 
             0x00000b1c: 5f 74 69 6c: 
             0x00000b20: 65 5f 69 64: 
             0x00000b24: 2e 6d 61 78: 
             0x00000b28: 74 69 6d 65: 
             0x00000b2c: 72 73 00 66: 
             0x00000b30: 69 78 75 70: 
             0x00000b34: 53 74 72 65: 
             0x00000b38: 61 6d 69 6e: 
             0x00000b3c: 67 43 68 61: 
             0x00000b40: 6e 4e 6f 64: 
             0x00000b44: 65 2e 6d 61: 
             0x00000b48: 78 63 68 61: 
             0x00000b4c: 6e 65 6e 64: 
             0x00000b50: 73 00 67 65: 
             0x00000b54: 74 4c 6f 63: 
             0x00000b58: 61 6c 53 74: 
             0x00000b5c: 72 65 61 6d: 
             0x00000b60: 69 6e 67 43: 
             0x00000b64: 68 61 6e 65: 
             0x00000b68: 6e 64 49 64: 
             0x00000b6c: 2e 6d 61 78: 
             0x00000b70: 63 68 61 6e: 
             0x00000b74: 65 6e 64 73: 
             0x00000b78: 00 67 65 74: 
             0x00000b7c: 5f 6c 6f 63: 
             0x00000b80: 61 6c 5f 74: 
             0x00000b84: 69 6c 65 5f: 
             0x00000b88: 69 64 2e 6d: 
             0x00000b8c: 61 78 63 68: 
             0x00000b90: 61 6e 65 6e: 
             0x00000b94: 64 73 00 5f: 
             0x00000b98: 77 72 69 74: 
             0x00000b9c: 65 5f 69 6e: 
             0x00000ba0: 74 65 72 63: 
             0x00000ba4: 65 70 74 2e: 
             0x00000ba8: 6e 73 74 61: 
             0x00000bac: 63 6b 77 6f: 
             0x00000bb0: 72 64 73 00: 
             0x00000bb4: 65 6e 64 54: 
             0x00000bb8: 72 61 6e 73: 
             0x00000bbc: 61 63 74 69: 
             0x00000bc0: 6f 6e 43 6c: 
             0x00000bc4: 69 65 6e 74: 
             0x00000bc8: 2e 6e 73 74: 
             0x00000bcc: 61 63 6b 77: 
             0x00000bd0: 6f 72 64 73: 
             0x00000bd4: 00 73 74 61: 
             0x00000bd8: 72 74 54 72: 
             0x00000bdc: 61 6e 73 61: 
             0x00000be0: 63 74 69 6f: 
             0x00000be4: 6e 43 6c 69: 
             0x00000be8: 65 6e 74 2e: 
             0x00000bec: 6e 73 74 61: 
             0x00000bf0: 63 6b 77 6f: 
             0x00000bf4: 72 64 73 00: 
             0x00000bf8: 5f 77 72 69: 
             0x00000bfc: 74 65 5f 69: 
             0x00000c00: 6e 74 65 72: 
             0x00000c04: 63 65 70 74: 
             0x00000c08: 2e 6d 61 78: 
             0x00000c0c: 63 6f 72 65: 
             0x00000c10: 73 00 65 6e: 
             0x00000c14: 64 54 72 61: 
             0x00000c18: 6e 73 61 63: 
             0x00000c1c: 74 69 6f 6e: 
             0x00000c20: 43 6c 69 65: 
             0x00000c24: 6e 74 2e 6d: 
             0x00000c28: 61 78 63 6f: 
             0x00000c2c: 72 65 73 00: 
             0x00000c30: 73 74 61 72: 
             0x00000c34: 74 54 72 61: 
             0x00000c38: 6e 73 61 63: 
             0x00000c3c: 74 69 6f 6e: 
             0x00000c40: 43 6c 69 65: 
             0x00000c44: 6e 74 2e 6d: 
             0x00000c48: 61 78 63 6f: 
             0x00000c4c: 72 65 73 00: 
             0x00000c50: 5f 77 72 69: 
             0x00000c54: 74 65 5f 69: 
             0x00000c58: 6e 74 65 72: 
             0x00000c5c: 63 65 70 74: 
             0x00000c60: 2e 6d 61 78: 
             0x00000c64: 74 69 6d 65: 
             0x00000c68: 72 73 00 65: 
             0x00000c6c: 6e 64 54 72: 
             0x00000c70: 61 6e 73 61: 
             0x00000c74: 63 74 69 6f: 
             0x00000c78: 6e 43 6c 69: 
             0x00000c7c: 65 6e 74 2e: 
             0x00000c80: 6d 61 78 74: 
             0x00000c84: 69 6d 65 72: 
             0x00000c88: 73 00 73 74: 
             0x00000c8c: 61 72 74 54: 
             0x00000c90: 72 61 6e 73: 
             0x00000c94: 61 63 74 69: 
             0x00000c98: 6f 6e 43 6c: 
             0x00000c9c: 69 65 6e 74: 
             0x00000ca0: 2e 6d 61 78: 
             0x00000ca4: 74 69 6d 65: 
             0x00000ca8: 72 73 00 5f: 
             0x00000cac: 77 72 69 74: 
             0x00000cb0: 65 5f 69 6e: 
             0x00000cb4: 74 65 72 63: 
             0x00000cb8: 65 70 74 2e: 
             0x00000cbc: 6d 61 78 63: 
             0x00000cc0: 68 61 6e 65: 
             0x00000cc4: 6e 64 73 00: 
             0x00000cc8: 65 6e 64 54: 
             0x00000ccc: 72 61 6e 73: 
             0x00000cd0: 61 63 74 69: 
             0x00000cd4: 6f 6e 43 6c: 
             0x00000cd8: 69 65 6e 74: 
             0x00000cdc: 2e 6d 61 78: 
             0x00000ce0: 63 68 61 6e: 
             0x00000ce4: 65 6e 64 73: 
             0x00000ce8: 00 73 74 61: 
             0x00000cec: 72 74 54 72: 
             0x00000cf0: 61 6e 73 61: 
             0x00000cf4: 63 74 69 6f: 
             0x00000cf8: 6e 43 6c 69: 
             0x00000cfc: 65 6e 74 2e: 
             0x00000d00: 6d 61 78 63: 
             0x00000d04: 68 61 6e 65: 
             0x00000d08: 6e 64 73 00: 
             0x00000d0c: 66 69 78 75: 
             0x00000d10: 70 43 68 61: 
             0x00000d14: 6e 4e 6f 64: 
             0x00000d18: 65 2e 6e 73: 
             0x00000d1c: 74 61 63 6b: 
             0x00000d20: 77 6f 72 64: 
             0x00000d24: 73 00 67 65: 
             0x00000d28: 74 4c 6f 63: 
             0x00000d2c: 61 6c 43 68: 
             0x00000d30: 61 6e 65 6e: 
             0x00000d34: 64 49 64 2e: 
             0x00000d38: 6e 73 74 61: 
             0x00000d3c: 63 6b 77 6f: 
             0x00000d40: 72 64 73 00: 
             0x00000d44: 66 69 78 75: 
             0x00000d48: 70 43 68 61: 
             0x00000d4c: 6e 4e 6f 64: 
             0x00000d50: 65 2e 6d 61: 
             0x00000d54: 78 63 6f 72: 
             0x00000d58: 65 73 00 67: 
             0x00000d5c: 65 74 4c 6f: 
             0x00000d60: 63 61 6c 43: 
             0x00000d64: 68 61 6e 65: 
             0x00000d68: 6e 64 49 64: 
             0x00000d6c: 2e 6d 61 78: 
             0x00000d70: 63 6f 72 65: 
             0x00000d74: 73 00 66 69: 
             0x00000d78: 78 75 70 43: 
             0x00000d7c: 68 61 6e 4e: 
             0x00000d80: 6f 64 65 2e: 
             0x00000d84: 6d 61 78 74: 
             0x00000d88: 69 6d 65 72: 
             0x00000d8c: 73 00 67 65: 
             0x00000d90: 74 4c 6f 63: 
             0x00000d94: 61 6c 43 68: 
             0x00000d98: 61 6e 65 6e: 
             0x00000d9c: 64 49 64 2e: 
             0x00000da0: 6d 61 78 74: 
             0x00000da4: 69 6d 65 72: 
             0x00000da8: 73 00 66 69: 
             0x00000dac: 78 75 70 43: 
             0x00000db0: 68 61 6e 4e: 
             0x00000db4: 6f 64 65 2e: 
             0x00000db8: 6d 61 78 63: 
             0x00000dbc: 68 61 6e 65: 
             0x00000dc0: 6e 64 73 00: 
             0x00000dc4: 67 65 74 4c: 
             0x00000dc8: 6f 63 61 6c: 
             0x00000dcc: 43 68 61 6e: 
             0x00000dd0: 65 6e 64 49: 
             0x00000dd4: 64 2e 6d 61: 
             0x00000dd8: 78 63 68 61: 
             0x00000ddc: 6e 65 6e 64: 
             0x00000de0: 73 00 5f 77: 
             0x00000de4: 72 69 74 65: 
             0x00000de8: 00 5f 77 72: 
             0x00000dec: 69 74 65 5f: 
             0x00000df0: 69 6e 74 65: 
             0x00000df4: 72 63 65 70: 
             0x00000df8: 74 5f 61 73: 
             0x00000dfc: 6d 00 2f 68: 
             0x00000e00: 6f 6d 65 2f: 
             0x00000e04: 73 6c 64 2d: 
             0x00000e08: 75 73 65 72: 
             0x00000e0c: 2f 73 77 61: 
             0x00000e10: 6c 6c 6f 77: 
             0x00000e14: 5f 74 6f 6f: 
             0x00000e18: 6c 73 2f 74: 
             0x00000e1c: 6f 6f 6c 5f: 
             0x00000e20: 78 6d 70 31: 
             0x00000e24: 36 5f 6d 61: 
             0x00000e28: 6e 79 63 6f: 
             0x00000e2c: 72 65 2f 74: 
             0x00000e30: 6f 6f 6c 73: 
             0x00000e34: 2f 2e 2e 2f: 
             0x00000e38: 63 6f 64 65: 
             0x00000e3c: 2f 73 63 5f: 
             0x00000e40: 73 77 61 6c: 
             0x00000e44: 6c 6f 77 5f: 
             0x00000e48: 63 6f 6d 6d: 
             0x00000e4c: 75 6e 69 63: 
             0x00000e50: 61 74 69 6f: 
             0x00000e54: 6e 2f 6d 6f: 
             0x00000e58: 64 75 6c 65: 
             0x00000e5c: 5f 73 77 61: 
             0x00000e60: 6c 6c 6f 77: 
             0x00000e64: 5f 63 6f 6d: 
             0x00000e68: 6d 73 2f 73: 
             0x00000e6c: 72 63 2f 73: 
             0x00000e70: 77 61 6c 6c: 
             0x00000e74: 6f 77 5f 63: 
             0x00000e78: 6f 6d 6d 73: 
             0x00000e7c: 2e 53 00 78: 
             0x00000e80: 6d 70 31 36: 
             0x00000e84: 41 73 73 65: 
             0x00000e88: 72 74 2e 6e: 
             0x00000e8c: 73 74 61 63: 
             0x00000e90: 6b 77 6f 72: 
             0x00000e94: 64 73 00 78: 
             0x00000e98: 6d 70 31 36: 
             0x00000e9c: 41 73 73 65: 
             0x00000ea0: 72 74 2e 6d: 
             0x00000ea4: 61 78 74 69: 
             0x00000ea8: 6d 65 72 73: 
             0x00000eac: 00 78 6d 70: 
             0x00000eb0: 31 36 41 73: 
             0x00000eb4: 73 65 72 74: 
             0x00000eb8: 2e 6d 61 78: 
             0x00000ebc: 63 68 61 6e: 
             0x00000ec0: 65 6e 64 73: 
             0x00000ec4: 00 78 6d 70: 
             0x00000ec8: 31 36 41 73: 
             0x00000ecc: 73 65 72 74: 
             0x00000ed0: 2e 6d 61 78: 
             0x00000ed4: 63 6f 72 65: 
             0x00000ed8: 73 00 72 65: 
             0x00000edc: 74 47 65 74: 
             0x00000ee0: 43 68 61 6e: 
             0x00000ee4: 65 6e 64 00: 
             0x00000ee8: 73 65 74 44: 
             0x00000eec: 65 73 74 69: 
             0x00000ef0: 6e 61 74 69: 
             0x00000ef4: 6f 6e 2e 6e: 
             0x00000ef8: 73 74 61 63: 
             0x00000efc: 6b 77 6f 72: 
             0x00000f00: 64 73 00 73: 
             0x00000f04: 65 74 44 65: 
             0x00000f08: 73 74 69 6e: 
             0x00000f0c: 61 74 69 6f: 
             0x00000f10: 6e 2e 6d 61: 
             0x00000f14: 78 74 69 6d: 
             0x00000f18: 65 72 73 00: 
             0x00000f1c: 73 65 74 44: 
             0x00000f20: 65 73 74 69: 
             0x00000f24: 6e 61 74 69: 
             0x00000f28: 6f 6e 2e 6d: 
             0x00000f2c: 61 78 63 68: 
             0x00000f30: 61 6e 65 6e: 
             0x00000f34: 64 73 00 73: 
             0x00000f38: 65 74 44 65: 
             0x00000f3c: 73 74 69 6e: 
             0x00000f40: 61 74 69 6f: 
             0x00000f44: 6e 2e 6d 61: 
             0x00000f48: 78 63 6f 72: 
             0x00000f4c: 65 73 00 67: 
             0x00000f50: 65 74 52 65: 
             0x00000f54: 6d 6f 74 65: 
             0x00000f58: 43 68 61 6e: 
             0x00000f5c: 65 6e 64 49: 
             0x00000f60: 64 2e 6e 73: 
             0x00000f64: 74 61 63 6b: 
             0x00000f68: 77 6f 72 64: 
             0x00000f6c: 73 00 67 65: 
             0x00000f70: 74 52 65 6d: 
             0x00000f74: 6f 74 65 43: 
             0x00000f78: 68 61 6e 65: 
             0x00000f7c: 6e 64 49 64: 
             0x00000f80: 2e 6d 61 78: 
             0x00000f84: 74 69 6d 65: 
             0x00000f88: 72 73 00 67: 
             0x00000f8c: 65 74 52 65: 
             0x00000f90: 6d 6f 74 65: 
             0x00000f94: 43 68 61 6e: 
             0x00000f98: 65 6e 64 49: 
             0x00000f9c: 64 2e 6d 61: 
             0x00000fa0: 78 63 68 61: 
             0x00000fa4: 6e 65 6e 64: 
             0x00000fa8: 73 00 67 65: 
             0x00000fac: 74 52 65 6d: 
             0x00000fb0: 6f 74 65 43: 
             0x00000fb4: 68 61 6e 65: 
             0x00000fb8: 6e 64 49 64: 
             0x00000fbc: 2e 6d 61 78: 
             0x00000fc0: 63 6f 72 65: 
             0x00000fc4: 73 00 67 65: 
             0x00000fc8: 74 52 65 6d: 
             0x00000fcc: 6f 74 65 53: 
             0x00000fd0: 74 72 65 61: 
             0x00000fd4: 6d 69 6e 67: 
             0x00000fd8: 43 68 61 6e: 
             0x00000fdc: 65 6e 64 49: 
             0x00000fe0: 64 2e 6e 73: 
             0x00000fe4: 74 61 63 6b: 
             0x00000fe8: 77 6f 72 64: 
             0x00000fec: 73 00 67 65: 
             0x00000ff0: 74 52 65 6d: 
             0x00000ff4: 6f 74 65 53: 
             0x00000ff8: 74 72 65 61: 
             0x00000ffc: 6d 69 6e 67: 
             0x00001000: 43 68 61 6e: 
             0x00001004: 65 6e 64 49: 
             0x00001008: 64 2e 6d 61: 
             0x0000100c: 78 74 69 6d: 
             0x00001010: 65 72 73 00: 
             0x00001014: 67 65 74 52: 
             0x00001018: 65 6d 6f 74: 
             0x0000101c: 65 53 74 72: 
             0x00001020: 65 61 6d 69: 
             0x00001024: 6e 67 43 68: 
             0x00001028: 61 6e 65 6e: 
             0x0000102c: 64 49 64 2e: 
             0x00001030: 6d 61 78 63: 
             0x00001034: 68 61 6e 65: 
             0x00001038: 6e 64 73 00: 
             0x0000103c: 67 65 74 52: 
             0x00001040: 65 6d 6f 74: 
             0x00001044: 65 53 74 72: 
             0x00001048: 65 61 6d 69: 
             0x0000104c: 6e 67 43 68: 
             0x00001050: 61 6e 65 6e: 
             0x00001054: 64 49 64 2e: 
             0x00001058: 6d 61 78 63: 
             0x0000105c: 6f 72 65 73: 
             0x00001060: 00 6f 75 74: 
             0x00001064: 55 69 6e 74: 
             0x00001068: 2e 6e 73 74: 
             0x0000106c: 61 63 6b 77: 
             0x00001070: 6f 72 64 73: 
             0x00001074: 00 6f 75 74: 
             0x00001078: 55 69 6e 74: 
             0x0000107c: 2e 6d 61 78: 
             0x00001080: 74 69 6d 65: 
             0x00001084: 72 73 00 6f: 
             0x00001088: 75 74 55 69: 
             0x0000108c: 6e 74 2e 6d: 
             0x00001090: 61 78 63 68: 
             0x00001094: 61 6e 65 6e: 
             0x00001098: 64 73 00 6f: 
             0x0000109c: 75 74 55 69: 
             0x000010a0: 6e 74 2e 6d: 
             0x000010a4: 61 78 63 6f: 
             0x000010a8: 72 65 73 00: 
             0x000010ac: 6f 75 74 42: 
             0x000010b0: 79 74 65 2e: 
             0x000010b4: 6e 73 74 61: 
             0x000010b8: 63 6b 77 6f: 
             0x000010bc: 72 64 73 00: 
             0x000010c0: 6f 75 74 42: 
             0x000010c4: 79 74 65 2e: 
             0x000010c8: 6d 61 78 74: 
             0x000010cc: 69 6d 65 72: 
             0x000010d0: 73 00 6f 75: 
             0x000010d4: 74 42 79 74: 
             0x000010d8: 65 2e 6d 61: 
             0x000010dc: 78 63 68 61: 
             0x000010e0: 6e 65 6e 64: 
             0x000010e4: 73 00 6f 75: 
             0x000010e8: 74 42 79 74: 
             0x000010ec: 65 2e 6d 61: 
             0x000010f0: 78 63 6f 72: 
             0x000010f4: 65 73 00 69: 
             0x000010f8: 6e 55 69 6e: 
             0x000010fc: 74 2e 6e 73: 
             0x00001100: 74 61 63 6b: 
             0x00001104: 77 6f 72 64: 
             0x00001108: 73 00 69 6e: 
             0x0000110c: 55 69 6e 74: 
             0x00001110: 2e 6d 61 78: 
             0x00001114: 74 69 6d 65: 
             0x00001118: 72 73 00 69: 
             0x0000111c: 6e 55 69 6e: 
             0x00001120: 74 2e 6d 61: 
             0x00001124: 78 63 68 61: 
             0x00001128: 6e 65 6e 64: 
             0x0000112c: 73 00 69 6e: 
             0x00001130: 55 69 6e 74: 
             0x00001134: 2e 6d 61 78: 
             0x00001138: 63 6f 72 65: 
             0x0000113c: 73 00 69 6e: 
             0x00001140: 42 79 74 65: 
             0x00001144: 2e 6e 73 74: 
             0x00001148: 61 63 6b 77: 
             0x0000114c: 6f 72 64 73: 
             0x00001150: 00 69 6e 42: 
             0x00001154: 79 74 65 2e: 
             0x00001158: 6d 61 78 74: 
             0x0000115c: 69 6d 65 72: 
             0x00001160: 73 00 69 6e: 
             0x00001164: 42 79 74 65: 
             0x00001168: 2e 6d 61 78: 
             0x0000116c: 63 68 61 6e: 
             0x00001170: 65 6e 64 73: 
             0x00001174: 00 69 6e 42: 
             0x00001178: 79 74 65 2e: 
             0x0000117c: 6d 61 78 63: 
             0x00001180: 6f 72 65 73: 
             0x00001184: 00 63 6c 6f: 
             0x00001188: 73 65 43 68: 
             0x0000118c: 61 6e 65 6e: 
             0x00001190: 64 2e 6e 73: 
             0x00001194: 74 61 63 6b: 
             0x00001198: 77 6f 72 64: 
             0x0000119c: 73 00 63 6c: 
             0x000011a0: 6f 73 65 43: 
             0x000011a4: 68 61 6e 65: 
             0x000011a8: 6e 64 2e 6d: 
             0x000011ac: 61 78 74 69: 
             0x000011b0: 6d 65 72 73: 
             0x000011b4: 00 63 6c 6f: 
             0x000011b8: 73 65 43 68: 
             0x000011bc: 61 6e 65 6e: 
             0x000011c0: 64 2e 6d 61: 
             0x000011c4: 78 63 68 61: 
             0x000011c8: 6e 65 6e 64: 
             0x000011cc: 73 00 63 6c: 
             0x000011d0: 6f 73 65 43: 
             0x000011d4: 68 61 6e 65: 
             0x000011d8: 6e 64 2e 6d: 
             0x000011dc: 61 78 63 6f: 
             0x000011e0: 72 65 73 00: 
             0x000011e4: 67 65 74 4c: 
             0x000011e8: 6f 63 61 6c: 
             0x000011ec: 41 6e 6f 6e: 
             0x000011f0: 43 68 61 6e: 
             0x000011f4: 65 6e 64 2e: 
             0x000011f8: 6e 73 74 61: 
             0x000011fc: 63 6b 77 6f: 
             0x00001200: 72 64 73 00: 
             0x00001204: 67 65 74 4c: 
             0x00001208: 6f 63 61 6c: 
             0x0000120c: 41 6e 6f 6e: 
             0x00001210: 43 68 61 6e: 
             0x00001214: 65 6e 64 2e: 
             0x00001218: 6d 61 78 74: 
             0x0000121c: 69 6d 65 72: 
             0x00001220: 73 00 67 65: 
             0x00001224: 74 4c 6f 63: 
             0x00001228: 61 6c 41 6e: 
             0x0000122c: 6f 6e 43 68: 
             0x00001230: 61 6e 65 6e: 
             0x00001234: 64 2e 6d 61: 
             0x00001238: 78 63 68 61: 
             0x0000123c: 6e 65 6e 64: 
             0x00001240: 73 00 67 65: 
             0x00001244: 74 4c 6f 63: 
             0x00001248: 61 6c 41 6e: 
             0x0000124c: 6f 6e 43 68: 
             0x00001250: 61 6e 65 6e: 
             0x00001254: 64 2e 6d 61: 
             0x00001258: 78 63 6f 72: 
             0x0000125c: 65 73 00 70: 
             0x00001260: 61 75 73 65: 
             0x00001264: 54 72 61 6e: 
             0x00001268: 73 61 63 74: 
             0x0000126c: 69 6f 6e 43: 
             0x00001270: 6c 69 65 6e: 
             0x00001274: 74 2e 6e 73: 
             0x00001278: 74 61 63 6b: 
             0x0000127c: 77 6f 72 64: 
             0x00001280: 73 00 70 61: 
             0x00001284: 75 73 65 54: 
             0x00001288: 72 61 6e 73: 
             0x0000128c: 61 63 74 69: 
             0x00001290: 6f 6e 43 6c: 
             0x00001294: 69 65 6e 74: 
             0x00001298: 2e 6d 61 78: 
             0x0000129c: 74 69 6d 65: 
             0x000012a0: 72 73 00 70: 
             0x000012a4: 61 75 73 65: 
             0x000012a8: 54 72 61 6e: 
             0x000012ac: 73 61 63 74: 
             0x000012b0: 69 6f 6e 43: 
             0x000012b4: 6c 69 65 6e: 
             0x000012b8: 74 2e 6d 61: 
             0x000012bc: 78 63 68 61: 
             0x000012c0: 6e 65 6e 64: 
             0x000012c4: 73 00 70 61: 
             0x000012c8: 75 73 65 54: 
             0x000012cc: 72 61 6e 73: 
             0x000012d0: 61 63 74 69: 
             0x000012d4: 6f 6e 43 6c: 
             0x000012d8: 69 65 6e 74: 
             0x000012dc: 2e 6d 61 78: 
             0x000012e0: 63 6f 72 65: 
             0x000012e4: 73 00 72 65: 
             0x000012e8: 73 75 6d 65: 
             0x000012ec: 54 72 61 6e: 
             0x000012f0: 73 61 63 74: 
             0x000012f4: 69 6f 6e 43: 
             0x000012f8: 6c 69 65 6e: 
             0x000012fc: 74 2e 6e 73: 
             0x00001300: 74 61 63 6b: 
             0x00001304: 77 6f 72 64: 
             0x00001308: 73 00 72 65: 
             0x0000130c: 73 75 6d 65: 
             0x00001310: 54 72 61 6e: 
             0x00001314: 73 61 63 74: 
             0x00001318: 69 6f 6e 43: 
             0x0000131c: 6c 69 65 6e: 
             0x00001320: 74 2e 6d 61: 
             0x00001324: 78 74 69 6d: 
             0x00001328: 65 72 73 00: 
             0x0000132c: 72 65 73 75: 
             0x00001330: 6d 65 54 72: 
             0x00001334: 61 6e 73 61: 
             0x00001338: 63 74 69 6f: 
             0x0000133c: 6e 43 6c 69: 
             0x00001340: 65 6e 74 2e: 
             0x00001344: 6d 61 78 63: 
             0x00001348: 68 61 6e 65: 
             0x0000134c: 6e 64 73 00: 
             0x00001350: 72 65 73 75: 
             0x00001354: 6d 65 54 72: 
             0x00001358: 61 6e 73 61: 
             0x0000135c: 63 74 69 6f: 
             0x00001360: 6e 43 6c 69: 
             0x00001364: 65 6e 74 2e: 
             0x00001368: 6d 61 78 63: 
             0x0000136c: 6f 72 65 73: 
             0x00001370: 00 73 74 61: 
             0x00001374: 72 74 54 72: 
             0x00001378: 61 6e 73 61: 
             0x0000137c: 63 74 69 6f: 
             0x00001380: 6e 53 65 72: 
             0x00001384: 76 65 72 2e: 
             0x00001388: 6e 73 74 61: 
             0x0000138c: 63 6b 77 6f: 
             0x00001390: 72 64 73 00: 
             0x00001394: 73 74 61 72: 
             0x00001398: 74 54 72 61: 
             0x0000139c: 6e 73 61 63: 
             0x000013a0: 74 69 6f 6e: 
             0x000013a4: 53 65 72 76: 
             0x000013a8: 65 72 2e 6d: 
             0x000013ac: 61 78 74 69: 
             0x000013b0: 6d 65 72 73: 
             0x000013b4: 00 73 74 61: 
             0x000013b8: 72 74 54 72: 
             0x000013bc: 61 6e 73 61: 
             0x000013c0: 63 74 69 6f: 
             0x000013c4: 6e 53 65 72: 
             0x000013c8: 76 65 72 2e: 
             0x000013cc: 6d 61 78 63: 
             0x000013d0: 68 61 6e 73: 
             0x000013d4: 74 61 72 74: 
             0x000013d8: 73 00 73 74: 
             0x000013dc: 61 72 74 54: 
             0x000013e0: 72 61 6e 73: 
             0x000013e4: 61 63 74 69: 
             0x000013e8: 6f 6e 53 65: 
             0x000013ec: 72 76 65 72: 
             0x000013f0: 2e 6d 61 78: 
             0x000013f4: 63 6f 72 65: 
             0x000013f8: 73 00 65 6e: 
             0x000013fc: 64 54 72 61: 
             0x00001400: 6e 73 61 63: 
             0x00001404: 74 69 6f 6e: 
             0x00001408: 53 65 72 76: 
             0x0000140c: 65 72 2e 6e: 
             0x00001410: 73 74 61 63: 
             0x00001414: 6b 77 6f 72: 
             0x00001418: 64 73 00 65: 
             0x0000141c: 6e 64 54 72: 
             0x00001420: 61 6e 73 61: 
             0x00001424: 63 74 69 6f: 
             0x00001428: 6e 53 65 72: 
             0x0000142c: 76 65 72 2e: 
             0x00001430: 6d 61 78 74: 
             0x00001434: 69 6d 65 72: 
             0x00001438: 73 00 65 6e: 
             0x0000143c: 64 54 72 61: 
             0x00001440: 6e 73 61 63: 
             0x00001444: 74 69 6f 6e: 
             0x00001448: 53 65 72 76: 
             0x0000144c: 65 72 2e 6d: 
             0x00001450: 61 78 63 68: 
             0x00001454: 61 6e 65 6e: 
             0x00001458: 64 73 00 65: 
             0x0000145c: 6e 64 54 72: 
             0x00001460: 61 6e 73 61: 
             0x00001464: 63 74 69 6f: 
             0x00001468: 6e 53 65 72: 
             0x0000146c: 76 65 72 2e: 
             0x00001470: 6d 61 78 63: 
             0x00001474: 6f 72 65 73: 
             0x00001478: 00 5f 77 72: 
             0x0000147c: 69 74 65 5f: 
             0x00001480: 69 6e 74 65: 
             0x00001484: 72 63 65 70: 
             0x00001488: 74 5f 61 73: 
             0x0000148c: 6d 2e 6e 73: 
             0x00001490: 74 61 63 6b: 
             0x00001494: 77 6f 72 64: 
             0x00001498: 73 00 5f 77: 
             0x0000149c: 72 69 74 65: 
             0x000014a0: 5f 69 6e 74: 
             0x000014a4: 65 72 63 65: 
             0x000014a8: 70 74 5f 61: 
             0x000014ac: 73 6d 2e 6d: 
             0x000014b0: 61 78 74 69: 
             0x000014b4: 6d 65 72 73: 
             0x000014b8: 00 5f 77 72: 
             0x000014bc: 69 74 65 5f: 
             0x000014c0: 69 6e 74 65: 
             0x000014c4: 72 63 65 70: 
             0x000014c8: 74 5f 61 73: 
             0x000014cc: 6d 2e 6d 61: 
             0x000014d0: 78 63 68 61: 
             0x000014d4: 6e 65 6e 64: 
             0x000014d8: 73 00 5f 77: 
             0x000014dc: 72 69 74 65: 
             0x000014e0: 5f 69 6e 74: 
             0x000014e4: 65 72 63 65: 
             0x000014e8: 70 74 5f 61: 
             0x000014ec: 73 6d 2e 6d: 
             0x000014f0: 61 78 63 6f: 
             0x000014f4: 72 65 73 00: 
             0x000014f8: 5f 77 72 69: 
             0x000014fc: 74 65 5f 69: 
             0x00001500: 6e 74 65 72: 
             0x00001504: 63 65 70 74: 
             0x00001508: 5f 6c 6f 6f: 
             0x0000150c: 70 00 5f 77: 
             0x00001510: 72 69 74 65: 
             0x00001514: 5f 69 6e 74: 
             0x00001518: 65 72 63 65: 
             0x0000151c: 70 74 5f 65: 
             0x00001520: 6e 64 00 6c: 
             0x00001524: 69 73 74 65: 
             0x00001528: 6e 46 6f 72: 
             0x0000152c: 50 72 69 6e: 
             0x00001530: 74 2e 6e 73: 
             0x00001534: 74 61 63 6b: 
             0x00001538: 77 6f 72 64: 
             0x0000153c: 73 00 6c 69: 
             0x00001540: 73 74 65 6e: 
             0x00001544: 46 6f 72 50: 
             0x00001548: 72 69 6e 74: 
             0x0000154c: 2e 6d 61 78: 
             0x00001550: 74 69 6d 65: 
             0x00001554: 72 73 00 6c: 
             0x00001558: 69 73 74 65: 
             0x0000155c: 6e 46 6f 72: 
             0x00001560: 50 72 69 6e: 
             0x00001564: 74 2e 6d 61: 
             0x00001568: 78 63 68 61: 
             0x0000156c: 6e 65 6e 64: 
             0x00001570: 73 00 6c 69: 
             0x00001574: 73 74 65 6e: 
             0x00001578: 46 6f 72 50: 
             0x0000157c: 72 69 6e 74: 
             0x00001580: 2e 6d 61 78: 
             0x00001584: 63 6f 72 65: 
             0x00001588: 73 00 5f 77: 
             0x0000158c: 72 69 74 65: 
             0x00001590: 5f 69 6e 74: 
             0x00001594: 65 72 63 65: 
             0x00001598: 70 74 5f 68: 
             0x0000159c: 65 61 70 00: 
             0x000015a0: 70 72 69 6e: 
             0x000015a4: 74 4d 61 6e: 
             0x000015a8: 79 00 70 72: 
             0x000015ac: 69 6e 74 4d: 
             0x000015b0: 61 6e 79 2e: 
             0x000015b4: 6e 73 74 61: 
             0x000015b8: 63 6b 77 6f: 
             0x000015bc: 72 64 73 00: 
             0x000015c0: 70 72 69 6e: 
             0x000015c4: 74 4d 61 6e: 
             0x000015c8: 79 2e 6d 61: 
             0x000015cc: 78 74 69 6d: 
             0x000015d0: 65 72 73 00: 
             0x000015d4: 70 72 69 6e: 
             0x000015d8: 74 4d 61 6e: 
             0x000015dc: 79 2e 6d 61: 
             0x000015e0: 78 63 68 61: 
             0x000015e4: 6e 65 6e 64: 
             0x000015e8: 73 00 70 72: 
             0x000015ec: 69 6e 74 4d: 
             0x000015f0: 61 6e 79 2e: 
             0x000015f4: 6d 61 78 63: 
             0x000015f8: 6f 72 65 73: 
             0x000015fc: 00 70 72 69: 
             0x00001600: 6e 74 4d 61: 
             0x00001604: 6e 79 53 65: 
             0x00001608: 6e 64 4c 6f: 
             0x0000160c: 6f 70 00 70: 
             0x00001610: 72 69 6e 74: 
             0x00001614: 4d 61 6e 79: 
             0x00001618: 44 61 74 61: 
             0x0000161c: 53 65 6e 74: 
             0x00001620: 00 70 72 69: 
             0x00001624: 6e 74 4d 61: 
             0x00001628: 6e 79 42 79: 
             0x0000162c: 74 65 73 2e: 
             0x00001630: 6e 73 74 61: 
             0x00001634: 63 6b 77 6f: 
             0x00001638: 72 64 73 00: 
             0x0000163c: 70 72 69 6e: 
             0x00001640: 74 4d 61 6e: 
             0x00001644: 79 42 79 74: 
             0x00001648: 65 73 2e 6d: 
             0x0000164c: 61 78 74 69: 
             0x00001650: 6d 65 72 73: 
             0x00001654: 00 70 72 69: 
             0x00001658: 6e 74 4d 61: 
             0x0000165c: 6e 79 42 79: 
             0x00001660: 74 65 73 2e: 
             0x00001664: 6d 61 78 63: 
             0x00001668: 68 61 6e 65: 
             0x0000166c: 6e 64 73 00: 
             0x00001670: 70 72 69 6e: 
             0x00001674: 74 4d 61 6e: 
             0x00001678: 79 42 79 74: 
             0x0000167c: 65 73 2e 6d: 
             0x00001680: 61 78 63 6f: 
             0x00001684: 72 65 73 00: 
             0x00001688: 6c 69 73 74: 
             0x0000168c: 65 6e 50 72: 
             0x00001690: 69 6e 74 4d: 
             0x00001694: 61 6e 79 2e: 
             0x00001698: 6e 73 74 61: 
             0x0000169c: 63 6b 77 6f: 
             0x000016a0: 72 64 73 00: 
             0x000016a4: 6c 69 73 74: 
             0x000016a8: 65 6e 50 72: 
             0x000016ac: 69 6e 74 4d: 
             0x000016b0: 61 6e 79 2e: 
             0x000016b4: 6d 61 78 74: 
             0x000016b8: 69 6d 65 72: 
             0x000016bc: 73 00 6c 69: 
             0x000016c0: 73 74 65 6e: 
             0x000016c4: 50 72 69 6e: 
             0x000016c8: 74 4d 61 6e: 
             0x000016cc: 79 2e 6d 61: 
             0x000016d0: 78 63 68 61: 
             0x000016d4: 6e 65 6e 64: 
             0x000016d8: 73 00 6c 69: 
             0x000016dc: 73 74 65 6e: 
             0x000016e0: 50 72 69 6e: 
             0x000016e4: 74 4d 61 6e: 
             0x000016e8: 79 2e 6d 61: 
             0x000016ec: 78 63 6f 72: 
             0x000016f0: 65 73 00 2f: 
             0x000016f4: 68 6f 6d 65: 
             0x000016f8: 2f 73 6c 64: 
             0x000016fc: 2d 75 73 65: 
             0x00001700: 72 2f 73 77: 
             0x00001704: 61 6c 6c 6f: 
             0x00001708: 77 5f 74 6f: 
             0x0000170c: 6f 6c 73 2f: 
             0x00001710: 74 6f 6f 6c: 
             0x00001714: 5f 78 6d 70: 
             0x00001718: 31 36 5f 6d: 
             0x0000171c: 61 6e 79 63: 
             0x00001720: 6f 72 65 2f: 
             0x00001724: 74 6f 6f 6c: 
             0x00001728: 73 2f 2e 2e: 
             0x0000172c: 2f 63 6f 64: 
             0x00001730: 65 2f 73 63: 
             0x00001734: 5f 73 77 61: 
             0x00001738: 6c 6c 6f 77: 
             0x0000173c: 5f 63 6f 6d: 
             0x00001740: 6d 75 6e 69: 
             0x00001744: 63 61 74 69: 
             0x00001748: 6f 6e 2f 6d: 
             0x0000174c: 6f 64 75 6c: 
             0x00001750: 65 5f 73 77: 
             0x00001754: 61 6c 6c 6f: 
             0x00001758: 77 5f 63 6f: 
             0x0000175c: 6d 6d 73 2f: 
             0x00001760: 73 72 63 2f: 
             0x00001764: 73 77 61 6c: 
             0x00001768: 6c 6f 77 5f: 
             0x0000176c: 63 6f 6d 6d: 
             0x00001770: 73 5f 63 2e: 
             0x00001774: 63 00 66 72: 
             0x00001778: 65 65 43 68: 
             0x0000177c: 61 6e 65 6e: 
             0x00001780: 64 2e 6c 6f: 
             0x00001784: 63 6e 6f 73: 
             0x00001788: 69 64 65 00: 
             0x0000178c: 66 72 65 65: 
             0x00001790: 43 68 61 6e: 
             0x00001794: 65 6e 64 2e: 
             0x00001798: 6c 6f 63 6e: 
             0x0000179c: 6f 63 68 61: 
             0x000017a0: 6e 64 65 63: 
             0x000017a4: 00 77 72 69: 
             0x000017a8: 74 65 5f 73: 
             0x000017ac: 73 77 69 74: 
             0x000017b0: 63 68 5f 72: 
             0x000017b4: 65 67 5f 63: 
             0x000017b8: 6c 65 61 6e: 
             0x000017bc: 2e 6c 6f 63: 
             0x000017c0: 6e 6f 73 69: 
             0x000017c4: 64 65 00 77: 
             0x000017c8: 72 69 74 65: 
             0x000017cc: 5f 73 73 77: 
             0x000017d0: 69 74 63 68: 
             0x000017d4: 5f 72 65 67: 
             0x000017d8: 5f 63 6c 65: 
             0x000017dc: 61 6e 2e 6c: 
             0x000017e0: 6f 63 6e 6f: 
             0x000017e4: 63 68 61 6e: 
             0x000017e8: 64 65 63 00: 
             0x000017ec: 77 72 69 74: 
             0x000017f0: 65 5f 73 73: 
             0x000017f4: 77 69 74 63: 
             0x000017f8: 68 5f 72 65: 
             0x000017fc: 67 5f 6e 6f: 
             0x00001800: 5f 61 63 6b: 
             0x00001804: 5f 63 6c 65: 
             0x00001808: 61 6e 2e 6c: 
             0x0000180c: 6f 63 6e 6f: 
             0x00001810: 73 69 64 65: 
             0x00001814: 00 77 72 69: 
             0x00001818: 74 65 5f 73: 
             0x0000181c: 73 77 69 74: 
             0x00001820: 63 68 5f 72: 
             0x00001824: 65 67 5f 6e: 
             0x00001828: 6f 5f 61 63: 
             0x0000182c: 6b 5f 63 6c: 
             0x00001830: 65 61 6e 2e: 
             0x00001834: 6c 6f 63 6e: 
             0x00001838: 6f 63 68 61: 
             0x0000183c: 6e 64 65 63: 
             0x00001840: 00 77 72 69: 
             0x00001844: 74 65 5f 73: 
             0x00001848: 73 77 69 74: 
             0x0000184c: 63 68 5f 72: 
             0x00001850: 65 67 5f 6e: 
             0x00001854: 6f 5f 61 63: 
             0x00001858: 6b 5f 63 6c: 
             0x0000185c: 65 61 6e 2e: 
             0x00001860: 6e 73 74 61: 
             0x00001864: 63 6b 77 6f: 
             0x00001868: 72 64 73 00: 
             0x0000186c: 77 72 69 74: 
             0x00001870: 65 5f 73 73: 
             0x00001874: 77 69 74 63: 
             0x00001878: 68 5f 72 65: 
             0x0000187c: 67 5f 6e 6f: 
             0x00001880: 5f 61 63 6b: 
             0x00001884: 2e 6e 73 74: 
             0x00001888: 61 63 6b 77: 
             0x0000188c: 6f 72 64 73: 
             0x00001890: 00 77 72 69: 
             0x00001894: 74 65 5f 73: 
             0x00001898: 73 77 69 74: 
             0x0000189c: 63 68 5f 72: 
             0x000018a0: 65 67 5f 6e: 
             0x000018a4: 6f 5f 61 63: 
             0x000018a8: 6b 5f 63 6c: 
             0x000018ac: 65 61 6e 2e: 
             0x000018b0: 6d 61 78 63: 
             0x000018b4: 6f 72 65 73: 
             0x000018b8: 00 77 72 69: 
             0x000018bc: 74 65 5f 73: 
             0x000018c0: 73 77 69 74: 
             0x000018c4: 63 68 5f 72: 
             0x000018c8: 65 67 5f 6e: 
             0x000018cc: 6f 5f 61 63: 
             0x000018d0: 6b 2e 6d 61: 
             0x000018d4: 78 63 6f 72: 
             0x000018d8: 65 73 00 77: 
             0x000018dc: 72 69 74 65: 
             0x000018e0: 5f 73 73 77: 
             0x000018e4: 69 74 63 68: 
             0x000018e8: 5f 72 65 67: 
             0x000018ec: 5f 6e 6f 5f: 
             0x000018f0: 61 63 6b 5f: 
             0x000018f4: 63 6c 65 61: 
             0x000018f8: 6e 2e 6d 61: 
             0x000018fc: 78 74 69 6d: 
             0x00001900: 65 72 73 00: 
             0x00001904: 77 72 69 74: 
             0x00001908: 65 5f 73 73: 
             0x0000190c: 77 69 74 63: 
             0x00001910: 68 5f 72 65: 
             0x00001914: 67 5f 6e 6f: 
             0x00001918: 5f 61 63 6b: 
             0x0000191c: 2e 6d 61 78: 
             0x00001920: 74 69 6d 65: 
             0x00001924: 72 73 00 77: 
             0x00001928: 72 69 74 65: 
             0x0000192c: 5f 73 73 77: 
             0x00001930: 69 74 63 68: 
             0x00001934: 5f 72 65 67: 
             0x00001938: 5f 6e 6f 5f: 
             0x0000193c: 61 63 6b 5f: 
             0x00001940: 63 6c 65 61: 
             0x00001944: 6e 2e 6d 61: 
             0x00001948: 78 63 68 61: 
             0x0000194c: 6e 65 6e 64: 
             0x00001950: 73 00 77 72: 
             0x00001954: 69 74 65 5f: 
             0x00001958: 73 73 77 69: 
             0x0000195c: 74 63 68 5f: 
             0x00001960: 72 65 67 5f: 
             0x00001964: 6e 6f 5f 61: 
             0x00001968: 63 6b 2e 6d: 
             0x0000196c: 61 78 63 68: 
             0x00001970: 61 6e 65 6e: 
             0x00001974: 64 73 00 66: 
             0x00001978: 72 65 65 43: 
             0x0000197c: 68 61 6e 65: 
             0x00001980: 6e 64 2e 6e: 
             0x00001984: 73 74 61 63: 
             0x00001988: 6b 77 6f 72: 
             0x0000198c: 64 73 00 66: 
             0x00001990: 72 65 65 43: 
             0x00001994: 68 61 6e 65: 
             0x00001998: 6e 64 2e 6d: 
             0x0000199c: 61 78 63 6f: 
             0x000019a0: 72 65 73 00: 
             0x000019a4: 66 72 65 65: 
             0x000019a8: 43 68 61 6e: 
             0x000019ac: 65 6e 64 2e: 
             0x000019b0: 6d 61 78 74: 
             0x000019b4: 69 6d 65 72: 
             0x000019b8: 73 00 66 72: 
             0x000019bc: 65 65 43 68: 
             0x000019c0: 61 6e 65 6e: 
             0x000019c4: 64 2e 6d 61: 
             0x000019c8: 78 63 68 61: 
             0x000019cc: 6e 65 6e 64: 
             0x000019d0: 73 00 77 72: 
             0x000019d4: 69 74 65 5f: 
             0x000019d8: 73 73 77 69: 
             0x000019dc: 74 63 68 5f: 
             0x000019e0: 72 65 67 5f: 
             0x000019e4: 63 6c 65 61: 
             0x000019e8: 6e 2e 6e 73: 
             0x000019ec: 74 61 63 6b: 
             0x000019f0: 77 6f 72 64: 
             0x000019f4: 73 00 77 72: 
             0x000019f8: 69 74 65 5f: 
             0x000019fc: 73 73 77 69: 
             0x00001a00: 74 63 68 5f: 
             0x00001a04: 72 65 67 2e: 
             0x00001a08: 6e 73 74 61: 
             0x00001a0c: 63 6b 77 6f: 
             0x00001a10: 72 64 73 00: 
             0x00001a14: 77 72 69 74: 
             0x00001a18: 65 5f 73 73: 
             0x00001a1c: 77 69 74 63: 
             0x00001a20: 68 5f 72 65: 
             0x00001a24: 67 5f 63 6c: 
             0x00001a28: 65 61 6e 2e: 
             0x00001a2c: 6d 61 78 63: 
             0x00001a30: 6f 72 65 73: 
             0x00001a34: 00 77 72 69: 
             0x00001a38: 74 65 5f 73: 
             0x00001a3c: 73 77 69 74: 
             0x00001a40: 63 68 5f 72: 
             0x00001a44: 65 67 2e 6d: 
             0x00001a48: 61 78 63 6f: 
             0x00001a4c: 72 65 73 00: 
             0x00001a50: 77 72 69 74: 
             0x00001a54: 65 5f 73 73: 
             0x00001a58: 77 69 74 63: 
             0x00001a5c: 68 5f 72 65: 
             0x00001a60: 67 5f 63 6c: 
             0x00001a64: 65 61 6e 2e: 
             0x00001a68: 6d 61 78 74: 
             0x00001a6c: 69 6d 65 72: 
             0x00001a70: 73 00 77 72: 
             0x00001a74: 69 74 65 5f: 
             0x00001a78: 73 73 77 69: 
             0x00001a7c: 74 63 68 5f: 
             0x00001a80: 72 65 67 2e: 
             0x00001a84: 6d 61 78 74: 
             0x00001a88: 69 6d 65 72: 
             0x00001a8c: 73 00 77 72: 
             0x00001a90: 69 74 65 5f: 
             0x00001a94: 73 73 77 69: 
             0x00001a98: 74 63 68 5f: 
             0x00001a9c: 72 65 67 5f: 
             0x00001aa0: 63 6c 65 61: 
             0x00001aa4: 6e 2e 6d 61: 
             0x00001aa8: 78 63 68 61: 
             0x00001aac: 6e 65 6e 64: 
             0x00001ab0: 73 00 77 72: 
             0x00001ab4: 69 74 65 5f: 
             0x00001ab8: 73 73 77 69: 
             0x00001abc: 74 63 68 5f: 
             0x00001ac0: 72 65 67 2e: 
             0x00001ac4: 6d 61 78 63: 
             0x00001ac8: 68 61 6e 65: 
             0x00001acc: 6e 64 73 00: 
             0x00001ad0: 53 77 61 6c: 
             0x00001ad4: 6c 6f 77 2d: 
             0x00001ad8: 77 61 69 74: 
             0x00001adc: 2e 78 63 00: 
             0x00001ae0: 64 65 6c 61: 
             0x00001ae4: 79 5f 65 78: 
             0x00001ae8: 65 63 75 74: 
             0x00001aec: 69 6f 6e 2e: 
             0x00001af0: 6c 6f 63 6e: 
             0x00001af4: 6f 63 68 61: 
             0x00001af8: 6e 64 65 63: 
             0x00001afc: 00 64 65 6c: 
             0x00001b00: 61 79 5f 65: 
             0x00001b04: 78 65 63 75: 
             0x00001b08: 74 69 6f 6e: 
             0x00001b0c: 00 64 65 6c: 
             0x00001b10: 61 79 5f 65: 
             0x00001b14: 78 65 63 75: 
             0x00001b18: 74 69 6f 6e: 
             0x00001b1c: 2e 6e 73 74: 
             0x00001b20: 61 63 6b 77: 
             0x00001b24: 6f 72 64 73: 
             0x00001b28: 00 64 65 6c: 
             0x00001b2c: 61 79 5f 65: 
             0x00001b30: 78 65 63 75: 
             0x00001b34: 74 69 6f 6e: 
             0x00001b38: 2e 6d 61 78: 
             0x00001b3c: 63 6f 72 65: 
             0x00001b40: 73 00 64 65: 
             0x00001b44: 6c 61 79 5f: 
             0x00001b48: 65 78 65 63: 
             0x00001b4c: 75 74 69 6f: 
             0x00001b50: 6e 2e 6d 61: 
             0x00001b54: 78 74 69 6d: 
             0x00001b58: 65 72 73 00: 
             0x00001b5c: 64 65 6c 61: 
             0x00001b60: 79 5f 65 78: 
             0x00001b64: 65 63 75 74: 
             0x00001b68: 69 6f 6e 2e: 
             0x00001b6c: 6d 61 78 63: 
             0x00001b70: 68 61 6e 65: 
             0x00001b74: 6e 64 73 00: 
             0x00001b78: 53 77 61 6c: 
             0x00001b7c: 6c 6f 77 2d: 
             0x00001b80: 68 65 6c 70: 
             0x00001b84: 65 72 73 2e: 
             0x00001b88: 78 63 00 6e: 
             0x00001b8c: 6f 64 65 49: 
             0x00001b90: 6e 64 65 78: 
             0x00001b94: 54 6f 49 64: 
             0x00001b98: 00 67 65 74: 
             0x00001b9c: 53 70 65 63: 
             0x00001ba0: 69 66 69 63: 
             0x00001ba4: 4c 6f 63 61: 
             0x00001ba8: 6c 43 68 61: 
             0x00001bac: 6e 6e 65 6c: 
             0x00001bb0: 00 72 6f 77: 
             0x00001bb4: 43 6f 6c 54: 
             0x00001bb8: 6f 4e 6f 64: 
             0x00001bbc: 65 49 64 2e: 
             0x00001bc0: 6c 6f 63 6e: 
             0x00001bc4: 6f 73 69 64: 
             0x00001bc8: 65 00 6e 6f: 
             0x00001bcc: 64 65 49 6e: 
             0x00001bd0: 64 65 78 54: 
             0x00001bd4: 6f 49 64 2e: 
             0x00001bd8: 6c 6f 63 6e: 
             0x00001bdc: 6f 73 69 64: 
             0x00001be0: 65 00 62 75: 
             0x00001be4: 69 6c 64 43: 
             0x00001be8: 68 61 6e 49: 
             0x00001bec: 64 2e 6c 6f: 
             0x00001bf0: 63 6e 6f 73: 
             0x00001bf4: 69 64 65 00: 
             0x00001bf8: 67 65 74 4e: 
             0x00001bfc: 65 77 43 68: 
             0x00001c00: 61 6e 6e 65: 
             0x00001c04: 6c 2e 6c 6f: 
             0x00001c08: 63 6e 6f 73: 
             0x00001c0c: 69 64 65 00: 
             0x00001c10: 67 65 74 4e: 
             0x00001c14: 65 77 43 68: 
             0x00001c18: 61 6e 6e 65: 
             0x00001c1c: 6c 00 63 6f: 
             0x00001c20: 6e 6e 65 63: 
             0x00001c24: 74 43 68 61: 
             0x00001c28: 6e 6e 65 6c: 
             0x00001c2c: 2e 6c 6f 63: 
             0x00001c30: 6e 6f 73 69: 
             0x00001c34: 64 65 00 63: 
             0x00001c38: 6f 6e 6e 65: 
             0x00001c3c: 63 74 43 68: 
             0x00001c40: 61 6e 6e 65: 
             0x00001c44: 6c 00 63 68: 
             0x00001c48: 61 6e 6e 65: 
             0x00001c4c: 6c 4c 69 73: 
             0x00001c50: 74 65 6e 2e: 
             0x00001c54: 6c 6f 63 6e: 
             0x00001c58: 6f 73 69 64: 
             0x00001c5c: 65 00 63 68: 
             0x00001c60: 61 6e 6e 65: 
             0x00001c64: 6c 4c 69 73: 
             0x00001c68: 74 65 6e 00: 
             0x00001c6c: 63 68 61 6e: 
             0x00001c70: 6e 65 6c 53: 
             0x00001c74: 65 6e 64 57: 
             0x00001c78: 6f 72 64 2e: 
             0x00001c7c: 6c 6f 63 6e: 
             0x00001c80: 6f 73 69 64: 
             0x00001c84: 65 00 63 68: 
             0x00001c88: 61 6e 6e 65: 
             0x00001c8c: 6c 52 65 63: 
             0x00001c90: 65 69 76 65: 
             0x00001c94: 57 6f 72 64: 
             0x00001c98: 2e 6c 6f 63: 
             0x00001c9c: 6e 6f 73 69: 
             0x00001ca0: 64 65 00 67: 
             0x00001ca4: 65 74 53 70: 
             0x00001ca8: 65 63 69 66: 
             0x00001cac: 69 63 4c 6f: 
             0x00001cb0: 63 61 6c 43: 
             0x00001cb4: 68 61 6e 6e: 
             0x00001cb8: 65 6c 2e 6c: 
             0x00001cbc: 6f 63 6e 6f: 
             0x00001cc0: 73 69 64 65: 
             0x00001cc4: 00 72 6f 77: 
             0x00001cc8: 43 6f 6c 54: 
             0x00001ccc: 6f 4e 6f 64: 
             0x00001cd0: 65 49 64 2e: 
             0x00001cd4: 6c 6f 63 6e: 
             0x00001cd8: 6f 63 68 61: 
             0x00001cdc: 6e 64 65 63: 
             0x00001ce0: 00 6e 6f 64: 
             0x00001ce4: 65 49 6e 64: 
             0x00001ce8: 65 78 54 6f: 
             0x00001cec: 49 64 2e 6c: 
             0x00001cf0: 6f 63 6e 6f: 
             0x00001cf4: 63 68 61 6e: 
             0x00001cf8: 64 65 63 00: 
             0x00001cfc: 62 75 69 6c: 
             0x00001d00: 64 43 68 61: 
             0x00001d04: 6e 49 64 2e: 
             0x00001d08: 6c 6f 63 6e: 
             0x00001d0c: 6f 63 68 61: 
             0x00001d10: 6e 64 65 63: 
             0x00001d14: 00 67 65 74: 
             0x00001d18: 4e 65 77 43: 
             0x00001d1c: 68 61 6e 6e: 
             0x00001d20: 65 6c 2e 6c: 
             0x00001d24: 6f 63 6e 6f: 
             0x00001d28: 63 68 61 6e: 
             0x00001d2c: 64 65 63 00: 
             0x00001d30: 63 6f 6e 6e: 
             0x00001d34: 65 63 74 43: 
             0x00001d38: 68 61 6e 65: 
             0x00001d3c: 6e 64 2e 6c: 
             0x00001d40: 6f 63 6e 6f: 
             0x00001d44: 63 68 61 6e: 
             0x00001d48: 64 65 63 00: 
             0x00001d4c: 63 6f 6e 6e: 
             0x00001d50: 65 63 74 43: 
             0x00001d54: 68 61 6e 6e: 
             0x00001d58: 65 6c 2e 6c: 
             0x00001d5c: 6f 63 6e 6f: 
             0x00001d60: 63 68 61 6e: 
             0x00001d64: 64 65 63 00: 
             0x00001d68: 66 72 65 65: 
             0x00001d6c: 43 68 61 6e: 
             0x00001d70: 65 6e 64 5f: 
             0x00001d74: 73 6a 68 2e: 
             0x00001d78: 6c 6f 63 6e: 
             0x00001d7c: 6f 63 68 61: 
             0x00001d80: 6e 64 65 63: 
             0x00001d84: 00 63 68 61: 
             0x00001d88: 6e 65 6e 64: 
             0x00001d8c: 4c 69 73 74: 
             0x00001d90: 65 6e 2e 6c: 
             0x00001d94: 6f 63 6e 6f: 
             0x00001d98: 63 68 61 6e: 
             0x00001d9c: 64 65 63 00: 
             0x00001da0: 63 68 61 6e: 
             0x00001da4: 6e 65 6c 4c: 
             0x00001da8: 69 73 74 65: 
             0x00001dac: 6e 2e 6c 6f: 
             0x00001db0: 63 6e 6f 63: 
             0x00001db4: 68 61 6e 64: 
             0x00001db8: 65 63 00 63: 
             0x00001dbc: 68 61 6e 6e: 
             0x00001dc0: 65 6c 53 65: 
             0x00001dc4: 6e 64 57 6f: 
             0x00001dc8: 72 64 2e 6c: 
             0x00001dcc: 6f 63 6e 6f: 
             0x00001dd0: 63 68 61 6e: 
             0x00001dd4: 64 65 63 00: 
             0x00001dd8: 63 68 61 6e: 
             0x00001ddc: 6e 65 6c 52: 
             0x00001de0: 65 63 65 69: 
             0x00001de4: 76 65 57 6f: 
             0x00001de8: 72 64 2e 6c: 
             0x00001dec: 6f 63 6e 6f: 
             0x00001df0: 63 68 61 6e: 
             0x00001df4: 64 65 63 00: 
             0x00001df8: 67 65 74 53: 
             0x00001dfc: 70 65 63 69: 
             0x00001e00: 66 69 63 4c: 
             0x00001e04: 6f 63 61 6c: 
             0x00001e08: 43 68 61 6e: 
             0x00001e0c: 6e 65 6c 2e: 
             0x00001e10: 6c 6f 63 6e: 
             0x00001e14: 6f 63 68 61: 
             0x00001e18: 6e 64 65 63: 
             0x00001e1c: 00 63 6f 72: 
             0x00001e20: 65 53 65 6e: 
             0x00001e24: 64 57 6f 72: 
             0x00001e28: 64 73 2e 6c: 
             0x00001e2c: 6f 63 6e 6f: 
             0x00001e30: 63 68 61 6e: 
             0x00001e34: 64 65 63 00: 
             0x00001e38: 63 6f 72 65: 
             0x00001e3c: 52 65 63 65: 
             0x00001e40: 69 76 65 57: 
             0x00001e44: 6f 72 64 73: 
             0x00001e48: 2e 6c 6f 63: 
             0x00001e4c: 6e 6f 63 68: 
             0x00001e50: 61 6e 64 65: 
             0x00001e54: 63 00 63 6f: 
             0x00001e58: 72 65 53 65: 
             0x00001e5c: 6e 64 42 79: 
             0x00001e60: 74 65 73 2e: 
             0x00001e64: 6c 6f 63 6e: 
             0x00001e68: 6f 63 68 61: 
             0x00001e6c: 6e 64 65 63: 
             0x00001e70: 00 53 77 50: 
             0x00001e74: 72 69 6e 74: 
             0x00001e78: 55 6e 73 69: 
             0x00001e7c: 67 6e 65 64: 
             0x00001e80: 2e 6c 6f 63: 
             0x00001e84: 6e 6f 63 68: 
             0x00001e88: 61 6e 64 65: 
             0x00001e8c: 63 00 73 74: 
             0x00001e90: 72 69 6e 67: 
             0x00001e94: 54 6f 43 68: 
             0x00001e98: 61 72 73 2e: 
             0x00001e9c: 6c 6f 63 6e: 
             0x00001ea0: 6f 63 68 61: 
             0x00001ea4: 6e 64 65 63: 
             0x00001ea8: 00 53 77 50: 
             0x00001eac: 72 69 6e 74: 
             0x00001eb0: 53 74 72 69: 
             0x00001eb4: 6e 67 2e 6c: 
             0x00001eb8: 6f 63 6e 6f: 
             0x00001ebc: 63 68 61 6e: 
             0x00001ec0: 64 65 63 00: 
             0x00001ec4: 6e 6f 64 65: 
             0x00001ec8: 49 6e 64 65: 
             0x00001ecc: 78 54 6f 49: 
             0x00001ed0: 64 2e 6e 73: 
             0x00001ed4: 74 61 63 6b: 
             0x00001ed8: 77 6f 72 64: 
             0x00001edc: 73 00 6e 6f: 
             0x00001ee0: 64 65 49 6e: 
             0x00001ee4: 64 65 78 54: 
             0x00001ee8: 6f 49 64 2e: 
             0x00001eec: 6d 61 78 63: 
             0x00001ef0: 6f 72 65 73: 
             0x00001ef4: 00 6e 6f 64: 
             0x00001ef8: 65 49 6e 64: 
             0x00001efc: 65 78 54 6f: 
             0x00001f00: 49 64 2e 6d: 
             0x00001f04: 61 78 74 69: 
             0x00001f08: 6d 65 72 73: 
             0x00001f0c: 00 6e 6f 64: 
             0x00001f10: 65 49 6e 64: 
             0x00001f14: 65 78 54 6f: 
             0x00001f18: 49 64 2e 6d: 
             0x00001f1c: 61 78 63 68: 
             0x00001f20: 61 6e 65 6e: 
             0x00001f24: 64 73 00 62: 
             0x00001f28: 75 69 6c 64: 
             0x00001f2c: 43 68 61 6e: 
             0x00001f30: 49 64 2e 6e: 
             0x00001f34: 73 74 61 63: 
             0x00001f38: 6b 77 6f 72: 
             0x00001f3c: 64 73 00 62: 
             0x00001f40: 75 69 6c 64: 
             0x00001f44: 43 68 61 6e: 
             0x00001f48: 49 64 2e 6d: 
             0x00001f4c: 61 78 63 6f: 
             0x00001f50: 72 65 73 00: 
             0x00001f54: 62 75 69 6c: 
             0x00001f58: 64 43 68 61: 
             0x00001f5c: 6e 49 64 2e: 
             0x00001f60: 6d 61 78 74: 
             0x00001f64: 69 6d 65 72: 
             0x00001f68: 73 00 62 75: 
             0x00001f6c: 69 6c 64 43: 
             0x00001f70: 68 61 6e 49: 
             0x00001f74: 64 2e 6d 61: 
             0x00001f78: 78 63 68 61: 
             0x00001f7c: 6e 65 6e 64: 
             0x00001f80: 73 00 67 65: 
             0x00001f84: 74 4e 65 77: 
             0x00001f88: 43 68 61 6e: 
             0x00001f8c: 6e 65 6c 2e: 
             0x00001f90: 6e 73 74 61: 
             0x00001f94: 63 6b 77 6f: 
             0x00001f98: 72 64 73 00: 
             0x00001f9c: 67 65 74 4e: 
             0x00001fa0: 65 77 43 68: 
             0x00001fa4: 61 6e 6e 65: 
             0x00001fa8: 6c 2e 6d 61: 
             0x00001fac: 78 63 6f 72: 
             0x00001fb0: 65 73 00 67: 
             0x00001fb4: 65 74 4e 65: 
             0x00001fb8: 77 43 68 61: 
             0x00001fbc: 6e 6e 65 6c: 
             0x00001fc0: 2e 6d 61 78: 
             0x00001fc4: 74 69 6d 65: 
             0x00001fc8: 72 73 00 67: 
             0x00001fcc: 65 74 4e 65: 
             0x00001fd0: 77 43 68 61: 
             0x00001fd4: 6e 6e 65 6c: 
             0x00001fd8: 2e 6d 61 78: 
             0x00001fdc: 63 68 61 6e: 
             0x00001fe0: 65 6e 64 73: 
             0x00001fe4: 00 63 6f 6e: 
             0x00001fe8: 6e 65 63 74: 
             0x00001fec: 43 68 61 6e: 
             0x00001ff0: 6e 65 6c 2e: 
             0x00001ff4: 6e 73 74 61: 
             0x00001ff8: 63 6b 77 6f: 
             0x00001ffc: 72 64 73 00: 
             0x00002000: 63 6f 6e 6e: 
             0x00002004: 65 63 74 43: 
             0x00002008: 68 61 6e 6e: 
             0x0000200c: 65 6c 2e 6d: 
             0x00002010: 61 78 63 6f: 
             0x00002014: 72 65 73 00: 
             0x00002018: 63 6f 6e 6e: 
             0x0000201c: 65 63 74 43: 
             0x00002020: 68 61 6e 6e: 
             0x00002024: 65 6c 2e 6d: 
             0x00002028: 61 78 74 69: 
             0x0000202c: 6d 65 72 73: 
             0x00002030: 00 63 6f 6e: 
             0x00002034: 6e 65 63 74: 
             0x00002038: 43 68 61 6e: 
             0x0000203c: 6e 65 6c 2e: 
             0x00002040: 6d 61 78 63: 
             0x00002044: 68 61 6e 65: 
             0x00002048: 6e 64 73 00: 
             0x0000204c: 67 65 74 53: 
             0x00002050: 70 65 63 69: 
             0x00002054: 66 69 63 4c: 
             0x00002058: 6f 63 61 6c: 
             0x0000205c: 43 68 61 6e: 
             0x00002060: 6e 65 6c 2e: 
             0x00002064: 6e 73 74 61: 
             0x00002068: 63 6b 77 6f: 
             0x0000206c: 72 64 73 00: 
             0x00002070: 67 65 74 53: 
             0x00002074: 70 65 63 69: 
             0x00002078: 66 69 63 4c: 
             0x0000207c: 6f 63 61 6c: 
             0x00002080: 43 68 61 6e: 
             0x00002084: 6e 65 6c 2e: 
             0x00002088: 6d 61 78 63: 
             0x0000208c: 6f 72 65 73: 
             0x00002090: 00 67 65 74: 
             0x00002094: 53 70 65 63: 
             0x00002098: 69 66 69 63: 
             0x0000209c: 4c 6f 63 61: 
             0x000020a0: 6c 43 68 61: 
             0x000020a4: 6e 6e 65 6c: 
             0x000020a8: 2e 6d 61 78: 
             0x000020ac: 74 69 6d 65: 
             0x000020b0: 72 73 00 67: 
             0x000020b4: 65 74 53 70: 
             0x000020b8: 65 63 69 66: 
             0x000020bc: 69 63 4c 6f: 
             0x000020c0: 63 61 6c 43: 
             0x000020c4: 68 61 6e 6e: 
             0x000020c8: 65 6c 2e 6d: 
             0x000020cc: 61 78 63 68: 
             0x000020d0: 61 6e 65 6e: 
             0x000020d4: 64 73 00 63: 
             0x000020d8: 68 61 6e 6e: 
             0x000020dc: 65 6c 4c 69: 
             0x000020e0: 73 74 65 6e: 
             0x000020e4: 2e 6e 73 74: 
             0x000020e8: 61 63 6b 77: 
             0x000020ec: 6f 72 64 73: 
             0x000020f0: 00 63 68 61: 
             0x000020f4: 6e 6e 65 6c: 
             0x000020f8: 4c 69 73 74: 
             0x000020fc: 65 6e 2e 6d: 
             0x00002100: 61 78 63 6f: 
             0x00002104: 72 65 73 00: 
             0x00002108: 63 68 61 6e: 
             0x0000210c: 6e 65 6c 4c: 
             0x00002110: 69 73 74 65: 
             0x00002114: 6e 2e 6d 61: 
             0x00002118: 78 74 69 6d: 
             0x0000211c: 65 72 73 00: 
             0x00002120: 63 68 61 6e: 
             0x00002124: 6e 65 6c 4c: 
             0x00002128: 69 73 74 65: 
             0x0000212c: 6e 2e 6d 61: 
             0x00002130: 78 63 68 61: 
             0x00002134: 6e 65 6e 64: 
             0x00002138: 73 00 63 68: 
             0x0000213c: 61 6e 6e 65: 
             0x00002140: 6c 53 65 6e: 
             0x00002144: 64 57 6f 72: 
             0x00002148: 64 2e 6e 73: 
             0x0000214c: 74 61 63 6b: 
             0x00002150: 77 6f 72 64: 
             0x00002154: 73 00 63 68: 
             0x00002158: 61 6e 6e 65: 
             0x0000215c: 6c 53 65 6e: 
             0x00002160: 64 57 6f 72: 
             0x00002164: 64 2e 6d 61: 
             0x00002168: 78 63 6f 72: 
             0x0000216c: 65 73 00 63: 
             0x00002170: 68 61 6e 6e: 
             0x00002174: 65 6c 53 65: 
             0x00002178: 6e 64 57 6f: 
             0x0000217c: 72 64 2e 6d: 
             0x00002180: 61 78 74 69: 
             0x00002184: 6d 65 72 73: 
             0x00002188: 00 63 68 61: 
             0x0000218c: 6e 6e 65 6c: 
             0x00002190: 53 65 6e 64: 
             0x00002194: 57 6f 72 64: 
             0x00002198: 2e 6d 61 78: 
             0x0000219c: 63 68 61 6e: 
             0x000021a0: 65 6e 64 73: 
             0x000021a4: 00 63 68 61: 
             0x000021a8: 6e 6e 65 6c: 
             0x000021ac: 52 65 63 65: 
             0x000021b0: 69 76 65 57: 
             0x000021b4: 6f 72 64 2e: 
             0x000021b8: 6e 73 74 61: 
             0x000021bc: 63 6b 77 6f: 
             0x000021c0: 72 64 73 00: 
             0x000021c4: 63 68 61 6e: 
             0x000021c8: 6e 65 6c 52: 
             0x000021cc: 65 63 65 69: 
             0x000021d0: 76 65 57 6f: 
             0x000021d4: 72 64 2e 6d: 
             0x000021d8: 61 78 63 6f: 
             0x000021dc: 72 65 73 00: 
             0x000021e0: 63 68 61 6e: 
             0x000021e4: 6e 65 6c 52: 
             0x000021e8: 65 63 65 69: 
             0x000021ec: 76 65 57 6f: 
             0x000021f0: 72 64 2e 6d: 
             0x000021f4: 61 78 74 69: 
             0x000021f8: 6d 65 72 73: 
             0x000021fc: 00 63 68 61: 
             0x00002200: 6e 6e 65 6c: 
             0x00002204: 52 65 63 65: 
             0x00002208: 69 76 65 57: 
             0x0000220c: 6f 72 64 2e: 
             0x00002210: 6d 61 78 63: 
             0x00002214: 68 61 6e 65: 
             0x00002218: 6e 64 73 00: 
             0x0000221c: 72 6f 77 43: 
             0x00002220: 6f 6c 54 6f: 
             0x00002224: 4e 6f 64 65: 
             0x00002228: 49 64 2e 6e: 
             0x0000222c: 73 74 61 63: 
             0x00002230: 6b 77 6f 72: 
             0x00002234: 64 73 00 72: 
             0x00002238: 6f 77 43 6f: 
             0x0000223c: 6c 54 6f 4e: 
             0x00002240: 6f 64 65 49: 
             0x00002244: 64 2e 6d 61: 
             0x00002248: 78 63 6f 72: 
             0x0000224c: 65 73 00 72: 
             0x00002250: 6f 77 43 6f: 
             0x00002254: 6c 54 6f 4e: 
             0x00002258: 6f 64 65 49: 
             0x0000225c: 64 2e 6d 61: 
             0x00002260: 78 74 69 6d: 
             0x00002264: 65 72 73 00: 
             0x00002268: 72 6f 77 43: 
             0x0000226c: 6f 6c 54 6f: 
             0x00002270: 4e 6f 64 65: 
             0x00002274: 49 64 2e 6d: 
             0x00002278: 61 78 63 68: 
             0x0000227c: 61 6e 65 6e: 
             0x00002280: 64 73 00 63: 
             0x00002284: 6f 6e 6e 65: 
             0x00002288: 63 74 43 68: 
             0x0000228c: 61 6e 65 6e: 
             0x00002290: 64 2e 6e 73: 
             0x00002294: 74 61 63 6b: 
             0x00002298: 77 6f 72 64: 
             0x0000229c: 73 00 63 6f: 
             0x000022a0: 6e 6e 65 63: 
             0x000022a4: 74 43 68 61: 
             0x000022a8: 6e 65 6e 64: 
             0x000022ac: 2e 6d 61 78: 
             0x000022b0: 63 6f 72 65: 
             0x000022b4: 73 00 63 6f: 
             0x000022b8: 6e 6e 65 63: 
             0x000022bc: 74 43 68 61: 
             0x000022c0: 6e 65 6e 64: 
             0x000022c4: 2e 6d 61 78: 
             0x000022c8: 74 69 6d 65: 
             0x000022cc: 72 73 00 63: 
             0x000022d0: 6f 6e 6e 65: 
             0x000022d4: 63 74 43 68: 
             0x000022d8: 61 6e 65 6e: 
             0x000022dc: 64 2e 6d 61: 
             0x000022e0: 78 63 68 61: 
             0x000022e4: 6e 65 6e 64: 
             0x000022e8: 73 00 66 72: 
             0x000022ec: 65 65 43 68: 
             0x000022f0: 61 6e 65 6e: 
             0x000022f4: 64 5f 73 6a: 
             0x000022f8: 68 2e 6e 73: 
             0x000022fc: 74 61 63 6b: 
             0x00002300: 77 6f 72 64: 
             0x00002304: 73 00 66 72: 
             0x00002308: 65 65 43 68: 
             0x0000230c: 61 6e 65 6e: 
             0x00002310: 64 5f 73 6a: 
             0x00002314: 68 2e 6d 61: 
             0x00002318: 78 63 6f 72: 
             0x0000231c: 65 73 00 66: 
             0x00002320: 72 65 65 43: 
             0x00002324: 68 61 6e 65: 
             0x00002328: 6e 64 5f 73: 
             0x0000232c: 6a 68 2e 6d: 
             0x00002330: 61 78 74 69: 
             0x00002334: 6d 65 72 73: 
             0x00002338: 00 66 72 65: 
             0x0000233c: 65 43 68 61: 
             0x00002340: 6e 65 6e 64: 
             0x00002344: 5f 73 6a 68: 
             0x00002348: 2e 6d 61 78: 
             0x0000234c: 63 68 61 6e: 
             0x00002350: 65 6e 64 73: 
             0x00002354: 00 63 68 61: 
             0x00002358: 6e 65 6e 64: 
             0x0000235c: 4c 69 73 74: 
             0x00002360: 65 6e 2e 6e: 
             0x00002364: 73 74 61 63: 
             0x00002368: 6b 77 6f 72: 
             0x0000236c: 64 73 00 63: 
             0x00002370: 68 61 6e 65: 
             0x00002374: 6e 64 4c 69: 
             0x00002378: 73 74 65 6e: 
             0x0000237c: 2e 6d 61 78: 
             0x00002380: 63 6f 72 65: 
             0x00002384: 73 00 63 68: 
             0x00002388: 61 6e 65 6e: 
             0x0000238c: 64 4c 69 73: 
             0x00002390: 74 65 6e 2e: 
             0x00002394: 6d 61 78 74: 
             0x00002398: 69 6d 65 72: 
             0x0000239c: 73 00 63 68: 
             0x000023a0: 61 6e 65 6e: 
             0x000023a4: 64 4c 69 73: 
             0x000023a8: 74 65 6e 2e: 
             0x000023ac: 6d 61 78 63: 
             0x000023b0: 68 61 6e 65: 
             0x000023b4: 6e 64 73 00: 
             0x000023b8: 63 6f 72 65: 
             0x000023bc: 53 65 6e 64: 
             0x000023c0: 57 6f 72 64: 
             0x000023c4: 73 2e 6e 73: 
             0x000023c8: 74 61 63 6b: 
             0x000023cc: 77 6f 72 64: 
             0x000023d0: 73 00 63 6f: 
             0x000023d4: 72 65 53 65: 
             0x000023d8: 6e 64 57 6f: 
             0x000023dc: 72 64 73 2e: 
             0x000023e0: 6d 61 78 63: 
             0x000023e4: 6f 72 65 73: 
             0x000023e8: 00 63 6f 72: 
             0x000023ec: 65 53 65 6e: 
             0x000023f0: 64 57 6f 72: 
             0x000023f4: 64 73 2e 6d: 
             0x000023f8: 61 78 74 69: 
             0x000023fc: 6d 65 72 73: 
             0x00002400: 00 63 6f 72: 
             0x00002404: 65 53 65 6e: 
             0x00002408: 64 57 6f 72: 
             0x0000240c: 64 73 2e 6d: 
             0x00002410: 61 78 63 68: 
             0x00002414: 61 6e 65 6e: 
             0x00002418: 64 73 00 63: 
             0x0000241c: 6f 72 65 52: 
             0x00002420: 65 63 65 69: 
             0x00002424: 76 65 57 6f: 
             0x00002428: 72 64 73 2e: 
             0x0000242c: 6e 73 74 61: 
             0x00002430: 63 6b 77 6f: 
             0x00002434: 72 64 73 00: 
             0x00002438: 63 6f 72 65: 
             0x0000243c: 52 65 63 65: 
             0x00002440: 69 76 65 57: 
             0x00002444: 6f 72 64 73: 
             0x00002448: 2e 6d 61 78: 
             0x0000244c: 63 6f 72 65: 
             0x00002450: 73 00 63 6f: 
             0x00002454: 72 65 52 65: 
             0x00002458: 63 65 69 76: 
             0x0000245c: 65 57 6f 72: 
             0x00002460: 64 73 2e 6d: 
             0x00002464: 61 78 74 69: 
             0x00002468: 6d 65 72 73: 
             0x0000246c: 00 63 6f 72: 
             0x00002470: 65 52 65 63: 
             0x00002474: 65 69 76 65: 
             0x00002478: 57 6f 72 64: 
             0x0000247c: 73 2e 6d 61: 
             0x00002480: 78 63 68 61: 
             0x00002484: 6e 65 6e 64: 
             0x00002488: 73 00 73 74: 
             0x0000248c: 61 72 74 54: 
             0x00002490: 72 61 6e 73: 
             0x00002494: 61 63 74 69: 
             0x00002498: 6f 6e 53 65: 
             0x0000249c: 72 76 65 72: 
             0x000024a0: 2e 6d 61 78: 
             0x000024a4: 63 68 61 6e: 
             0x000024a8: 65 6e 64 73: 
             0x000024ac: 00 63 6f 72: 
             0x000024b0: 65 53 65 6e: 
             0x000024b4: 64 42 79 74: 
             0x000024b8: 65 73 2e 6e: 
             0x000024bc: 73 74 61 63: 
             0x000024c0: 6b 77 6f 72: 
             0x000024c4: 64 73 00 63: 
             0x000024c8: 6f 72 65 53: 
             0x000024cc: 65 6e 64 42: 
             0x000024d0: 79 74 65 73: 
             0x000024d4: 2e 6d 61 78: 
             0x000024d8: 63 6f 72 65: 
             0x000024dc: 73 00 63 6f: 
             0x000024e0: 72 65 53 65: 
             0x000024e4: 6e 64 42 79: 
             0x000024e8: 74 65 73 2e: 
             0x000024ec: 6d 61 78 74: 
             0x000024f0: 69 6d 65 72: 
             0x000024f4: 73 00 63 6f: 
             0x000024f8: 72 65 53 65: 
             0x000024fc: 6e 64 42 79: 
             0x00002500: 74 65 73 2e: 
             0x00002504: 6d 61 78 63: 
             0x00002508: 68 61 6e 65: 
             0x0000250c: 6e 64 73 00: 
             0x00002510: 53 77 50 72: 
             0x00002514: 69 6e 74 55: 
             0x00002518: 6e 73 69 67: 
             0x0000251c: 6e 65 64 2e: 
             0x00002520: 6e 73 74 61: 
             0x00002524: 63 6b 77 6f: 
             0x00002528: 72 64 73 00: 
             0x0000252c: 53 77 50 72: 
             0x00002530: 69 6e 74 55: 
             0x00002534: 6e 73 69 67: 
             0x00002538: 6e 65 64 2e: 
             0x0000253c: 6d 61 78 63: 
             0x00002540: 6f 72 65 73: 
             0x00002544: 00 53 77 50: 
             0x00002548: 72 69 6e 74: 
             0x0000254c: 55 6e 73 69: 
             0x00002550: 67 6e 65 64: 
             0x00002554: 2e 6d 61 78: 
             0x00002558: 74 69 6d 65: 
             0x0000255c: 72 73 00 53: 
             0x00002560: 77 50 72 69: 
             0x00002564: 6e 74 55 6e: 
             0x00002568: 73 69 67 6e: 
             0x0000256c: 65 64 2e 6d: 
             0x00002570: 61 78 63 68: 
             0x00002574: 61 6e 65 6e: 
             0x00002578: 64 73 00 53: 
             0x0000257c: 77 50 72 69: 
             0x00002580: 6e 74 53 74: 
             0x00002584: 72 69 6e 67: 
             0x00002588: 2e 6e 73 74: 
             0x0000258c: 61 63 6b 77: 
             0x00002590: 6f 72 64 73: 
             0x00002594: 00 73 74 72: 
             0x00002598: 69 6e 67 54: 
             0x0000259c: 6f 43 68 61: 
             0x000025a0: 72 73 2e 6e: 
             0x000025a4: 73 74 61 63: 
             0x000025a8: 6b 77 6f 72: 
             0x000025ac: 64 73 00 53: 
             0x000025b0: 77 50 72 69: 
             0x000025b4: 6e 74 53 74: 
             0x000025b8: 72 69 6e 67: 
             0x000025bc: 2e 6d 61 78: 
             0x000025c0: 63 6f 72 65: 
             0x000025c4: 73 00 73 74: 
             0x000025c8: 72 69 6e 67: 
             0x000025cc: 54 6f 43 68: 
             0x000025d0: 61 72 73 2e: 
             0x000025d4: 6d 61 78 63: 
             0x000025d8: 6f 72 65 73: 
             0x000025dc: 00 53 77 50: 
             0x000025e0: 72 69 6e 74: 
             0x000025e4: 53 74 72 69: 
             0x000025e8: 6e 67 2e 6d: 
             0x000025ec: 61 78 74 69: 
             0x000025f0: 6d 65 72 73: 
             0x000025f4: 00 73 74 72: 
             0x000025f8: 69 6e 67 54: 
             0x000025fc: 6f 43 68 61: 
             0x00002600: 72 73 2e 6d: 
             0x00002604: 61 78 74 69: 
             0x00002608: 6d 65 72 73: 
             0x0000260c: 00 53 77 50: 
             0x00002610: 72 69 6e 74: 
             0x00002614: 53 74 72 69: 
             0x00002618: 6e 67 2e 6d: 
             0x0000261c: 61 78 63 68: 
             0x00002620: 61 6e 65 6e: 
             0x00002624: 64 73 00 73: 
             0x00002628: 74 72 69 6e: 
             0x0000262c: 67 54 6f 43: 
             0x00002630: 68 61 72 73: 
             0x00002634: 2e 6d 61 78: 
             0x00002638: 63 68 61 6e: 
             0x0000263c: 65 6e 64 73: 
             0x00002640: 00 53 77 61: 
             0x00002644: 6c 6c 6f 77: 
             0x00002648: 2d 6e 4f 53: 
             0x0000264c: 5f 61 73 6d: 
             0x00002650: 2e 73 00 43: 
             0x00002654: 68 61 6e 49: 
             0x00002658: 6e 74 48 61: 
             0x0000265c: 6e 64 6c 65: 
             0x00002660: 72 2e 6e 73: 
             0x00002664: 74 61 63 6b: 
             0x00002668: 77 6f 72 64: 
             0x0000266c: 73 00 43 68: 
             0x00002670: 61 6e 49 6e: 
             0x00002674: 74 48 61 6e: 
             0x00002678: 64 6c 65 72: 
             0x0000267c: 2e 6d 61 78: 
             0x00002680: 63 6f 72 65: 
             0x00002684: 73 00 43 68: 
             0x00002688: 61 6e 49 6e: 
             0x0000268c: 74 48 61 6e: 
             0x00002690: 64 6c 65 72: 
             0x00002694: 2e 6d 61 78: 
             0x00002698: 74 69 6d 65: 
             0x0000269c: 72 73 00 43: 
             0x000026a0: 68 61 6e 49: 
             0x000026a4: 6e 74 48 61: 
             0x000026a8: 6e 64 6c 65: 
             0x000026ac: 72 2e 6d 61: 
             0x000026b0: 78 63 68 61: 
             0x000026b4: 6e 65 6e 64: 
             0x000026b8: 73 00 43 68: 
             0x000026bc: 61 6e 49 6e: 
             0x000026c0: 74 48 61 6e: 
             0x000026c4: 64 6c 65 72: 
             0x000026c8: 00 65 6e 61: 
             0x000026cc: 62 6c 65 43: 
             0x000026d0: 68 61 6e 49: 
             0x000026d4: 6e 74 65 72: 
             0x000026d8: 72 75 70 74: 
             0x000026dc: 2e 6e 73 74: 
             0x000026e0: 61 63 6b 77: 
             0x000026e4: 6f 72 64 73: 
             0x000026e8: 00 65 6e 61: 
             0x000026ec: 62 6c 65 43: 
             0x000026f0: 68 61 6e 49: 
             0x000026f4: 6e 74 65 72: 
             0x000026f8: 72 75 70 74: 
             0x000026fc: 2e 6d 61 78: 
             0x00002700: 63 6f 72 65: 
             0x00002704: 73 00 65 6e: 
             0x00002708: 61 62 6c 65: 
             0x0000270c: 43 68 61 6e: 
             0x00002710: 49 6e 74 65: 
             0x00002714: 72 72 75 70: 
             0x00002718: 74 2e 6d 61: 
             0x0000271c: 78 74 69 6d: 
             0x00002720: 65 72 73 00: 
             0x00002724: 65 6e 61 62: 
             0x00002728: 6c 65 43 68: 
             0x0000272c: 61 6e 49 6e: 
             0x00002730: 74 65 72 72: 
             0x00002734: 75 70 74 2e: 
             0x00002738: 6d 61 78 63: 
             0x0000273c: 68 61 6e 65: 
             0x00002740: 6e 64 73 00: 
             0x00002744: 6e 4f 53 5f: 
             0x00002748: 73 65 74 43: 
             0x0000274c: 6f 6e 74 72: 
             0x00002750: 6f 6c 49 6e: 
             0x00002754: 74 65 72 72: 
             0x00002758: 75 70 74 2e: 
             0x0000275c: 6e 73 74 61: 
             0x00002760: 63 6b 77 6f: 
             0x00002764: 72 64 73 00: 
             0x00002768: 6e 4f 53 5f: 
             0x0000276c: 73 65 74 43: 
             0x00002770: 6f 6e 74 72: 
             0x00002774: 6f 6c 49 6e: 
             0x00002778: 74 65 72 72: 
             0x0000277c: 75 70 74 2e: 
             0x00002780: 6d 61 78 63: 
             0x00002784: 6f 72 65 73: 
             0x00002788: 00 6e 4f 53: 
             0x0000278c: 5f 73 65 74: 
             0x00002790: 43 6f 6e 74: 
             0x00002794: 72 6f 6c 49: 
             0x00002798: 6e 74 65 72: 
             0x0000279c: 72 75 70 74: 
             0x000027a0: 2e 6d 61 78: 
             0x000027a4: 74 69 6d 65: 
             0x000027a8: 72 73 00 6e: 
             0x000027ac: 4f 53 5f 73: 
             0x000027b0: 65 74 43 6f: 
             0x000027b4: 6e 74 72 6f: 
             0x000027b8: 6c 49 6e 74: 
             0x000027bc: 65 72 72 75: 
             0x000027c0: 70 74 2e 6d: 
             0x000027c4: 61 78 63 68: 
             0x000027c8: 61 6e 65 6e: 
             0x000027cc: 64 73 00 6e: 
             0x000027d0: 4f 53 5f 63: 
             0x000027d4: 6f 6e 74 72: 
             0x000027d8: 6f 6c 49 6e: 
             0x000027dc: 74 65 72 72: 
             0x000027e0: 75 70 74 48: 
             0x000027e4: 61 6e 64 6c: 
             0x000027e8: 65 72 2e 6e: 
             0x000027ec: 73 74 61 63: 
             0x000027f0: 6b 77 6f 72: 
             0x000027f4: 64 73 00 6e: 
             0x000027f8: 4f 53 5f 63: 
             0x000027fc: 6f 6e 74 72: 
             0x00002800: 6f 6c 49 6e: 
             0x00002804: 74 65 72 72: 
             0x00002808: 75 70 74 48: 
             0x0000280c: 61 6e 64 6c: 
             0x00002810: 65 72 2e 6d: 
             0x00002814: 61 78 63 6f: 
             0x00002818: 72 65 73 00: 
             0x0000281c: 6e 4f 53 5f: 
             0x00002820: 63 6f 6e 74: 
             0x00002824: 72 6f 6c 49: 
             0x00002828: 6e 74 65 72: 
             0x0000282c: 72 75 70 74: 
             0x00002830: 48 61 6e 64: 
             0x00002834: 6c 65 72 2e: 
             0x00002838: 6d 61 78 74: 
             0x0000283c: 69 6d 65 72: 
             0x00002840: 73 00 6e 4f: 
             0x00002844: 53 5f 63 6f: 
             0x00002848: 6e 74 72 6f: 
             0x0000284c: 6c 49 6e 74: 
             0x00002850: 65 72 72 75: 
             0x00002854: 70 74 48 61: 
             0x00002858: 6e 64 6c 65: 
             0x0000285c: 72 2e 6d 61: 
             0x00002860: 78 63 68 61: 
             0x00002864: 6e 65 6e 64: 
             0x00002868: 73 00 6e 4f: 
             0x0000286c: 53 5f 72 65: 
             0x00002870: 71 75 65 73: 
             0x00002874: 74 41 63 74: 
             0x00002878: 69 6f 6e 2e: 
             0x0000287c: 6e 73 74 61: 
             0x00002880: 63 6b 77 6f: 
             0x00002884: 72 64 73 00: 
             0x00002888: 6e 4f 53 5f: 
             0x0000288c: 72 65 71 75: 
             0x00002890: 65 73 74 41: 
             0x00002894: 63 74 69 6f: 
             0x00002898: 6e 2e 6d 61: 
             0x0000289c: 78 63 6f 72: 
             0x000028a0: 65 73 00 6e: 
             0x000028a4: 4f 53 5f 72: 
             0x000028a8: 65 71 75 65: 
             0x000028ac: 73 74 41 63: 
             0x000028b0: 74 69 6f 6e: 
             0x000028b4: 2e 6d 61 78: 
             0x000028b8: 74 69 6d 65: 
             0x000028bc: 72 73 00 6e: 
             0x000028c0: 4f 53 5f 72: 
             0x000028c4: 65 71 75 65: 
             0x000028c8: 73 74 41 63: 
             0x000028cc: 74 69 6f 6e: 
             0x000028d0: 2e 6d 61 78: 
             0x000028d4: 63 68 61 6e: 
             0x000028d8: 65 6e 64 73: 
             0x000028dc: 00 6e 4f 53: 
             0x000028e0: 5f 72 65 71: 
             0x000028e4: 75 65 73 74: 
             0x000028e8: 41 63 74 69: 
             0x000028ec: 6f 6e 00 6e: 
             0x000028f0: 4f 53 5f 6c: 
             0x000028f4: 69 73 74 65: 
             0x000028f8: 6e 46 6f 72: 
             0x000028fc: 41 63 74 69: 
             0x00002900: 6f 6e 2e 6e: 
             0x00002904: 73 74 61 63: 
             0x00002908: 6b 77 6f 72: 
             0x0000290c: 64 73 00 6e: 
             0x00002910: 4f 53 5f 6c: 
             0x00002914: 69 73 74 65: 
             0x00002918: 6e 46 6f 72: 
             0x0000291c: 41 63 74 69: 
             0x00002920: 6f 6e 2e 6d: 
             0x00002924: 61 78 63 6f: 
             0x00002928: 72 65 73 00: 
             0x0000292c: 6e 4f 53 5f: 
             0x00002930: 6c 69 73 74: 
             0x00002934: 65 6e 46 6f: 
             0x00002938: 72 41 63 74: 
             0x0000293c: 69 6f 6e 2e: 
             0x00002940: 6d 61 78 74: 
             0x00002944: 69 6d 65 72: 
             0x00002948: 73 00 6e 4f: 
             0x0000294c: 53 5f 6c 69: 
             0x00002950: 73 74 65 6e: 
             0x00002954: 46 6f 72 41: 
             0x00002958: 63 74 69 6f: 
             0x0000295c: 6e 2e 6d 61: 
             0x00002960: 78 63 68 61: 
             0x00002964: 6e 65 6e 64: 
             0x00002968: 73 00 6e 4f: 
             0x0000296c: 53 5f 6c 69: 
             0x00002970: 73 74 65 6e: 
             0x00002974: 46 6f 72 41: 
             0x00002978: 63 74 69 6f: 
             0x0000297c: 6e 00 6e 4f: 
             0x00002980: 53 5f 63 72: 
             0x00002984: 65 61 74 65: 
             0x00002988: 54 68 72 65: 
             0x0000298c: 61 64 2e 6e: 
             0x00002990: 73 74 61 63: 
             0x00002994: 6b 77 6f 72: 
             0x00002998: 64 73 00 6e: 
             0x0000299c: 4f 53 5f 63: 
             0x000029a0: 72 65 61 74: 
             0x000029a4: 65 54 68 72: 
             0x000029a8: 65 61 64 2e: 
             0x000029ac: 6d 61 78 63: 
             0x000029b0: 6f 72 65 73: 
             0x000029b4: 00 6e 4f 53: 
             0x000029b8: 5f 63 72 65: 
             0x000029bc: 61 74 65 54: 
             0x000029c0: 68 72 65 61: 
             0x000029c4: 64 2e 6d 61: 
             0x000029c8: 78 74 69 6d: 
             0x000029cc: 65 72 73 00: 
             0x000029d0: 6e 4f 53 5f: 
             0x000029d4: 63 72 65 61: 
             0x000029d8: 74 65 54 68: 
             0x000029dc: 72 65 61 64: 
             0x000029e0: 2e 6d 61 78: 
             0x000029e4: 63 68 61 6e: 
             0x000029e8: 65 6e 64 73: 
             0x000029ec: 00 6e 4f 53: 
             0x000029f0: 5f 63 72 65: 
             0x000029f4: 61 74 65 54: 
             0x000029f8: 68 72 65 61: 
             0x000029fc: 64 00 6e 4f: 
             0x00002a00: 53 5f 74 68: 
             0x00002a04: 72 65 61 64: 
             0x00002a08: 46 72 65 65: 
             0x00002a0c: 2e 6e 73 74: 
             0x00002a10: 61 63 6b 77: 
             0x00002a14: 6f 72 64 73: 
             0x00002a18: 00 6e 4f 53: 
             0x00002a1c: 5f 74 68 72: 
             0x00002a20: 65 61 64 46: 
             0x00002a24: 72 65 65 2e: 
             0x00002a28: 6d 61 78 63: 
             0x00002a2c: 6f 72 65 73: 
             0x00002a30: 00 6e 4f 53: 
             0x00002a34: 5f 74 68 72: 
             0x00002a38: 65 61 64 46: 
             0x00002a3c: 72 65 65 2e: 
             0x00002a40: 6d 61 78 74: 
             0x00002a44: 69 6d 65 72: 
             0x00002a48: 73 00 6e 4f: 
             0x00002a4c: 53 5f 74 68: 
             0x00002a50: 72 65 61 64: 
             0x00002a54: 46 72 65 65: 
             0x00002a58: 2e 6d 61 78: 
             0x00002a5c: 63 68 61 6e: 
             0x00002a60: 65 6e 64 73: 
             0x00002a64: 00 6e 4f 53: 
             0x00002a68: 5f 74 68 72: 
             0x00002a6c: 65 61 64 46: 
             0x00002a70: 72 65 65 00: 
             0x00002a74: 6e 4f 53 5f: 
             0x00002a78: 61 64 64 45: 
             0x00002a7c: 76 65 6e 74: 
             0x00002a80: 48 61 6e 64: 
             0x00002a84: 6c 65 72 2e: 
             0x00002a88: 6e 73 74 61: 
             0x00002a8c: 63 6b 77 6f: 
             0x00002a90: 72 64 73 00: 
             0x00002a94: 6e 4f 53 5f: 
             0x00002a98: 61 64 64 45: 
             0x00002a9c: 76 65 6e 74: 
             0x00002aa0: 48 61 6e 64: 
             0x00002aa4: 6c 65 72 2e: 
             0x00002aa8: 6d 61 78 63: 
             0x00002aac: 6f 72 65 73: 
             0x00002ab0: 00 6e 4f 53: 
             0x00002ab4: 5f 61 64 64: 
             0x00002ab8: 45 76 65 6e: 
             0x00002abc: 74 48 61 6e: 
             0x00002ac0: 64 6c 65 72: 
             0x00002ac4: 2e 6d 61 78: 
             0x00002ac8: 74 69 6d 65: 
             0x00002acc: 72 73 00 6e: 
             0x00002ad0: 4f 53 5f 61: 
             0x00002ad4: 64 64 45 76: 
             0x00002ad8: 65 6e 74 48: 
             0x00002adc: 61 6e 64 6c: 
             0x00002ae0: 65 72 2e 6d: 
             0x00002ae4: 61 78 63 68: 
             0x00002ae8: 61 6e 65 6e: 
             0x00002aec: 64 73 00 6e: 
             0x00002af0: 4f 53 5f 77: 
             0x00002af4: 61 69 74 46: 
             0x00002af8: 6f 72 45 76: 
             0x00002afc: 65 6e 74 2e: 
             0x00002b00: 6e 73 74 61: 
             0x00002b04: 63 6b 77 6f: 
             0x00002b08: 72 64 73 00: 
             0x00002b0c: 6e 4f 53 5f: 
             0x00002b10: 77 61 69 74: 
             0x00002b14: 46 6f 72 45: 
             0x00002b18: 76 65 6e 74: 
             0x00002b1c: 2e 6d 61 78: 
             0x00002b20: 63 6f 72 65: 
             0x00002b24: 73 00 6e 4f: 
             0x00002b28: 53 5f 77 61: 
             0x00002b2c: 69 74 46 6f: 
             0x00002b30: 72 45 76 65: 
             0x00002b34: 6e 74 2e 6d: 
             0x00002b38: 61 78 74 69: 
             0x00002b3c: 6d 65 72 73: 
             0x00002b40: 00 6e 4f 53: 
             0x00002b44: 5f 77 61 69: 
             0x00002b48: 74 46 6f 72: 
             0x00002b4c: 45 76 65 6e: 
             0x00002b50: 74 2e 6d 61: 
             0x00002b54: 78 63 68 61: 
             0x00002b58: 6e 65 6e 64: 
             0x00002b5c: 73 00 6e 4f: 
             0x00002b60: 53 5f 64 69: 
             0x00002b64: 73 61 62 6c: 
             0x00002b68: 65 45 76 65: 
             0x00002b6c: 6e 74 2e 6e: 
             0x00002b70: 73 74 61 63: 
             0x00002b74: 6b 77 6f 72: 
             0x00002b78: 64 73 00 6e: 
             0x00002b7c: 4f 53 5f 64: 
             0x00002b80: 69 73 61 62: 
             0x00002b84: 6c 65 45 76: 
             0x00002b88: 65 6e 74 2e: 
             0x00002b8c: 6d 61 78 63: 
             0x00002b90: 6f 72 65 73: 
             0x00002b94: 00 6e 4f 53: 
             0x00002b98: 5f 64 69 73: 
             0x00002b9c: 61 62 6c 65: 
             0x00002ba0: 45 76 65 6e: 
             0x00002ba4: 74 2e 6d 61: 
             0x00002ba8: 78 63 68 61: 
             0x00002bac: 6e 65 6e 64: 
             0x00002bb0: 73 00 6e 4f: 
             0x00002bb4: 53 5f 64 69: 
             0x00002bb8: 73 61 62 6c: 
             0x00002bbc: 65 45 76 65: 
             0x00002bc0: 6e 74 2e 6d: 
             0x00002bc4: 61 78 74 69: 
             0x00002bc8: 6d 65 72 73: 
             0x00002bcc: 00 6e 4f 53: 
             0x00002bd0: 5f 64 69 73: 
             0x00002bd4: 61 62 6c 65: 
             0x00002bd8: 41 6c 6c 45: 
             0x00002bdc: 76 65 6e 74: 
             0x00002be0: 73 2e 6e 73: 
             0x00002be4: 74 61 63 6b: 
             0x00002be8: 77 6f 72 64: 
             0x00002bec: 73 00 6e 4f: 
             0x00002bf0: 53 5f 64 69: 
             0x00002bf4: 73 61 62 6c: 
             0x00002bf8: 65 41 6c 6c: 
             0x00002bfc: 45 76 65 6e: 
             0x00002c00: 74 73 2e 6d: 
             0x00002c04: 61 78 63 6f: 
             0x00002c08: 72 65 73 00: 
             0x00002c0c: 6e 4f 53 5f: 
             0x00002c10: 64 69 73 61: 
             0x00002c14: 62 6c 65 41: 
             0x00002c18: 6c 6c 45 76: 
             0x00002c1c: 65 6e 74 73: 
             0x00002c20: 2e 6d 61 78: 
             0x00002c24: 74 69 6d 65: 
             0x00002c28: 72 73 00 6e: 
             0x00002c2c: 4f 53 5f 64: 
             0x00002c30: 69 73 61 62: 
             0x00002c34: 6c 65 41 6c: 
             0x00002c38: 6c 45 76 65: 
             0x00002c3c: 6e 74 73 2e: 
             0x00002c40: 6d 61 78 63: 
             0x00002c44: 68 61 6e 65: 
             0x00002c48: 6e 64 73 00: 
             0x00002c4c: 6e 4f 53 5f: 
             0x00002c50: 73 65 74 43: 
             0x00002c54: 68 61 6e 6e: 
             0x00002c58: 65 6c 44 65: 
             0x00002c5c: 73 74 2e 6e: 
             0x00002c60: 73 74 61 63: 
             0x00002c64: 6b 77 6f 72: 
             0x00002c68: 64 73 00 6e: 
             0x00002c6c: 4f 53 5f 73: 
             0x00002c70: 65 74 43 68: 
             0x00002c74: 61 6e 6e 65: 
             0x00002c78: 6c 44 65 73: 
             0x00002c7c: 74 2e 6d 61: 
             0x00002c80: 78 63 6f 72: 
             0x00002c84: 65 73 00 6e: 
             0x00002c88: 4f 53 5f 73: 
             0x00002c8c: 65 74 43 68: 
             0x00002c90: 61 6e 6e 65: 
             0x00002c94: 6c 44 65 73: 
             0x00002c98: 74 2e 6d 61: 
             0x00002c9c: 78 74 69 6d: 
             0x00002ca0: 65 72 73 00: 
             0x00002ca4: 6e 4f 53 5f: 
             0x00002ca8: 73 65 74 43: 
             0x00002cac: 68 61 6e 6e: 
             0x00002cb0: 65 6c 44 65: 
             0x00002cb4: 73 74 2e 6d: 
             0x00002cb8: 61 78 63 68: 
             0x00002cbc: 61 6e 65 6e: 
             0x00002cc0: 64 73 00 6e: 
             0x00002cc4: 4f 53 5f 67: 
             0x00002cc8: 65 74 45 76: 
             0x00002ccc: 65 6e 74 49: 
             0x00002cd0: 44 2e 6e 73: 
             0x00002cd4: 74 61 63 6b: 
             0x00002cd8: 77 6f 72 64: 
             0x00002cdc: 73 00 6e 4f: 
             0x00002ce0: 53 5f 67 65: 
             0x00002ce4: 74 45 76 65: 
             0x00002ce8: 6e 74 49 44: 
             0x00002cec: 2e 6d 61 78: 
             0x00002cf0: 63 6f 72 65: 
             0x00002cf4: 73 00 6e 4f: 
             0x00002cf8: 53 5f 67 65: 
             0x00002cfc: 74 45 76 65: 
             0x00002d00: 6e 74 49 44: 
             0x00002d04: 2e 6d 61 78: 
             0x00002d08: 74 69 6d 65: 
             0x00002d0c: 72 73 00 6e: 
             0x00002d10: 4f 53 5f 67: 
             0x00002d14: 65 74 45 76: 
             0x00002d18: 65 6e 74 49: 
             0x00002d1c: 44 2e 6d 61: 
             0x00002d20: 78 63 68 61: 
             0x00002d24: 6e 65 6e 64: 
             0x00002d28: 73 00 47 65: 
             0x00002d2c: 74 4c 6f 63: 
             0x00002d30: 6b 2e 6e 73: 
             0x00002d34: 74 61 63 6b: 
             0x00002d38: 77 6f 72 64: 
             0x00002d3c: 73 00 47 65: 
             0x00002d40: 74 4c 6f 63: 
             0x00002d44: 6b 00 43 6c: 
             0x00002d48: 61 69 6d 4c: 
             0x00002d4c: 6f 63 6b 00: 
             0x00002d50: 43 6c 61 69: 
             0x00002d54: 6d 4c 6f 63: 
             0x00002d58: 6b 2e 6e 73: 
             0x00002d5c: 74 61 63 6b: 
             0x00002d60: 77 6f 72 64: 
             0x00002d64: 73 00 46 72: 
             0x00002d68: 65 65 4c 6f: 
             0x00002d6c: 63 6b 00 46: 
             0x00002d70: 72 65 65 4c: 
             0x00002d74: 6f 63 6b 2e: 
             0x00002d78: 6e 73 74 61: 
             0x00002d7c: 63 6b 77 6f: 
             0x00002d80: 72 64 73 00: 
             0x00002d84: 46 72 65 65: 
             0x00002d88: 72 4c 6f 63: 
             0x00002d8c: 6b 00 46 72: 
             0x00002d90: 65 65 72 4c: 
             0x00002d94: 6f 63 6b 2e: 
             0x00002d98: 6e 73 74 61: 
             0x00002d9c: 63 6b 77 6f: 
             0x00002da0: 72 64 73 00: 
             0x00002da4: 70 72 69 6e: 
             0x00002da8: 74 68 65 78: 
             0x00002dac: 6c 6e 00 6e: 
             0x00002db0: 4f 53 5f 64: 
             0x00002db4: 6f 41 63 74: 
             0x00002db8: 69 6f 6e 00: 
             0x00002dbc: 53 77 61 6c: 
             0x00002dc0: 6c 6f 77 2d: 
             0x00002dc4: 6e 4f 53 5f: 
             0x00002dc8: 63 6c 69 65: 
             0x00002dcc: 6e 74 2e 78: 
             0x00002dd0: 63 00 63 6c: 
             0x00002dd4: 69 65 6e 74: 
             0x00002dd8: 5f 6c 6f 6f: 
             0x00002ddc: 6b 75 70 53: 
             0x00002de0: 70 65 63 69: 
             0x00002de4: 66 69 63 43: 
             0x00002de8: 68 61 6e 65: 
             0x00002dec: 6e 64 00 5f: 
             0x00002df0: 5f 62 75 69: 
             0x00002df4: 6c 74 69 6e: 
             0x00002df8: 5f 67 65 74: 
             0x00002dfc: 69 64 00 63: 
             0x00002e00: 6c 69 65 6e: 
             0x00002e04: 74 5f 61 6c: 
             0x00002e08: 6c 6f 63 61: 
             0x00002e0c: 74 65 4e 65: 
             0x00002e10: 77 4c 6f 63: 
             0x00002e14: 61 6c 43 68: 
             0x00002e18: 61 6e 6e 65: 
             0x00002e1c: 6c 00 63 6c: 
             0x00002e20: 69 65 6e 74: 
             0x00002e24: 5f 63 6f 6e: 
             0x00002e28: 6e 65 63 74: 
             0x00002e2c: 4e 65 77 4c: 
             0x00002e30: 6f 63 61 6c: 
             0x00002e34: 43 68 61 6e: 
             0x00002e38: 6e 65 6c 00: 
             0x00002e3c: 63 6c 69 65: 
             0x00002e40: 6e 74 5f 63: 
             0x00002e44: 72 65 61 74: 
             0x00002e48: 65 54 68 72: 
             0x00002e4c: 65 61 64 2e: 
             0x00002e50: 6c 6f 63 6e: 
             0x00002e54: 6f 73 69 64: 
             0x00002e58: 65 00 63 6c: 
             0x00002e5c: 69 65 6e 74: 
             0x00002e60: 5f 63 6f 6e: 
             0x00002e64: 6e 65 63 74: 
             0x00002e68: 4e 65 77 4c: 
             0x00002e6c: 6f 63 61 6c: 
             0x00002e70: 43 68 61 6e: 
             0x00002e74: 6e 65 6c 2e: 
             0x00002e78: 6c 6f 63 6e: 
             0x00002e7c: 6f 73 69 64: 
             0x00002e80: 65 00 63 6c: 
             0x00002e84: 69 65 6e 74: 
             0x00002e88: 5f 61 6c 6c: 
             0x00002e8c: 6f 63 61 74: 
             0x00002e90: 65 4e 65 77: 
             0x00002e94: 4c 6f 63 61: 
             0x00002e98: 6c 43 68 61: 
             0x00002e9c: 6e 6e 65 6c: 
             0x00002ea0: 2e 6c 6f 63: 
             0x00002ea4: 6e 6f 73 69: 
             0x00002ea8: 64 65 00 63: 
             0x00002eac: 6c 69 65 6e: 
             0x00002eb0: 74 5f 67 65: 
             0x00002eb4: 74 4c 6f 63: 
             0x00002eb8: 61 6c 43 68: 
             0x00002ebc: 61 6e 6e 65: 
             0x00002ec0: 6c 44 65 73: 
             0x00002ec4: 74 2e 6c 6f: 
             0x00002ec8: 63 6e 6f 73: 
             0x00002ecc: 69 64 65 00: 
             0x00002ed0: 63 6c 69 65: 
             0x00002ed4: 6e 74 5f 75: 
             0x00002ed8: 70 64 61 74: 
             0x00002edc: 65 4c 6f 63: 
             0x00002ee0: 61 6c 43 68: 
             0x00002ee4: 61 6e 6e 65: 
             0x00002ee8: 6c 44 65 73: 
             0x00002eec: 74 2e 6c 6f: 
             0x00002ef0: 63 6e 6f 73: 
             0x00002ef4: 69 64 65 00: 
             0x00002ef8: 63 6c 69 65: 
             0x00002efc: 6e 74 5f 72: 
             0x00002f00: 65 6c 65 61: 
             0x00002f04: 73 65 4c 6f: 
             0x00002f08: 63 61 6c 43: 
             0x00002f0c: 68 61 6e 6e: 
             0x00002f10: 65 6c 2e 6c: 
             0x00002f14: 6f 63 6e 6f: 
             0x00002f18: 73 69 64 65: 
             0x00002f1c: 00 63 6c 69: 
             0x00002f20: 65 6e 74 5f: 
             0x00002f24: 6c 6f 6f 6b: 
             0x00002f28: 75 70 4c 6f: 
             0x00002f2c: 63 61 6c 43: 
             0x00002f30: 68 61 6e 65: 
             0x00002f34: 6e 64 2e 6c: 
             0x00002f38: 6f 63 6e 6f: 
             0x00002f3c: 73 69 64 65: 
             0x00002f40: 00 63 6c 69: 
             0x00002f44: 65 6e 74 5f: 
             0x00002f48: 6c 6f 6f 6b: 
             0x00002f4c: 75 70 50 61: 
             0x00002f50: 72 65 6e 74: 
             0x00002f54: 43 68 61 6e: 
             0x00002f58: 65 6e 64 2e: 
             0x00002f5c: 6c 6f 63 6e: 
             0x00002f60: 6f 73 69 64: 
             0x00002f64: 65 00 63 6c: 
             0x00002f68: 69 65 6e 74: 
             0x00002f6c: 5f 6c 6f 6f: 
             0x00002f70: 6b 75 70 53: 
             0x00002f74: 70 65 63 69: 
             0x00002f78: 66 69 63 43: 
             0x00002f7c: 68 61 6e 65: 
             0x00002f80: 6e 64 2e 6c: 
             0x00002f84: 6f 63 6e 6f: 
             0x00002f88: 73 69 64 65: 
             0x00002f8c: 00 67 65 74: 
             0x00002f90: 5f 61 64 64: 
             0x00002f94: 72 65 73 73: 
             0x00002f98: 5f 70 31 2e: 
             0x00002f9c: 6c 6f 63 6e: 
             0x00002fa0: 6f 73 69 64: 
             0x00002fa4: 65 00 67 65: 
             0x00002fa8: 74 5f 61 64: 
             0x00002fac: 64 72 65 73: 
             0x00002fb0: 73 5f 62 65: 
             0x00002fb4: 67 69 6e 31: 
             0x00002fb8: 2e 6c 6f 63: 
             0x00002fbc: 6e 6f 73 69: 
             0x00002fc0: 64 65 00 75: 
             0x00002fc4: 73 61 67 65: 
             0x00002fc8: 2e 61 6e 6f: 
             0x00002fcc: 6e 2e 30 2e: 
             0x00002fd0: 6c 6f 63 6e: 
             0x00002fd4: 6f 73 69 64: 
             0x00002fd8: 65 00 63 68: 
             0x00002fdc: 69 6c 64 31: 
             0x00002fe0: 2e 6c 6f 63: 
             0x00002fe4: 6e 6f 73 69: 
             0x00002fe8: 64 65 00 63: 
             0x00002fec: 6c 69 65 6e: 
             0x00002ff0: 74 5f 63 72: 
             0x00002ff4: 65 61 74 65: 
             0x00002ff8: 54 68 72 65: 
             0x00002ffc: 61 64 2e 6c: 
             0x00003000: 6f 63 6e 6f: 
             0x00003004: 63 68 61 6e: 
             0x00003008: 64 65 63 00: 
             0x0000300c: 63 6c 69 65: 
             0x00003010: 6e 74 5f 63: 
             0x00003014: 6f 6e 6e 65: 
             0x00003018: 63 74 4e 65: 
             0x0000301c: 77 4c 6f 63: 
             0x00003020: 61 6c 43 68: 
             0x00003024: 61 6e 6e 65: 
             0x00003028: 6c 2e 6c 6f: 
             0x0000302c: 63 6e 6f 63: 
             0x00003030: 68 61 6e 64: 
             0x00003034: 65 63 00 63: 
             0x00003038: 6c 69 65 6e: 
             0x0000303c: 74 5f 61 6c: 
             0x00003040: 6c 6f 63 61: 
             0x00003044: 74 65 4e 65: 
             0x00003048: 77 4c 6f 63: 
             0x0000304c: 61 6c 43 68: 
             0x00003050: 61 6e 6e 65: 
             0x00003054: 6c 2e 6c 6f: 
             0x00003058: 63 6e 6f 63: 
             0x0000305c: 68 61 6e 64: 
             0x00003060: 65 63 00 63: 
             0x00003064: 6c 69 65 6e: 
             0x00003068: 74 5f 67 65: 
             0x0000306c: 74 4c 6f 63: 
             0x00003070: 61 6c 43 68: 
             0x00003074: 61 6e 6e 65: 
             0x00003078: 6c 44 65 73: 
             0x0000307c: 74 2e 6c 6f: 
             0x00003080: 63 6e 6f 63: 
             0x00003084: 68 61 6e 64: 
             0x00003088: 65 63 00 63: 
             0x0000308c: 6c 69 65 6e: 
             0x00003090: 74 5f 75 70: 
             0x00003094: 64 61 74 65: 
             0x00003098: 4c 6f 63 61: 
             0x0000309c: 6c 43 68 61: 
             0x000030a0: 6e 6e 65 6c: 
             0x000030a4: 44 65 73 74: 
             0x000030a8: 2e 6c 6f 63: 
             0x000030ac: 6e 6f 63 68: 
             0x000030b0: 61 6e 64 65: 
             0x000030b4: 63 00 63 6c: 
             0x000030b8: 69 65 6e 74: 
             0x000030bc: 5f 72 65 6c: 
             0x000030c0: 65 61 73 65: 
             0x000030c4: 4c 6f 63 61: 
             0x000030c8: 6c 43 68 61: 
             0x000030cc: 6e 6e 65 6c: 
             0x000030d0: 2e 6c 6f 63: 
             0x000030d4: 6e 6f 63 68: 
             0x000030d8: 61 6e 64 65: 
             0x000030dc: 63 00 63 6c: 
             0x000030e0: 69 65 6e 74: 
             0x000030e4: 5f 6c 6f 6f: 
             0x000030e8: 6b 75 70 4c: 
             0x000030ec: 6f 63 61 6c: 
             0x000030f0: 43 68 61 6e: 
             0x000030f4: 65 6e 64 2e: 
             0x000030f8: 6c 6f 63 6e: 
             0x000030fc: 6f 63 68 61: 
             0x00003100: 6e 64 65 63: 
             0x00003104: 00 63 6c 69: 
             0x00003108: 65 6e 74 5f: 
             0x0000310c: 6c 6f 6f 6b: 
             0x00003110: 75 70 50 61: 
             0x00003114: 72 65 6e 74: 
             0x00003118: 43 68 61 6e: 
             0x0000311c: 65 6e 64 2e: 
             0x00003120: 6c 6f 63 6e: 
             0x00003124: 6f 63 68 61: 
             0x00003128: 6e 64 65 63: 
             0x0000312c: 00 63 6c 69: 
             0x00003130: 65 6e 74 5f: 
             0x00003134: 6c 6f 6f 6b: 
             0x00003138: 75 70 53 70: 
             0x0000313c: 65 63 69 66: 
             0x00003140: 69 63 43 68: 
             0x00003144: 61 6e 65 6e: 
             0x00003148: 64 2e 6c 6f: 
             0x0000314c: 63 6e 6f 63: 
             0x00003150: 68 61 6e 64: 
             0x00003154: 65 63 00 67: 
             0x00003158: 65 74 5f 61: 
             0x0000315c: 64 64 72 65: 
             0x00003160: 73 73 5f 70: 
             0x00003164: 31 2e 6c 6f: 
             0x00003168: 63 6e 6f 63: 
             0x0000316c: 68 61 6e 64: 
             0x00003170: 65 63 00 67: 
             0x00003174: 65 74 5f 61: 
             0x00003178: 64 64 72 65: 
             0x0000317c: 73 73 5f 62: 
             0x00003180: 65 67 69 6e: 
             0x00003184: 31 2e 6c 6f: 
             0x00003188: 63 6e 6f 63: 
             0x0000318c: 68 61 6e 64: 
             0x00003190: 65 63 00 70: 
             0x00003194: 31 2e 6c 6f: 
             0x00003198: 63 6e 6f 63: 
             0x0000319c: 68 61 6e 64: 
             0x000031a0: 65 63 00 75: 
             0x000031a4: 73 61 67 65: 
             0x000031a8: 2e 61 6e 6f: 
             0x000031ac: 6e 2e 30 2e: 
             0x000031b0: 6c 6f 63 6e: 
             0x000031b4: 6f 63 68 61: 
             0x000031b8: 6e 64 65 63: 
             0x000031bc: 00 63 68 69: 
             0x000031c0: 6c 64 31 2e: 
             0x000031c4: 6c 6f 63 6e: 
             0x000031c8: 6f 63 68 61: 
             0x000031cc: 6e 64 65 63: 
             0x000031d0: 00 70 31 2e: 
             0x000031d4: 6e 73 74 61: 
             0x000031d8: 63 6b 77 6f: 
             0x000031dc: 72 64 73 00: 
             0x000031e0: 63 6c 69 65: 
             0x000031e4: 6e 74 5f 63: 
             0x000031e8: 72 65 61 74: 
             0x000031ec: 65 54 68 72: 
             0x000031f0: 65 61 64 2e: 
             0x000031f4: 6e 73 74 61: 
             0x000031f8: 63 6b 77 6f: 
             0x000031fc: 72 64 73 00: 
             0x00003200: 70 31 2e 6d: 
             0x00003204: 61 78 63 6f: 
             0x00003208: 72 65 73 00: 
             0x0000320c: 63 6c 69 65: 
             0x00003210: 6e 74 5f 63: 
             0x00003214: 72 65 61 74: 
             0x00003218: 65 54 68 72: 
             0x0000321c: 65 61 64 2e: 
             0x00003220: 6d 61 78 63: 
             0x00003224: 6f 72 65 73: 
             0x00003228: 00 70 31 2e: 
             0x0000322c: 6d 61 78 74: 
             0x00003230: 69 6d 65 72: 
             0x00003234: 73 00 63 6c: 
             0x00003238: 69 65 6e 74: 
             0x0000323c: 5f 63 72 65: 
             0x00003240: 61 74 65 54: 
             0x00003244: 68 72 65 61: 
             0x00003248: 64 2e 6d 61: 
             0x0000324c: 78 74 69 6d: 
             0x00003250: 65 72 73 00: 
             0x00003254: 70 31 2e 6d: 
             0x00003258: 61 78 63 68: 
             0x0000325c: 61 6e 65 6e: 
             0x00003260: 64 73 00 63: 
             0x00003264: 6c 69 65 6e: 
             0x00003268: 74 5f 63 72: 
             0x0000326c: 65 61 74 65: 
             0x00003270: 54 68 72 65: 
             0x00003274: 61 64 2e 6d: 
             0x00003278: 61 78 63 68: 
             0x0000327c: 61 6e 65 6e: 
             0x00003280: 64 73 00 63: 
             0x00003284: 68 69 6c 64: 
             0x00003288: 31 2e 6e 73: 
             0x0000328c: 74 61 63 6b: 
             0x00003290: 77 6f 72 64: 
             0x00003294: 73 00 63 68: 
             0x00003298: 69 6c 64 31: 
             0x0000329c: 2e 6d 61 78: 
             0x000032a0: 63 6f 72 65: 
             0x000032a4: 73 00 63 68: 
             0x000032a8: 69 6c 64 31: 
             0x000032ac: 2e 6d 61 78: 
             0x000032b0: 74 69 6d 65: 
             0x000032b4: 72 73 00 63: 
             0x000032b8: 68 69 6c 64: 
             0x000032bc: 31 2e 6d 61: 
             0x000032c0: 78 63 68 61: 
             0x000032c4: 6e 65 6e 64: 
             0x000032c8: 73 00 5f 5f: 
             0x000032cc: 62 75 69 6c: 
             0x000032d0: 74 69 6e 5f: 
             0x000032d4: 67 65 74 69: 
             0x000032d8: 64 2e 6e 73: 
             0x000032dc: 74 61 63 6b: 
             0x000032e0: 77 6f 72 64: 
             0x000032e4: 73 00 5f 5f: 
             0x000032e8: 62 75 69 6c: 
             0x000032ec: 74 69 6e 5f: 
             0x000032f0: 67 65 74 69: 
             0x000032f4: 64 2e 6d 61: 
             0x000032f8: 78 63 6f 72: 
             0x000032fc: 65 73 00 5f: 
             0x00003300: 5f 62 75 69: 
             0x00003304: 6c 74 69 6e: 
             0x00003308: 5f 67 65 74: 
             0x0000330c: 69 64 2e 6d: 
             0x00003310: 61 78 74 69: 
             0x00003314: 6d 65 72 73: 
             0x00003318: 00 5f 5f 62: 
             0x0000331c: 75 69 6c 74: 
             0x00003320: 69 6e 5f 67: 
             0x00003324: 65 74 69 64: 
             0x00003328: 2e 6d 61 78: 
             0x0000332c: 63 68 61 6e: 
             0x00003330: 65 6e 64 73: 
             0x00003334: 00 63 6c 69: 
             0x00003338: 65 6e 74 5f: 
             0x0000333c: 63 6f 6e 6e: 
             0x00003340: 65 63 74 4e: 
             0x00003344: 65 77 4c 6f: 
             0x00003348: 63 61 6c 43: 
             0x0000334c: 68 61 6e 6e: 
             0x00003350: 65 6c 2e 6e: 
             0x00003354: 73 74 61 63: 
             0x00003358: 6b 77 6f 72: 
             0x0000335c: 64 73 00 63: 
             0x00003360: 6c 69 65 6e: 
             0x00003364: 74 5f 63 6f: 
             0x00003368: 6e 6e 65 63: 
             0x0000336c: 74 4e 65 77: 
             0x00003370: 4c 6f 63 61: 
             0x00003374: 6c 43 68 61: 
             0x00003378: 6e 6e 65 6c: 
             0x0000337c: 2e 6d 61 78: 
             0x00003380: 63 6f 72 65: 
             0x00003384: 73 00 63 6c: 
             0x00003388: 69 65 6e 74: 
             0x0000338c: 5f 63 6f 6e: 
             0x00003390: 6e 65 63 74: 
             0x00003394: 4e 65 77 4c: 
             0x00003398: 6f 63 61 6c: 
             0x0000339c: 43 68 61 6e: 
             0x000033a0: 6e 65 6c 2e: 
             0x000033a4: 6d 61 78 74: 
             0x000033a8: 69 6d 65 72: 
             0x000033ac: 73 00 63 6c: 
             0x000033b0: 69 65 6e 74: 
             0x000033b4: 5f 63 6f 6e: 
             0x000033b8: 6e 65 63 74: 
             0x000033bc: 4e 65 77 4c: 
             0x000033c0: 6f 63 61 6c: 
             0x000033c4: 43 68 61 6e: 
             0x000033c8: 6e 65 6c 2e: 
             0x000033cc: 6d 61 78 63: 
             0x000033d0: 68 61 6e 65: 
             0x000033d4: 6e 64 73 00: 
             0x000033d8: 63 6c 69 65: 
             0x000033dc: 6e 74 5f 61: 
             0x000033e0: 6c 6c 6f 63: 
             0x000033e4: 61 74 65 4e: 
             0x000033e8: 65 77 4c 6f: 
             0x000033ec: 63 61 6c 43: 
             0x000033f0: 68 61 6e 6e: 
             0x000033f4: 65 6c 2e 6e: 
             0x000033f8: 73 74 61 63: 
             0x000033fc: 6b 77 6f 72: 
             0x00003400: 64 73 00 63: 
             0x00003404: 6c 69 65 6e: 
             0x00003408: 74 5f 61 6c: 
             0x0000340c: 6c 6f 63 61: 
             0x00003410: 74 65 4e 65: 
             0x00003414: 77 4c 6f 63: 
             0x00003418: 61 6c 43 68: 
             0x0000341c: 61 6e 6e 65: 
             0x00003420: 6c 2e 6d 61: 
             0x00003424: 78 63 6f 72: 
             0x00003428: 65 73 00 63: 
             0x0000342c: 6c 69 65 6e: 
             0x00003430: 74 5f 61 6c: 
             0x00003434: 6c 6f 63 61: 
             0x00003438: 74 65 4e 65: 
             0x0000343c: 77 4c 6f 63: 
             0x00003440: 61 6c 43 68: 
             0x00003444: 61 6e 6e 65: 
             0x00003448: 6c 2e 6d 61: 
             0x0000344c: 78 74 69 6d: 
             0x00003450: 65 72 73 00: 
             0x00003454: 63 6c 69 65: 
             0x00003458: 6e 74 5f 61: 
             0x0000345c: 6c 6c 6f 63: 
             0x00003460: 61 74 65 4e: 
             0x00003464: 65 77 4c 6f: 
             0x00003468: 63 61 6c 43: 
             0x0000346c: 68 61 6e 6e: 
             0x00003470: 65 6c 2e 6d: 
             0x00003474: 61 78 63 68: 
             0x00003478: 61 6e 65 6e: 
             0x0000347c: 64 73 00 63: 
             0x00003480: 6c 69 65 6e: 
             0x00003484: 74 5f 67 65: 
             0x00003488: 74 4c 6f 63: 
             0x0000348c: 61 6c 43 68: 
             0x00003490: 61 6e 6e 65: 
             0x00003494: 6c 44 65 73: 
             0x00003498: 74 2e 6e 73: 
             0x0000349c: 74 61 63 6b: 
             0x000034a0: 77 6f 72 64: 
             0x000034a4: 73 00 63 6c: 
             0x000034a8: 69 65 6e 74: 
             0x000034ac: 5f 67 65 74: 
             0x000034b0: 4c 6f 63 61: 
             0x000034b4: 6c 43 68 61: 
             0x000034b8: 6e 6e 65 6c: 
             0x000034bc: 44 65 73 74: 
             0x000034c0: 2e 6d 61 78: 
             0x000034c4: 63 6f 72 65: 
             0x000034c8: 73 00 63 6c: 
             0x000034cc: 69 65 6e 74: 
             0x000034d0: 5f 67 65 74: 
             0x000034d4: 4c 6f 63 61: 
             0x000034d8: 6c 43 68 61: 
             0x000034dc: 6e 6e 65 6c: 
             0x000034e0: 44 65 73 74: 
             0x000034e4: 2e 6d 61 78: 
             0x000034e8: 74 69 6d 65: 
             0x000034ec: 72 73 00 63: 
             0x000034f0: 6c 69 65 6e: 
             0x000034f4: 74 5f 67 65: 
             0x000034f8: 74 4c 6f 63: 
             0x000034fc: 61 6c 43 68: 
             0x00003500: 61 6e 6e 65: 
             0x00003504: 6c 44 65 73: 
             0x00003508: 74 2e 6d 61: 
             0x0000350c: 78 63 68 61: 
             0x00003510: 6e 65 6e 64: 
             0x00003514: 73 00 63 6c: 
             0x00003518: 69 65 6e 74: 
             0x0000351c: 5f 75 70 64: 
             0x00003520: 61 74 65 4c: 
             0x00003524: 6f 63 61 6c: 
             0x00003528: 43 68 61 6e: 
             0x0000352c: 6e 65 6c 44: 
             0x00003530: 65 73 74 2e: 
             0x00003534: 6e 73 74 61: 
             0x00003538: 63 6b 77 6f: 
             0x0000353c: 72 64 73 00: 
             0x00003540: 63 6c 69 65: 
             0x00003544: 6e 74 5f 75: 
             0x00003548: 70 64 61 74: 
             0x0000354c: 65 4c 6f 63: 
             0x00003550: 61 6c 43 68: 
             0x00003554: 61 6e 6e 65: 
             0x00003558: 6c 44 65 73: 
             0x0000355c: 74 2e 6d 61: 
             0x00003560: 78 63 6f 72: 
             0x00003564: 65 73 00 63: 
             0x00003568: 6c 69 65 6e: 
             0x0000356c: 74 5f 75 70: 
             0x00003570: 64 61 74 65: 
             0x00003574: 4c 6f 63 61: 
             0x00003578: 6c 43 68 61: 
             0x0000357c: 6e 6e 65 6c: 
             0x00003580: 44 65 73 74: 
             0x00003584: 2e 6d 61 78: 
             0x00003588: 74 69 6d 65: 
             0x0000358c: 72 73 00 63: 
             0x00003590: 6c 69 65 6e: 
             0x00003594: 74 5f 75 70: 
             0x00003598: 64 61 74 65: 
             0x0000359c: 4c 6f 63 61: 
             0x000035a0: 6c 43 68 61: 
             0x000035a4: 6e 6e 65 6c: 
             0x000035a8: 44 65 73 74: 
             0x000035ac: 2e 6d 61 78: 
             0x000035b0: 63 68 61 6e: 
             0x000035b4: 65 6e 64 73: 
             0x000035b8: 00 63 6c 69: 
             0x000035bc: 65 6e 74 5f: 
             0x000035c0: 72 65 6c 65: 
             0x000035c4: 61 73 65 4c: 
             0x000035c8: 6f 63 61 6c: 
             0x000035cc: 43 68 61 6e: 
             0x000035d0: 6e 65 6c 2e: 
             0x000035d4: 6e 73 74 61: 
             0x000035d8: 63 6b 77 6f: 
             0x000035dc: 72 64 73 00: 
             0x000035e0: 63 6c 69 65: 
             0x000035e4: 6e 74 5f 72: 
             0x000035e8: 65 6c 65 61: 
             0x000035ec: 73 65 4c 6f: 
             0x000035f0: 63 61 6c 43: 
             0x000035f4: 68 61 6e 6e: 
             0x000035f8: 65 6c 2e 6d: 
             0x000035fc: 61 78 63 6f: 
             0x00003600: 72 65 73 00: 
             0x00003604: 63 6c 69 65: 
             0x00003608: 6e 74 5f 72: 
             0x0000360c: 65 6c 65 61: 
             0x00003610: 73 65 4c 6f: 
             0x00003614: 63 61 6c 43: 
             0x00003618: 68 61 6e 6e: 
             0x0000361c: 65 6c 2e 6d: 
             0x00003620: 61 78 74 69: 
             0x00003624: 6d 65 72 73: 
             0x00003628: 00 63 6c 69: 
             0x0000362c: 65 6e 74 5f: 
             0x00003630: 72 65 6c 65: 
             0x00003634: 61 73 65 4c: 
             0x00003638: 6f 63 61 6c: 
             0x0000363c: 43 68 61 6e: 
             0x00003640: 6e 65 6c 2e: 
             0x00003644: 6d 61 78 63: 
             0x00003648: 68 61 6e 65: 
             0x0000364c: 6e 64 73 00: 
             0x00003650: 63 6c 69 65: 
             0x00003654: 6e 74 5f 6c: 
             0x00003658: 6f 6f 6b 75: 
             0x0000365c: 70 4c 6f 63: 
             0x00003660: 61 6c 43 68: 
             0x00003664: 61 6e 65 6e: 
             0x00003668: 64 2e 6e 73: 
             0x0000366c: 74 61 63 6b: 
             0x00003670: 77 6f 72 64: 
             0x00003674: 73 00 63 6c: 
             0x00003678: 69 65 6e 74: 
             0x0000367c: 5f 6c 6f 6f: 
             0x00003680: 6b 75 70 4c: 
             0x00003684: 6f 63 61 6c: 
             0x00003688: 43 68 61 6e: 
             0x0000368c: 65 6e 64 2e: 
             0x00003690: 6d 61 78 63: 
             0x00003694: 6f 72 65 73: 
             0x00003698: 00 63 6c 69: 
             0x0000369c: 65 6e 74 5f: 
             0x000036a0: 6c 6f 6f 6b: 
             0x000036a4: 75 70 4c 6f: 
             0x000036a8: 63 61 6c 43: 
             0x000036ac: 68 61 6e 65: 
             0x000036b0: 6e 64 2e 6d: 
             0x000036b4: 61 78 74 69: 
             0x000036b8: 6d 65 72 73: 
             0x000036bc: 00 63 6c 69: 
             0x000036c0: 65 6e 74 5f: 
             0x000036c4: 6c 6f 6f 6b: 
             0x000036c8: 75 70 4c 6f: 
             0x000036cc: 63 61 6c 43: 
             0x000036d0: 68 61 6e 65: 
             0x000036d4: 6e 64 2e 6d: 
             0x000036d8: 61 78 63 68: 
             0x000036dc: 61 6e 65 6e: 
             0x000036e0: 64 73 00 63: 
             0x000036e4: 6c 69 65 6e: 
             0x000036e8: 74 5f 6c 6f: 
             0x000036ec: 6f 6b 75 70: 
             0x000036f0: 50 61 72 65: 
             0x000036f4: 6e 74 43 68: 
             0x000036f8: 61 6e 65 6e: 
             0x000036fc: 64 2e 6e 73: 
             0x00003700: 74 61 63 6b: 
             0x00003704: 77 6f 72 64: 
             0x00003708: 73 00 63 6c: 
             0x0000370c: 69 65 6e 74: 
             0x00003710: 5f 6c 6f 6f: 
             0x00003714: 6b 75 70 50: 
             0x00003718: 61 72 65 6e: 
             0x0000371c: 74 43 68 61: 
             0x00003720: 6e 65 6e 64: 
             0x00003724: 2e 6d 61 78: 
             0x00003728: 63 6f 72 65: 
             0x0000372c: 73 00 63 6c: 
             0x00003730: 69 65 6e 74: 
             0x00003734: 5f 6c 6f 6f: 
             0x00003738: 6b 75 70 50: 
             0x0000373c: 61 72 65 6e: 
             0x00003740: 74 43 68 61: 
             0x00003744: 6e 65 6e 64: 
             0x00003748: 2e 6d 61 78: 
             0x0000374c: 74 69 6d 65: 
             0x00003750: 72 73 00 63: 
             0x00003754: 6c 69 65 6e: 
             0x00003758: 74 5f 6c 6f: 
             0x0000375c: 6f 6b 75 70: 
             0x00003760: 50 61 72 65: 
             0x00003764: 6e 74 43 68: 
             0x00003768: 61 6e 65 6e: 
             0x0000376c: 64 2e 6d 61: 
             0x00003770: 78 63 68 61: 
             0x00003774: 6e 65 6e 64: 
             0x00003778: 73 00 63 6c: 
             0x0000377c: 69 65 6e 74: 
             0x00003780: 5f 6c 6f 6f: 
             0x00003784: 6b 75 70 53: 
             0x00003788: 70 65 63 69: 
             0x0000378c: 66 69 63 43: 
             0x00003790: 68 61 6e 65: 
             0x00003794: 6e 64 2e 6e: 
             0x00003798: 73 74 61 63: 
             0x0000379c: 6b 77 6f 72: 
             0x000037a0: 64 73 00 63: 
             0x000037a4: 6c 69 65 6e: 
             0x000037a8: 74 5f 6c 6f: 
             0x000037ac: 6f 6b 75 70: 
             0x000037b0: 53 70 65 63: 
             0x000037b4: 69 66 69 63: 
             0x000037b8: 43 68 61 6e: 
             0x000037bc: 65 6e 64 2e: 
             0x000037c0: 6d 61 78 63: 
             0x000037c4: 6f 72 65 73: 
             0x000037c8: 00 63 6c 69: 
             0x000037cc: 65 6e 74 5f: 
             0x000037d0: 6c 6f 6f 6b: 
             0x000037d4: 75 70 53 70: 
             0x000037d8: 65 63 69 66: 
             0x000037dc: 69 63 43 68: 
             0x000037e0: 61 6e 65 6e: 
             0x000037e4: 64 2e 6d 61: 
             0x000037e8: 78 74 69 6d: 
             0x000037ec: 65 72 73 00: 
             0x000037f0: 63 6c 69 65: 
             0x000037f4: 6e 74 5f 6c: 
             0x000037f8: 6f 6f 6b 75: 
             0x000037fc: 70 53 70 65: 
             0x00003800: 63 69 66 69: 
             0x00003804: 63 43 68 61: 
             0x00003808: 6e 65 6e 64: 
             0x0000380c: 2e 6d 61 78: 
             0x00003810: 63 68 61 6e: 
             0x00003814: 65 6e 64 73: 
             0x00003818: 00 67 65 74: 
             0x0000381c: 5f 61 64 64: 
             0x00003820: 72 65 73 73: 
             0x00003824: 5f 70 31 2e: 
             0x00003828: 6e 73 74 61: 
             0x0000382c: 63 6b 77 6f: 
             0x00003830: 72 64 73 00: 
             0x00003834: 67 65 74 5f: 
             0x00003838: 61 64 64 72: 
             0x0000383c: 65 73 73 5f: 
             0x00003840: 70 31 2e 6d: 
             0x00003844: 61 78 63 6f: 
             0x00003848: 72 65 73 00: 
             0x0000384c: 67 65 74 5f: 
             0x00003850: 61 64 64 72: 
             0x00003854: 65 73 73 5f: 
             0x00003858: 70 31 2e 6d: 
             0x0000385c: 61 78 74 69: 
             0x00003860: 6d 65 72 73: 
             0x00003864: 00 67 65 74: 
             0x00003868: 5f 61 64 64: 
             0x0000386c: 72 65 73 73: 
             0x00003870: 5f 70 31 2e: 
             0x00003874: 6d 61 78 63: 
             0x00003878: 68 61 6e 65: 
             0x0000387c: 6e 64 73 00: 
             0x00003880: 67 65 74 5f: 
             0x00003884: 61 64 64 72: 
             0x00003888: 65 73 73 5f: 
             0x0000388c: 62 65 67 69: 
             0x00003890: 6e 31 2e 6e: 
             0x00003894: 73 74 61 63: 
             0x00003898: 6b 77 6f 72: 
             0x0000389c: 64 73 00 67: 
             0x000038a0: 65 74 5f 61: 
             0x000038a4: 64 64 72 65: 
             0x000038a8: 73 73 5f 62: 
             0x000038ac: 65 67 69 6e: 
             0x000038b0: 31 2e 6d 61: 
             0x000038b4: 78 63 6f 72: 
             0x000038b8: 65 73 00 67: 
             0x000038bc: 65 74 5f 61: 
             0x000038c0: 64 64 72 65: 
             0x000038c4: 73 73 5f 62: 
             0x000038c8: 65 67 69 6e: 
             0x000038cc: 31 2e 6d 61: 
             0x000038d0: 78 74 69 6d: 
             0x000038d4: 65 72 73 00: 
             0x000038d8: 67 65 74 5f: 
             0x000038dc: 61 64 64 72: 
             0x000038e0: 65 73 73 5f: 
             0x000038e4: 62 65 67 69: 
             0x000038e8: 6e 31 2e 6d: 
             0x000038ec: 61 78 63 68: 
             0x000038f0: 61 6e 65 6e: 
             0x000038f4: 64 73 00 70: 
             0x000038f8: 72 69 6e 74: 
             0x000038fc: 4d 61 6e 79: 
             0x00003900: 2e 63 6f 65: 
             0x00003904: 72 73 65 64: 
             0x00003908: 2e 2e 66 2e: 
             0x0000390c: 37 62 30 2e: 
             0x00003910: 37 64 2e 32: 
             0x00003914: 38 75 69 2e: 
             0x00003918: 32 63 2e 32: 
             0x0000391c: 36 2e 32 38: 
             0x00003920: 61 2e 32 38: 
             0x00003924: 2e 33 61 75: 
             0x00003928: 69 2e 32 39: 
             0x0000392c: 2e 32 39 2e: 
             0x00003930: 32 39 00 70: 
             0x00003934: 72 69 6e 74: 
             0x00003938: 4d 61 6e 79: 
             0x0000393c: 2e 63 6f 65: 
             0x00003940: 72 73 65 64: 
             0x00003944: 2e 2e 66 2e: 
             0x00003948: 37 62 30 2e: 
             0x0000394c: 37 64 2e 32: 
             0x00003950: 38 75 69 2e: 
             0x00003954: 32 63 2e 32: 
             0x00003958: 36 2e 32 38: 
             0x0000395c: 61 2e 32 38: 
             0x00003960: 2e 33 61 75: 
             0x00003964: 69 2e 32 39: 
             0x00003968: 2e 32 39 2e: 
             0x0000396c: 32 39 2e 6e: 
             0x00003970: 73 74 61 63: 
             0x00003974: 6b 77 6f 72: 
             0x00003978: 64 73 00 53: 
             0x0000397c: 77 61 6c 6c: 
             0x00003980: 6f 77 2d 6e: 
             0x00003984: 4f 53 5f 69: 
             0x00003988: 6e 69 74 69: 
             0x0000398c: 61 6c 46 75: 
             0x00003990: 6e 63 74 69: 
             0x00003994: 6f 6e 73 2e: 
             0x00003998: 63 00 67 65: 
             0x0000399c: 74 53 74 61: 
             0x000039a0: 72 74 41 64: 
             0x000039a4: 64 72 65 73: 
             0x000039a8: 73 2e 6c 6f: 
             0x000039ac: 63 6e 6f 73: 
             0x000039b0: 69 64 65 00: 
             0x000039b4: 67 65 74 53: 
             0x000039b8: 74 61 72 74: 
             0x000039bc: 41 64 64 72: 
             0x000039c0: 65 73 73 00: 
             0x000039c4: 67 65 74 53: 
             0x000039c8: 74 61 72 74: 
             0x000039cc: 41 64 64 72: 
             0x000039d0: 65 73 73 2e: 
             0x000039d4: 6c 6f 63 6e: 
             0x000039d8: 6f 63 68 61: 
             0x000039dc: 6e 64 65 63: 
             0x000039e0: 00 61 6c 6c: 
             0x000039e4: 6f 63 61 74: 
             0x000039e8: 65 43 68 61: 
             0x000039ec: 6e 42 79 52: 
             0x000039f0: 65 66 2e 6c: 
             0x000039f4: 6f 63 6e 6f: 
             0x000039f8: 73 69 64 65: 
             0x000039fc: 00 61 6c 6c: 
             0x00003a00: 6f 63 61 74: 
             0x00003a04: 65 43 68 61: 
             0x00003a08: 6e 42 79 52: 
             0x00003a0c: 65 66 2e 6c: 
             0x00003a10: 6f 63 6e 6f: 
             0x00003a14: 63 68 61 6e: 
             0x00003a18: 64 65 63 00: 
             0x00003a1c: 73 65 6c 65: 
             0x00003a20: 63 74 31 41: 
             0x00003a24: 2e 6c 6f 63: 
             0x00003a28: 6e 6f 73 69: 
             0x00003a2c: 64 65 00 73: 
             0x00003a30: 65 6c 65 63: 
             0x00003a34: 74 31 41 2e: 
             0x00003a38: 6c 6f 63 6e: 
             0x00003a3c: 6f 63 68 61: 
             0x00003a40: 6e 64 65 63: 
             0x00003a44: 00 69 6e 73: 
             0x00003a48: 74 61 6c 6c: 
             0x00003a4c: 48 61 6e 64: 
             0x00003a50: 6c 65 72 54: 
             0x00003a54: 6f 46 6f 6f: 
             0x00003a58: 2e 6c 6f 63: 
             0x00003a5c: 6e 6f 73 69: 
             0x00003a60: 64 65 00 69: 
             0x00003a64: 6e 73 74 61: 
             0x00003a68: 6c 6c 48 61: 
             0x00003a6c: 6e 64 6c 65: 
             0x00003a70: 72 54 6f 46: 
             0x00003a74: 6f 6f 2e 6c: 
             0x00003a78: 6f 63 6e 6f: 
             0x00003a7c: 63 68 61 6e: 
             0x00003a80: 64 65 63 00: 
             0x00003a84: 66 6f 6f 45: 
             0x00003a88: 76 65 6e 74: 
             0x00003a8c: 48 61 6e 64: 
             0x00003a90: 6c 65 72 2e: 
             0x00003a94: 6c 6f 63 6e: 
             0x00003a98: 6f 73 69 64: 
             0x00003a9c: 65 00 66 6f: 
             0x00003aa0: 6f 45 76 65: 
             0x00003aa4: 6e 74 48 61: 
             0x00003aa8: 6e 64 6c 65: 
             0x00003aac: 72 2e 6c 6f: 
             0x00003ab0: 63 6e 6f 63: 
             0x00003ab4: 68 61 6e 64: 
             0x00003ab8: 65 63 00 67: 
             0x00003abc: 65 74 53 74: 
             0x00003ac0: 61 72 74 41: 
             0x00003ac4: 64 64 72 65: 
             0x00003ac8: 73 73 2e 6e: 
             0x00003acc: 73 74 61 63: 
             0x00003ad0: 6b 77 6f 72: 
             0x00003ad4: 64 73 00 67: 
             0x00003ad8: 65 74 53 74: 
             0x00003adc: 61 72 74 41: 
             0x00003ae0: 64 64 72 65: 
             0x00003ae4: 73 73 2e 6d: 
             0x00003ae8: 61 78 63 6f: 
             0x00003aec: 72 65 73 00: 
             0x00003af0: 67 65 74 53: 
             0x00003af4: 74 61 72 74: 
             0x00003af8: 41 64 64 72: 
             0x00003afc: 65 73 73 2e: 
             0x00003b00: 6d 61 78 74: 
             0x00003b04: 69 6d 65 72: 
             0x00003b08: 73 00 67 65: 
             0x00003b0c: 74 53 74 61: 
             0x00003b10: 72 74 41 64: 
             0x00003b14: 64 72 65 73: 
             0x00003b18: 73 2e 6d 61: 
             0x00003b1c: 78 63 68 61: 
             0x00003b20: 6e 65 6e 64: 
             0x00003b24: 73 00 61 6c: 
             0x00003b28: 6c 6f 63 61: 
             0x00003b2c: 74 65 43 68: 
             0x00003b30: 61 6e 42 79: 
             0x00003b34: 52 65 66 2e: 
             0x00003b38: 6e 73 74 61: 
             0x00003b3c: 63 6b 77 6f: 
             0x00003b40: 72 64 73 00: 
             0x00003b44: 61 6c 6c 6f: 
             0x00003b48: 63 61 74 65: 
             0x00003b4c: 43 68 61 6e: 
             0x00003b50: 42 79 52 65: 
             0x00003b54: 66 2e 6d 61: 
             0x00003b58: 78 63 6f 72: 
             0x00003b5c: 65 73 00 61: 
             0x00003b60: 6c 6c 6f 63: 
             0x00003b64: 61 74 65 43: 
             0x00003b68: 68 61 6e 42: 
             0x00003b6c: 79 52 65 66: 
             0x00003b70: 2e 6d 61 78: 
             0x00003b74: 74 69 6d 65: 
             0x00003b78: 72 73 00 61: 
             0x00003b7c: 6c 6c 6f 63: 
             0x00003b80: 61 74 65 43: 
             0x00003b84: 68 61 6e 42: 
             0x00003b88: 79 52 65 66: 
             0x00003b8c: 2e 6d 61 78: 
             0x00003b90: 63 68 61 6e: 
             0x00003b94: 65 6e 64 73: 
             0x00003b98: 00 73 65 6c: 
             0x00003b9c: 65 63 74 31: 
             0x00003ba0: 41 2e 6e 73: 
             0x00003ba4: 74 61 63 6b: 
             0x00003ba8: 77 6f 72 64: 
             0x00003bac: 73 00 73 65: 
             0x00003bb0: 6c 65 63 74: 
             0x00003bb4: 31 42 2e 6e: 
             0x00003bb8: 73 74 61 63: 
             0x00003bbc: 6b 77 6f 72: 
             0x00003bc0: 64 73 00 73: 
             0x00003bc4: 65 6c 65 63: 
             0x00003bc8: 74 31 41 2e: 
             0x00003bcc: 6d 61 78 63: 
             0x00003bd0: 6f 72 65 73: 
             0x00003bd4: 00 73 65 6c: 
             0x00003bd8: 65 63 74 31: 
             0x00003bdc: 42 2e 6d 61: 
             0x00003be0: 78 63 6f 72: 
             0x00003be4: 65 73 00 73: 
             0x00003be8: 65 6c 65 63: 
             0x00003bec: 74 31 41 2e: 
             0x00003bf0: 6d 61 78 74: 
             0x00003bf4: 69 6d 65 72: 
             0x00003bf8: 73 00 73 65: 
             0x00003bfc: 6c 65 63 74: 
             0x00003c00: 31 42 2e 6d: 
             0x00003c04: 61 78 74 69: 
             0x00003c08: 6d 65 72 73: 
             0x00003c0c: 00 73 65 6c: 
             0x00003c10: 65 63 74 31: 
             0x00003c14: 41 2e 6d 61: 
             0x00003c18: 78 63 68 61: 
             0x00003c1c: 6e 65 6e 64: 
             0x00003c20: 73 00 73 65: 
             0x00003c24: 6c 65 63 74: 
             0x00003c28: 31 42 2e 6d: 
             0x00003c2c: 61 78 63 68: 
             0x00003c30: 61 6e 65 6e: 
             0x00003c34: 64 73 00 69: 
             0x00003c38: 6e 73 74 61: 
             0x00003c3c: 6c 6c 48 61: 
             0x00003c40: 6e 64 6c 65: 
             0x00003c44: 72 54 6f 46: 
             0x00003c48: 6f 6f 2e 6e: 
             0x00003c4c: 73 74 61 63: 
             0x00003c50: 6b 77 6f 72: 
             0x00003c54: 64 73 00 69: 
             0x00003c58: 6e 73 74 61: 
             0x00003c5c: 6c 6c 48 61: 
             0x00003c60: 6e 64 6c 65: 
             0x00003c64: 72 54 6f 46: 
             0x00003c68: 6f 6f 2e 6d: 
             0x00003c6c: 61 78 63 6f: 
             0x00003c70: 72 65 73 00: 
             0x00003c74: 69 6e 73 74: 
             0x00003c78: 61 6c 6c 48: 
             0x00003c7c: 61 6e 64 6c: 
             0x00003c80: 65 72 54 6f: 
             0x00003c84: 46 6f 6f 2e: 
             0x00003c88: 6d 61 78 74: 
             0x00003c8c: 69 6d 65 72: 
             0x00003c90: 73 00 69 6e: 
             0x00003c94: 73 74 61 6c: 
             0x00003c98: 6c 48 61 6e: 
             0x00003c9c: 64 6c 65 72: 
             0x00003ca0: 54 6f 46 6f: 
             0x00003ca4: 6f 2e 6d 61: 
             0x00003ca8: 78 63 68 61: 
             0x00003cac: 6e 65 6e 64: 
             0x00003cb0: 73 00 66 6f: 
             0x00003cb4: 6f 45 76 65: 
             0x00003cb8: 6e 74 48 61: 
             0x00003cbc: 6e 64 6c 65: 
             0x00003cc0: 72 2e 6e 73: 
             0x00003cc4: 74 61 63 6b: 
             0x00003cc8: 77 6f 72 64: 
             0x00003ccc: 73 00 66 6f: 
             0x00003cd0: 6f 45 76 65: 
             0x00003cd4: 6e 74 48 61: 
             0x00003cd8: 6e 64 6c 65: 
             0x00003cdc: 72 2e 6d 61: 
             0x00003ce0: 78 63 6f 72: 
             0x00003ce4: 65 73 00 66: 
             0x00003ce8: 6f 6f 45 76: 
             0x00003cec: 65 6e 74 48: 
             0x00003cf0: 61 6e 64 6c: 
             0x00003cf4: 65 72 2e 6d: 
             0x00003cf8: 61 78 74 69: 
             0x00003cfc: 6d 65 72 73: 
             0x00003d00: 00 66 6f 6f: 
             0x00003d04: 45 76 65 6e: 
             0x00003d08: 74 48 61 6e: 
             0x00003d0c: 64 6c 65 72: 
             0x00003d10: 2e 6d 61 78: 
             0x00003d14: 63 68 61 6e: 
             0x00003d18: 65 6e 64 73: 
             0x00003d1c: 00 70 72 69: 
             0x00003d20: 6d 5f 63 68: 
             0x00003d24: 69 6c 64 00: 
             0x00003d28: 53 77 61 6c: 
             0x00003d2c: 6c 6f 77 2d: 
             0x00003d30: 70 72 69 6d: 
             0x00003d34: 2d 63 68 65: 
             0x00003d38: 63 6b 73 2e: 
             0x00003d3c: 63 00 6c 69: 
             0x00003d40: 73 74 65 6e: 
             0x00003d44: 5f 63 68 65: 
             0x00003d48: 63 6b 5f 77: 
             0x00003d4c: 61 6c 6c 2e: 
             0x00003d50: 6c 6f 63 6e: 
             0x00003d54: 6f 73 69 64: 
             0x00003d58: 65 00 6c 69: 
             0x00003d5c: 73 74 65 6e: 
             0x00003d60: 5f 63 68 65: 
             0x00003d64: 63 6b 5f 77: 
             0x00003d68: 61 6c 6c 00: 
             0x00003d6c: 6c 69 73 74: 
             0x00003d70: 65 6e 5f 63: 
             0x00003d74: 68 65 63 6b: 
             0x00003d78: 5f 77 61 6c: 
             0x00003d7c: 6c 2e 6c 6f: 
             0x00003d80: 63 6e 6f 63: 
             0x00003d84: 68 61 6e 64: 
             0x00003d88: 65 63 00 63: 
             0x00003d8c: 68 65 63 6b: 
             0x00003d90: 5f 65 64 67: 
             0x00003d94: 65 2e 6c 6f: 
             0x00003d98: 63 6e 6f 73: 
             0x00003d9c: 69 64 65 00: 
             0x00003da0: 63 68 65 63: 
             0x00003da4: 6b 5f 65 64: 
             0x00003da8: 67 65 2e 6c: 
             0x00003dac: 6f 63 6e 6f: 
             0x00003db0: 63 68 61 6e: 
             0x00003db4: 64 65 63 00: 
             0x00003db8: 63 68 65 63: 
             0x00003dbc: 6b 5f 6d 61: 
             0x00003dc0: 7a 65 2e 6c: 
             0x00003dc4: 6f 63 6e 6f: 
             0x00003dc8: 73 69 64 65: 
             0x00003dcc: 00 63 68 65: 
             0x00003dd0: 63 6b 5f 6d: 
             0x00003dd4: 61 7a 65 00: 
             0x00003dd8: 63 68 65 63: 
             0x00003ddc: 6b 5f 6d 61: 
             0x00003de0: 7a 65 2e 6c: 
             0x00003de4: 6f 63 6e 6f: 
             0x00003de8: 63 68 61 6e: 
             0x00003dec: 64 65 63 00: 
             0x00003df0: 63 68 65 63: 
             0x00003df4: 6b 5f 6d 61: 
             0x00003df8: 7a 65 2e 6e: 
             0x00003dfc: 73 74 61 63: 
             0x00003e00: 6b 77 6f 72: 
             0x00003e04: 64 73 00 78: 
             0x00003e08: 63 5f 63 68: 
             0x00003e0c: 65 63 6b 5f: 
             0x00003e10: 6d 61 7a 65: 
             0x00003e14: 2e 6e 73 74: 
             0x00003e18: 61 63 6b 77: 
             0x00003e1c: 6f 72 64 73: 
             0x00003e20: 00 63 68 65: 
             0x00003e24: 63 6b 5f 6d: 
             0x00003e28: 61 7a 65 2e: 
             0x00003e2c: 6d 61 78 63: 
             0x00003e30: 6f 72 65 73: 
             0x00003e34: 00 78 63 5f: 
             0x00003e38: 63 68 65 63: 
             0x00003e3c: 6b 5f 6d 61: 
             0x00003e40: 7a 65 2e 6d: 
             0x00003e44: 61 78 63 6f: 
             0x00003e48: 72 65 73 00: 
             0x00003e4c: 63 68 65 63: 
             0x00003e50: 6b 5f 6d 61: 
             0x00003e54: 7a 65 2e 6d: 
             0x00003e58: 61 78 74 69: 
             0x00003e5c: 6d 65 72 73: 
             0x00003e60: 00 78 63 5f: 
             0x00003e64: 63 68 65 63: 
             0x00003e68: 6b 5f 6d 61: 
             0x00003e6c: 7a 65 2e 6d: 
             0x00003e70: 61 78 74 69: 
             0x00003e74: 6d 65 72 73: 
             0x00003e78: 00 63 68 65: 
             0x00003e7c: 63 6b 5f 6d: 
             0x00003e80: 61 7a 65 2e: 
             0x00003e84: 6d 61 78 63: 
             0x00003e88: 68 61 6e 65: 
             0x00003e8c: 6e 64 73 00: 
             0x00003e90: 78 63 5f 63: 
             0x00003e94: 68 65 63 6b: 
             0x00003e98: 5f 6d 61 7a: 
             0x00003e9c: 65 2e 6d 61: 
             0x00003ea0: 78 63 68 61: 
             0x00003ea4: 6e 65 6e 64: 
             0x00003ea8: 73 00 6c 69: 
             0x00003eac: 73 74 65 6e: 
             0x00003eb0: 5f 63 68 65: 
             0x00003eb4: 63 6b 5f 77: 
             0x00003eb8: 61 6c 6c 2e: 
             0x00003ebc: 6e 73 74 61: 
             0x00003ec0: 63 6b 77 6f: 
             0x00003ec4: 72 64 73 00: 
             0x00003ec8: 6d 65 6d 73: 
             0x00003ecc: 65 74 2e 6e: 
             0x00003ed0: 73 74 61 63: 
             0x00003ed4: 6b 77 6f 72: 
             0x00003ed8: 64 73 00 78: 
             0x00003edc: 63 5f 6c 69: 
             0x00003ee0: 73 74 65 6e: 
             0x00003ee4: 5f 63 68 65: 
             0x00003ee8: 63 6b 5f 77: 
             0x00003eec: 61 6c 6c 2e: 
             0x00003ef0: 6e 73 74 61: 
             0x00003ef4: 63 6b 77 6f: 
             0x00003ef8: 72 64 73 00: 
             0x00003efc: 6c 69 73 74: 
             0x00003f00: 65 6e 5f 63: 
             0x00003f04: 68 65 63 6b: 
             0x00003f08: 5f 77 61 6c: 
             0x00003f0c: 6c 2e 6d 61: 
             0x00003f10: 78 63 6f 72: 
             0x00003f14: 65 73 00 78: 
             0x00003f18: 63 5f 6c 69: 
             0x00003f1c: 73 74 65 6e: 
             0x00003f20: 5f 63 68 65: 
             0x00003f24: 63 6b 5f 77: 
             0x00003f28: 61 6c 6c 2e: 
             0x00003f2c: 6d 61 78 63: 
             0x00003f30: 6f 72 65 73: 
             0x00003f34: 00 6c 69 73: 
             0x00003f38: 74 65 6e 5f: 
             0x00003f3c: 63 68 65 63: 
             0x00003f40: 6b 5f 77 61: 
             0x00003f44: 6c 6c 2e 6d: 
             0x00003f48: 61 78 74 69: 
             0x00003f4c: 6d 65 72 73: 
             0x00003f50: 00 78 63 5f: 
             0x00003f54: 6c 69 73 74: 
             0x00003f58: 65 6e 5f 63: 
             0x00003f5c: 68 65 63 6b: 
             0x00003f60: 5f 77 61 6c: 
             0x00003f64: 6c 2e 6d 61: 
             0x00003f68: 78 74 69 6d: 
             0x00003f6c: 65 72 73 00: 
             0x00003f70: 6c 69 73 74: 
             0x00003f74: 65 6e 5f 63: 
             0x00003f78: 68 65 63 6b: 
             0x00003f7c: 5f 77 61 6c: 
             0x00003f80: 6c 2e 6d 61: 
             0x00003f84: 78 63 68 61: 
             0x00003f88: 6e 65 6e 64: 
             0x00003f8c: 73 00 78 63: 
             0x00003f90: 5f 6c 69 73: 
             0x00003f94: 74 65 6e 5f: 
             0x00003f98: 63 68 65 63: 
             0x00003f9c: 6b 5f 77 61: 
             0x00003fa0: 6c 6c 2e 6d: 
             0x00003fa4: 61 78 63 68: 
             0x00003fa8: 61 6e 65 6e: 
             0x00003fac: 64 73 00 63: 
             0x00003fb0: 68 65 63 6b: 
             0x00003fb4: 5f 65 64 67: 
             0x00003fb8: 65 2e 6e 73: 
             0x00003fbc: 74 61 63 6b: 
             0x00003fc0: 77 6f 72 64: 
             0x00003fc4: 73 00 78 63: 
             0x00003fc8: 5f 63 68 65: 
             0x00003fcc: 63 6b 5f 65: 
             0x00003fd0: 64 67 65 2e: 
             0x00003fd4: 6e 73 74 61: 
             0x00003fd8: 63 6b 77 6f: 
             0x00003fdc: 72 64 73 00: 
             0x00003fe0: 63 68 65 63: 
             0x00003fe4: 6b 5f 65 64: 
             0x00003fe8: 67 65 2e 6d: 
             0x00003fec: 61 78 63 6f: 
             0x00003ff0: 72 65 73 00: 
             0x00003ff4: 78 63 5f 63: 
             0x00003ff8: 68 65 63 6b: 
             0x00003ffc: 5f 65 64 67: 
             0x00004000: 65 2e 6d 61: 
             0x00004004: 78 63 6f 72: 
             0x00004008: 65 73 00 63: 
             0x0000400c: 68 65 63 6b: 
             0x00004010: 5f 65 64 67: 
             0x00004014: 65 2e 6d 61: 
             0x00004018: 78 74 69 6d: 
             0x0000401c: 65 72 73 00: 
             0x00004020: 78 63 5f 63: 
             0x00004024: 68 65 63 6b: 
             0x00004028: 5f 65 64 67: 
             0x0000402c: 65 2e 6d 61: 
             0x00004030: 78 74 69 6d: 
             0x00004034: 65 72 73 00: 
             0x00004038: 63 68 65 63: 
             0x0000403c: 6b 5f 65 64: 
             0x00004040: 67 65 2e 6d: 
             0x00004044: 61 78 63 68: 
             0x00004048: 61 6e 65 6e: 
             0x0000404c: 64 73 00 78: 
             0x00004050: 63 5f 63 68: 
             0x00004054: 65 63 6b 5f: 
             0x00004058: 65 64 67 65: 
             0x0000405c: 2e 6d 61 78: 
             0x00004060: 63 68 61 6e: 
             0x00004064: 65 6e 64 73: 
             0x00004068: 00 78 63 5f: 
             0x0000406c: 6c 69 73 74: 
             0x00004070: 65 6e 5f 63: 
             0x00004074: 68 65 63 6b: 
             0x00004078: 5f 77 61 6c: 
             0x0000407c: 6c 00 78 63: 
             0x00004080: 5f 63 68 65: 
             0x00004084: 63 6b 5f 6d: 
             0x00004088: 61 7a 65 00: 
             0x0000408c: 70 72 69 6e: 
             0x00004090: 74 4d 61 6e: 
             0x00004094: 79 2e 63 6f: 
             0x00004098: 65 72 73 65: 
             0x0000409c: 64 2e 2e 66: 
             0x000040a0: 2e 37 62 30: 
             0x000040a4: 2e 37 64 2e: 
             0x000040a8: 32 38 75 69: 
             0x000040ac: 2e 32 63 70: 
             0x000040b0: 2e 32 38 75: 
             0x000040b4: 69 2e 32 39: 
             0x000040b8: 2e 32 39 00: 
             0x000040bc: 70 72 69 6e: 
             0x000040c0: 74 4d 61 6e: 
             0x000040c4: 79 2e 63 6f: 
             0x000040c8: 65 72 73 65: 
             0x000040cc: 64 2e 2e 66: 
             0x000040d0: 2e 37 62 30: 
             0x000040d4: 2e 37 64 2e: 
             0x000040d8: 32 38 75 69: 
             0x000040dc: 2e 32 63 70: 
             0x000040e0: 2e 32 38 75: 
             0x000040e4: 69 2e 32 39: 
             0x000040e8: 2e 32 39 2e: 
             0x000040ec: 6e 73 74 61: 
             0x000040f0: 63 6b 77 6f: 
             0x000040f4: 72 64 73 00: 
             0x000040f8: 63 68 65 63: 
             0x000040fc: 6b 5f 6d 61: 
             0x00004100: 7a 65 2e 63: 
             0x00004104: 6f 65 72 73: 
             0x00004108: 65 64 2e 2e: 
             0x0000410c: 66 2e 37 62: 
             0x00004110: 75 69 2e 37: 
             0x00004114: 64 2e 32 38: 
             0x00004118: 75 69 2e 32: 
             0x0000411c: 63 70 2e 32: 
             0x00004120: 38 61 2e 32: 
             0x00004124: 38 31 30 2e: 
             0x00004128: 33 61 75 69: 
             0x0000412c: 2e 32 39 2e: 
             0x00004130: 32 39 2e 32: 
             0x00004134: 63 75 69 2e: 
             0x00004138: 32 63 75 69: 
             0x0000413c: 2e 32 63 75: 
             0x00004140: 69 2e 32 63: 
             0x00004144: 75 69 2e 32: 
             0x00004148: 63 75 69 2e: 
             0x0000414c: 32 39 00 63: 
             0x00004150: 68 65 63 6b: 
             0x00004154: 5f 6d 61 7a: 
             0x00004158: 65 2e 63 6f: 
             0x0000415c: 65 72 73 65: 
             0x00004160: 64 2e 2e 66: 
             0x00004164: 2e 37 62 75: 
             0x00004168: 69 2e 37 64: 
             0x0000416c: 2e 32 38 75: 
             0x00004170: 69 2e 32 63: 
             0x00004174: 70 2e 32 38: 
             0x00004178: 61 2e 32 38: 
             0x0000417c: 31 30 2e 33: 
             0x00004180: 61 75 69 2e: 
             0x00004184: 32 39 2e 32: 
             0x00004188: 39 2e 32 63: 
             0x0000418c: 75 69 2e 32: 
             0x00004190: 63 75 69 2e: 
             0x00004194: 32 63 75 69: 
             0x00004198: 2e 32 63 75: 
             0x0000419c: 69 2e 32 63: 
             0x000041a0: 75 69 2e 32: 
             0x000041a4: 39 2e 6e 73: 
             0x000041a8: 74 61 63 6b: 
             0x000041ac: 77 6f 72 64: 
             0x000041b0: 73 00 78 63: 
             0x000041b4: 5f 6c 69 73: 
             0x000041b8: 74 65 6e 5f: 
             0x000041bc: 63 68 65 63: 
             0x000041c0: 6b 5f 77 61: 
             0x000041c4: 6c 6c 2e 63: 
             0x000041c8: 6f 65 72 73: 
             0x000041cc: 65 64 2e 2e: 
             0x000041d0: 66 2e 37 62: 
             0x000041d4: 30 2e 37 64: 
             0x000041d8: 2e 32 38 75: 
             0x000041dc: 69 2e 32 63: 
             0x000041e0: 70 2e 32 38: 
             0x000041e4: 61 2e 32 38: 
             0x000041e8: 31 30 2e 33: 
             0x000041ec: 61 75 69 2e: 
             0x000041f0: 32 39 2e 32: 
             0x000041f4: 39 2e 32 63: 
             0x000041f8: 70 2e 32 38: 
             0x000041fc: 75 69 2e 32: 
             0x00004200: 39 2e 32 63: 
             0x00004204: 75 69 2e 32: 
             0x00004208: 63 75 69 2e: 
             0x0000420c: 32 63 75 69: 
             0x00004210: 2e 32 63 75: 
             0x00004214: 69 2e 32 39: 
             0x00004218: 00 78 63 5f: 
             0x0000421c: 6c 69 73 74: 
             0x00004220: 65 6e 5f 63: 
             0x00004224: 68 65 63 6b: 
             0x00004228: 5f 77 61 6c: 
             0x0000422c: 6c 2e 63 6f: 
             0x00004230: 65 72 73 65: 
             0x00004234: 64 2e 2e 66: 
             0x00004238: 2e 37 62 30: 
             0x0000423c: 2e 37 64 2e: 
             0x00004240: 32 38 75 69: 
             0x00004244: 2e 32 63 70: 
             0x00004248: 2e 32 38 61: 
             0x0000424c: 2e 32 38 31: 
             0x00004250: 30 2e 33 61: 
             0x00004254: 75 69 2e 32: 
             0x00004258: 39 2e 32 39: 
             0x0000425c: 2e 32 63 70: 
             0x00004260: 2e 32 38 75: 
             0x00004264: 69 2e 32 39: 
             0x00004268: 2e 32 63 75: 
             0x0000426c: 69 2e 32 63: 
             0x00004270: 75 69 2e 32: 
             0x00004274: 63 75 69 2e: 
             0x00004278: 32 63 75 69: 
             0x0000427c: 2e 32 39 2e: 
             0x00004280: 6e 73 74 61: 
             0x00004284: 63 6b 77 6f: 
             0x00004288: 72 64 73 00: 
             0x0000428c: 78 63 5f 63: 
             0x00004290: 68 65 63 6b: 
             0x00004294: 5f 6d 61 7a: 
             0x00004298: 65 2e 63 6f: 
             0x0000429c: 65 72 73 65: 
             0x000042a0: 64 2e 2e 66: 
             0x000042a4: 2e 37 62 75: 
             0x000042a8: 69 2e 37 64: 
             0x000042ac: 2e 32 38 75: 
             0x000042b0: 69 2e 32 63: 
             0x000042b4: 70 2e 32 38: 
             0x000042b8: 61 2e 32 38: 
             0x000042bc: 31 30 2e 33: 
             0x000042c0: 61 75 69 2e: 
             0x000042c4: 32 39 2e 32: 
             0x000042c8: 39 2e 32 63: 
             0x000042cc: 75 69 2e 32: 
             0x000042d0: 63 75 69 2e: 
             0x000042d4: 32 63 75 69: 
             0x000042d8: 2e 32 63 75: 
             0x000042dc: 69 2e 32 63: 
             0x000042e0: 75 69 2e 32: 
             0x000042e4: 39 00 78 63: 
             0x000042e8: 5f 63 68 65: 
             0x000042ec: 63 6b 5f 6d: 
             0x000042f0: 61 7a 65 2e: 
             0x000042f4: 63 6f 65 72: 
             0x000042f8: 73 65 64 2e: 
             0x000042fc: 2e 66 2e 37: 
             0x00004300: 62 75 69 2e: 
             0x00004304: 37 64 2e 32: 
             0x00004308: 38 75 69 2e: 
             0x0000430c: 32 63 70 2e: 
             0x00004310: 32 38 61 2e: 
             0x00004314: 32 38 31 30: 
             0x00004318: 2e 33 61 75: 
             0x0000431c: 69 2e 32 39: 
             0x00004320: 2e 32 39 2e: 
             0x00004324: 32 63 75 69: 
             0x00004328: 2e 32 63 75: 
             0x0000432c: 69 2e 32 63: 
             0x00004330: 75 69 2e 32: 
             0x00004334: 63 75 69 2e: 
             0x00004338: 32 63 75 69: 
             0x0000433c: 2e 32 39 2e: 
             0x00004340: 6e 73 74 61: 
             0x00004344: 63 6b 77 6f: 
             0x00004348: 72 64 73 00: 
             0x0000434c: 53 77 61 6c: 
             0x00004350: 6c 6f 77 2d: 
             0x00004354: 6e 4f 53 2e: 
             0x00004358: 78 63 00 65: 
             0x0000435c: 78 69 74 00: 
             0x00004360: 6c 6f 6f 6b: 
             0x00004364: 75 70 43 68: 
             0x00004368: 61 6e 4d 61: 
             0x0000436c: 70 45 6e 74: 
             0x00004370: 72 79 00 61: 
             0x00004374: 64 64 4e 65: 
             0x00004378: 77 43 68 61: 
             0x0000437c: 6e 4d 61 70: 
             0x00004380: 45 6e 74 72: 
             0x00004384: 79 00 6c 6f: 
             0x00004388: 6f 6b 75 70: 
             0x0000438c: 43 68 61 6e: 
             0x00004390: 4d 61 70 45: 
             0x00004394: 6e 74 72 79: 
             0x00004398: 2e 6c 6f 63: 
             0x0000439c: 6e 6f 73 69: 
             0x000043a0: 64 65 00 65: 
             0x000043a4: 76 65 6e 74: 
             0x000043a8: 54 65 73 74: 
             0x000043ac: 41 2e 6c 6f: 
             0x000043b0: 63 6e 6f 73: 
             0x000043b4: 69 64 65 00: 
             0x000043b8: 62 65 67 69: 
             0x000043bc: 6e 31 2e 6c: 
             0x000043c0: 6f 63 6e 6f: 
             0x000043c4: 73 69 64 65: 
             0x000043c8: 00 62 65 67: 
             0x000043cc: 69 6e 32 2e: 
             0x000043d0: 6c 6f 63 6e: 
             0x000043d4: 6f 73 69 64: 
             0x000043d8: 65 00 62 65: 
             0x000043dc: 67 69 6e 33: 
             0x000043e0: 2e 6c 6f 63: 
             0x000043e4: 6e 6f 73 69: 
             0x000043e8: 64 65 00 63: 
             0x000043ec: 68 61 6e 54: 
             0x000043f0: 65 73 74 43: 
             0x000043f4: 68 69 6c 64: 
             0x000043f8: 2e 6c 6f 63: 
             0x000043fc: 6e 6f 73 69: 
             0x00004400: 64 65 00 70: 
             0x00004404: 72 69 6e 74: 
             0x00004408: 49 44 2e 6c: 
             0x0000440c: 6f 63 6e 6f: 
             0x00004410: 73 69 64 65: 
             0x00004414: 00 61 64 64: 
             0x00004418: 4e 65 77 43: 
             0x0000441c: 68 61 6e 4d: 
             0x00004420: 61 70 45 6e: 
             0x00004424: 74 72 79 2e: 
             0x00004428: 6c 6f 63 6e: 
             0x0000442c: 6f 63 68 61: 
             0x00004430: 6e 64 65 63: 
             0x00004434: 00 6c 6f 6f: 
             0x00004438: 6b 75 70 43: 
             0x0000443c: 68 61 6e 4d: 
             0x00004440: 61 70 45 6e: 
             0x00004444: 74 72 79 2e: 
             0x00004448: 6c 6f 63 6e: 
             0x0000444c: 6f 63 68 61: 
             0x00004450: 6e 64 65 63: 
             0x00004454: 00 64 65 6c: 
             0x00004458: 65 74 65 43: 
             0x0000445c: 68 61 6e 4d: 
             0x00004460: 61 70 45 6e: 
             0x00004464: 74 72 79 2e: 
             0x00004468: 6c 6f 63 6e: 
             0x0000446c: 6f 63 68 61: 
             0x00004470: 6e 64 65 63: 
             0x00004474: 00 6e 4f 53: 
             0x00004478: 5f 64 6f 41: 
             0x0000447c: 63 74 69 6f: 
             0x00004480: 6e 2e 6c 6f: 
             0x00004484: 63 6e 6f 63: 
             0x00004488: 68 61 6e 64: 
             0x0000448c: 65 63 00 65: 
             0x00004490: 76 65 6e 74: 
             0x00004494: 54 65 73 74: 
             0x00004498: 41 2e 6c 6f: 
             0x0000449c: 63 6e 6f 63: 
             0x000044a0: 68 61 6e 64: 
             0x000044a4: 65 63 00 73: 
             0x000044a8: 65 6c 65 63: 
             0x000044ac: 74 31 42 2e: 
             0x000044b0: 6c 6f 63 6e: 
             0x000044b4: 6f 63 68 61: 
             0x000044b8: 6e 64 65 63: 
             0x000044bc: 00 65 76 65: 
             0x000044c0: 6e 74 54 65: 
             0x000044c4: 73 74 42 2e: 
             0x000044c8: 6c 6f 63 6e: 
             0x000044cc: 6f 63 68 61: 
             0x000044d0: 6e 64 65 63: 
             0x000044d4: 00 62 65 67: 
             0x000044d8: 69 6e 31 2e: 
             0x000044dc: 6c 6f 63 6e: 
             0x000044e0: 6f 63 68 61: 
             0x000044e4: 6e 64 65 63: 
             0x000044e8: 00 62 65 67: 
             0x000044ec: 69 6e 32 2e: 
             0x000044f0: 6c 6f 63 6e: 
             0x000044f4: 6f 63 68 61: 
             0x000044f8: 6e 64 65 63: 
             0x000044fc: 00 62 65 67: 
             0x00004500: 69 6e 33 2e: 
             0x00004504: 6c 6f 63 6e: 
             0x00004508: 6f 63 68 61: 
             0x0000450c: 6e 64 65 63: 
             0x00004510: 00 63 68 61: 
             0x00004514: 6e 54 65 73: 
             0x00004518: 74 50 61 72: 
             0x0000451c: 65 6e 74 2e: 
             0x00004520: 6c 6f 63 6e: 
             0x00004524: 6f 63 68 61: 
             0x00004528: 6e 64 65 63: 
             0x0000452c: 00 63 68 61: 
             0x00004530: 6e 54 65 73: 
             0x00004534: 74 43 68 69: 
             0x00004538: 6c 64 2e 6c: 
             0x0000453c: 6f 63 6e 6f: 
             0x00004540: 63 68 61 6e: 
             0x00004544: 64 65 63 00: 
             0x00004548: 73 69 6e 6b: 
             0x0000454c: 53 79 6e 63: 
             0x00004550: 2e 6c 6f 63: 
             0x00004554: 6e 6f 63 68: 
             0x00004558: 61 6e 64 65: 
             0x0000455c: 63 00 70 72: 
             0x00004560: 69 6e 74 49: 
             0x00004564: 44 2e 6c 6f: 
             0x00004568: 63 6e 6f 63: 
             0x0000456c: 68 61 6e 64: 
             0x00004570: 65 63 00 73: 
             0x00004574: 69 6e 6b 53: 
             0x00004578: 79 6e 63 2e: 
             0x0000457c: 6e 73 74 61: 
             0x00004580: 63 6b 77 6f: 
             0x00004584: 72 64 73 00: 
             0x00004588: 73 69 6e 6b: 
             0x0000458c: 53 79 6e 63: 
             0x00004590: 2e 6d 61 78: 
             0x00004594: 63 6f 72 65: 
             0x00004598: 73 00 73 69: 
             0x0000459c: 6e 6b 53 79: 
             0x000045a0: 6e 63 2e 6d: 
             0x000045a4: 61 78 74 69: 
             0x000045a8: 6d 65 72 73: 
             0x000045ac: 00 73 69 6e: 
             0x000045b0: 6b 53 79 6e: 
             0x000045b4: 63 2e 6d 61: 
             0x000045b8: 78 63 68 61: 
             0x000045bc: 6e 65 6e 64: 
             0x000045c0: 73 00 65 78: 
             0x000045c4: 69 74 2e 6e: 
             0x000045c8: 73 74 61 63: 
             0x000045cc: 6b 77 6f 72: 
             0x000045d0: 64 73 00 65: 
             0x000045d4: 78 69 74 2e: 
             0x000045d8: 6d 61 78 63: 
             0x000045dc: 6f 72 65 73: 
             0x000045e0: 00 65 78 69: 
             0x000045e4: 74 2e 6d 61: 
             0x000045e8: 78 74 69 6d: 
             0x000045ec: 65 72 73 00: 
             0x000045f0: 65 78 69 74: 
             0x000045f4: 2e 6d 61 78: 
             0x000045f8: 63 68 61 6e: 
             0x000045fc: 65 6e 64 73: 
             0x00004600: 00 61 64 64: 
             0x00004604: 4e 65 77 43: 
             0x00004608: 68 61 6e 4d: 
             0x0000460c: 61 70 45 6e: 
             0x00004610: 74 72 79 2e: 
             0x00004614: 6e 73 74 61: 
             0x00004618: 63 6b 77 6f: 
             0x0000461c: 72 64 73 00: 
             0x00004620: 61 64 64 4e: 
             0x00004624: 65 77 43 68: 
             0x00004628: 61 6e 4d 61: 
             0x0000462c: 70 45 6e 74: 
             0x00004630: 72 79 2e 6d: 
             0x00004634: 61 78 63 6f: 
             0x00004638: 72 65 73 00: 
             0x0000463c: 61 64 64 4e: 
             0x00004640: 65 77 43 68: 
             0x00004644: 61 6e 4d 61: 
             0x00004648: 70 45 6e 74: 
             0x0000464c: 72 79 2e 6d: 
             0x00004650: 61 78 74 69: 
             0x00004654: 6d 65 72 73: 
             0x00004658: 00 61 64 64: 
             0x0000465c: 4e 65 77 43: 
             0x00004660: 68 61 6e 4d: 
             0x00004664: 61 70 45 6e: 
             0x00004668: 74 72 79 2e: 
             0x0000466c: 6d 61 78 63: 
             0x00004670: 68 61 6e 65: 
             0x00004674: 6e 64 73 00: 
             0x00004678: 6c 6f 6f 6b: 
             0x0000467c: 75 70 43 68: 
             0x00004680: 61 6e 4d 61: 
             0x00004684: 70 45 6e 74: 
             0x00004688: 72 79 2e 6e: 
             0x0000468c: 73 74 61 63: 
             0x00004690: 6b 77 6f 72: 
             0x00004694: 64 73 00 6c: 
             0x00004698: 6f 6f 6b 75: 
             0x0000469c: 70 43 68 61: 
             0x000046a0: 6e 4d 61 70: 
             0x000046a4: 45 6e 74 72: 
             0x000046a8: 79 2e 6d 61: 
             0x000046ac: 78 63 6f 72: 
             0x000046b0: 65 73 00 6c: 
             0x000046b4: 6f 6f 6b 75: 
             0x000046b8: 70 43 68 61: 
             0x000046bc: 6e 4d 61 70: 
             0x000046c0: 45 6e 74 72: 
             0x000046c4: 79 2e 6d 61: 
             0x000046c8: 78 74 69 6d: 
             0x000046cc: 65 72 73 00: 
             0x000046d0: 6c 6f 6f 6b: 
             0x000046d4: 75 70 43 68: 
             0x000046d8: 61 6e 4d 61: 
             0x000046dc: 70 45 6e 74: 
             0x000046e0: 72 79 2e 6d: 
             0x000046e4: 61 78 63 68: 
             0x000046e8: 61 6e 65 6e: 
             0x000046ec: 64 73 00 64: 
             0x000046f0: 65 6c 65 74: 
             0x000046f4: 65 43 68 61: 
             0x000046f8: 6e 4d 61 70: 
             0x000046fc: 45 6e 74 72: 
             0x00004700: 79 2e 6e 73: 
             0x00004704: 74 61 63 6b: 
             0x00004708: 77 6f 72 64: 
             0x0000470c: 73 00 64 65: 
             0x00004710: 6c 65 74 65: 
             0x00004714: 43 68 61 6e: 
             0x00004718: 4d 61 70 45: 
             0x0000471c: 6e 74 72 79: 
             0x00004720: 2e 6d 61 78: 
             0x00004724: 63 6f 72 65: 
             0x00004728: 73 00 64 65: 
             0x0000472c: 6c 65 74 65: 
             0x00004730: 43 68 61 6e: 
             0x00004734: 4d 61 70 45: 
             0x00004738: 6e 74 72 79: 
             0x0000473c: 2e 6d 61 78: 
             0x00004740: 74 69 6d 65: 
             0x00004744: 72 73 00 64: 
             0x00004748: 65 6c 65 74: 
             0x0000474c: 65 43 68 61: 
             0x00004750: 6e 4d 61 70: 
             0x00004754: 45 6e 74 72: 
             0x00004758: 79 2e 6d 61: 
             0x0000475c: 78 63 68 61: 
             0x00004760: 6e 65 6e 64: 
             0x00004764: 73 00 6e 4f: 
             0x00004768: 53 5f 64 6f: 
             0x0000476c: 41 63 74 69: 
             0x00004770: 6f 6e 2e 6e: 
             0x00004774: 73 74 61 63: 
             0x00004778: 6b 77 6f 72: 
             0x0000477c: 64 73 00 6e: 
             0x00004780: 4f 53 5f 64: 
             0x00004784: 6f 41 63 74: 
             0x00004788: 69 6f 6e 2e: 
             0x0000478c: 6d 61 78 63: 
             0x00004790: 6f 72 65 73: 
             0x00004794: 00 6e 4f 53: 
             0x00004798: 5f 64 6f 41: 
             0x0000479c: 63 74 69 6f: 
             0x000047a0: 6e 2e 6d 61: 
             0x000047a4: 78 74 69 6d: 
             0x000047a8: 65 72 73 00: 
             0x000047ac: 6e 4f 53 5f: 
             0x000047b0: 64 6f 41 63: 
             0x000047b4: 74 69 6f 6e: 
             0x000047b8: 2e 6d 61 78: 
             0x000047bc: 63 68 61 6e: 
             0x000047c0: 65 6e 64 73: 
             0x000047c4: 00 62 65 67: 
             0x000047c8: 69 6e 31 2e: 
             0x000047cc: 6e 73 74 61: 
             0x000047d0: 63 6b 77 6f: 
             0x000047d4: 72 64 73 00: 
             0x000047d8: 70 72 69 6e: 
             0x000047dc: 74 73 74 72: 
             0x000047e0: 6c 6e 2e 6e: 
             0x000047e4: 73 74 61 63: 
             0x000047e8: 6b 77 6f 72: 
             0x000047ec: 64 73 00 70: 
             0x000047f0: 72 69 6e 74: 
             0x000047f4: 69 6e 74 6c: 
             0x000047f8: 6e 2e 6e 73: 
             0x000047fc: 74 61 63 6b: 
             0x00004800: 77 6f 72 64: 
             0x00004804: 73 00 62 65: 
             0x00004808: 67 69 6e 31: 
             0x0000480c: 2e 6d 61 78: 
             0x00004810: 63 6f 72 65: 
             0x00004814: 73 00 70 72: 
             0x00004818: 69 6e 74 69: 
             0x0000481c: 6e 74 6c 6e: 
             0x00004820: 2e 6d 61 78: 
             0x00004824: 63 6f 72 65: 
             0x00004828: 73 00 70 72: 
             0x0000482c: 69 6e 74 73: 
             0x00004830: 74 72 6c 6e: 
             0x00004834: 2e 6d 61 78: 
             0x00004838: 63 6f 72 65: 
             0x0000483c: 73 00 62 65: 
             0x00004840: 67 69 6e 31: 
             0x00004844: 2e 6d 61 78: 
             0x00004848: 74 69 6d 65: 
             0x0000484c: 72 73 00 70: 
             0x00004850: 72 69 6e 74: 
             0x00004854: 69 6e 74 6c: 
             0x00004858: 6e 2e 6d 61: 
             0x0000485c: 78 74 69 6d: 
             0x00004860: 65 72 73 00: 
             0x00004864: 70 72 69 6e: 
             0x00004868: 74 73 74 72: 
             0x0000486c: 6c 6e 2e 6d: 
             0x00004870: 61 78 74 69: 
             0x00004874: 6d 65 72 73: 
             0x00004878: 00 62 65 67: 
             0x0000487c: 69 6e 31 2e: 
             0x00004880: 6d 61 78 63: 
             0x00004884: 68 61 6e 65: 
             0x00004888: 6e 64 73 00: 
             0x0000488c: 70 72 69 6e: 
             0x00004890: 74 69 6e 74: 
             0x00004894: 6c 6e 2e 6d: 
             0x00004898: 61 78 63 68: 
             0x0000489c: 61 6e 65 6e: 
             0x000048a0: 64 73 00 70: 
             0x000048a4: 72 69 6e 74: 
             0x000048a8: 73 74 72 6c: 
             0x000048ac: 6e 2e 6d 61: 
             0x000048b0: 78 63 68 61: 
             0x000048b4: 6e 65 6e 64: 
             0x000048b8: 73 00 62 65: 
             0x000048bc: 67 69 6e 32: 
             0x000048c0: 2e 6e 73 74: 
             0x000048c4: 61 63 6b 77: 
             0x000048c8: 6f 72 64 73: 
             0x000048cc: 00 62 65 67: 
             0x000048d0: 69 6e 32 2e: 
             0x000048d4: 6d 61 78 63: 
             0x000048d8: 6f 72 65 73: 
             0x000048dc: 00 62 65 67: 
             0x000048e0: 69 6e 32 2e: 
             0x000048e4: 6d 61 78 74: 
             0x000048e8: 69 6d 65 72: 
             0x000048ec: 73 00 62 65: 
             0x000048f0: 67 69 6e 32: 
             0x000048f4: 2e 6d 61 78: 
             0x000048f8: 63 68 61 6e: 
             0x000048fc: 65 6e 64 73: 
             0x00004900: 00 62 65 67: 
             0x00004904: 69 6e 33 2e: 
             0x00004908: 6e 73 74 61: 
             0x0000490c: 63 6b 77 6f: 
             0x00004910: 72 64 73 00: 
             0x00004914: 62 65 67 69: 
             0x00004918: 6e 33 2e 6d: 
             0x0000491c: 61 78 63 6f: 
             0x00004920: 72 65 73 00: 
             0x00004924: 62 65 67 69: 
             0x00004928: 6e 33 2e 6d: 
             0x0000492c: 61 78 74 69: 
             0x00004930: 6d 65 72 73: 
             0x00004934: 00 62 65 67: 
             0x00004938: 69 6e 33 2e: 
             0x0000493c: 6d 61 78 63: 
             0x00004940: 68 61 6e 65: 
             0x00004944: 6e 64 73 00: 
             0x00004948: 65 76 65 6e: 
             0x0000494c: 74 54 65 73: 
             0x00004950: 74 41 2e 6e: 
             0x00004954: 73 74 61 63: 
             0x00004958: 6b 77 6f 72: 
             0x0000495c: 64 73 00 65: 
             0x00004960: 76 65 6e 74: 
             0x00004964: 54 65 73 74: 
             0x00004968: 41 2e 6d 61: 
             0x0000496c: 78 63 6f 72: 
             0x00004970: 65 73 00 65: 
             0x00004974: 76 65 6e 74: 
             0x00004978: 54 65 73 74: 
             0x0000497c: 41 2e 6d 61: 
             0x00004980: 78 74 69 6d: 
             0x00004984: 65 72 73 00: 
             0x00004988: 65 76 65 6e: 
             0x0000498c: 74 54 65 73: 
             0x00004990: 74 41 2e 6d: 
             0x00004994: 61 78 63 68: 
             0x00004998: 61 6e 65 6e: 
             0x0000499c: 64 73 00 65: 
             0x000049a0: 76 65 6e 74: 
             0x000049a4: 54 65 73 74: 
             0x000049a8: 42 2e 6e 73: 
             0x000049ac: 74 61 63 6b: 
             0x000049b0: 77 6f 72 64: 
             0x000049b4: 73 00 65 76: 
             0x000049b8: 65 6e 74 54: 
             0x000049bc: 65 73 74 42: 
             0x000049c0: 2e 6d 61 78: 
             0x000049c4: 63 6f 72 65: 
             0x000049c8: 73 00 65 76: 
             0x000049cc: 65 6e 74 54: 
             0x000049d0: 65 73 74 42: 
             0x000049d4: 2e 6d 61 78: 
             0x000049d8: 74 69 6d 65: 
             0x000049dc: 72 73 00 65: 
             0x000049e0: 76 65 6e 74: 
             0x000049e4: 54 65 73 74: 
             0x000049e8: 42 2e 6d 61: 
             0x000049ec: 78 63 68 61: 
             0x000049f0: 6e 65 6e 64: 
             0x000049f4: 73 00 63 68: 
             0x000049f8: 61 6e 54 65: 
             0x000049fc: 73 74 50 61: 
             0x00004a00: 72 65 6e 74: 
             0x00004a04: 2e 6e 73 74: 
             0x00004a08: 61 63 6b 77: 
             0x00004a0c: 6f 72 64 73: 
             0x00004a10: 00 70 72 69: 
             0x00004a14: 6e 74 73 74: 
             0x00004a18: 72 2e 6e 73: 
             0x00004a1c: 74 61 63 6b: 
             0x00004a20: 77 6f 72 64: 
             0x00004a24: 73 00 63 68: 
             0x00004a28: 61 6e 54 65: 
             0x00004a2c: 73 74 50 61: 
             0x00004a30: 72 65 6e 74: 
             0x00004a34: 2e 6d 61 78: 
             0x00004a38: 63 6f 72 65: 
             0x00004a3c: 73 00 70 72: 
             0x00004a40: 69 6e 74 73: 
             0x00004a44: 74 72 2e 6d: 
             0x00004a48: 61 78 63 6f: 
             0x00004a4c: 72 65 73 00: 
             0x00004a50: 63 68 61 6e: 
             0x00004a54: 54 65 73 74: 
             0x00004a58: 50 61 72 65: 
             0x00004a5c: 6e 74 2e 6d: 
             0x00004a60: 61 78 74 69: 
             0x00004a64: 6d 65 72 73: 
             0x00004a68: 00 70 72 69: 
             0x00004a6c: 6e 74 73 74: 
             0x00004a70: 72 2e 6d 61: 
             0x00004a74: 78 74 69 6d: 
             0x00004a78: 65 72 73 00: 
             0x00004a7c: 63 68 61 6e: 
             0x00004a80: 54 65 73 74: 
             0x00004a84: 50 61 72 65: 
             0x00004a88: 6e 74 2e 6d: 
             0x00004a8c: 61 78 63 68: 
             0x00004a90: 61 6e 65 6e: 
             0x00004a94: 64 73 00 70: 
             0x00004a98: 72 69 6e 74: 
             0x00004a9c: 73 74 72 2e: 
             0x00004aa0: 6d 61 78 63: 
             0x00004aa4: 68 61 6e 65: 
             0x00004aa8: 6e 64 73 00: 
             0x00004aac: 63 68 61 6e: 
             0x00004ab0: 54 65 73 74: 
             0x00004ab4: 43 68 69 6c: 
             0x00004ab8: 64 2e 6e 73: 
             0x00004abc: 74 61 63 6b: 
             0x00004ac0: 77 6f 72 64: 
             0x00004ac4: 73 00 63 68: 
             0x00004ac8: 61 6e 54 65: 
             0x00004acc: 73 74 43 68: 
             0x00004ad0: 69 6c 64 2e: 
             0x00004ad4: 6d 61 78 63: 
             0x00004ad8: 6f 72 65 73: 
             0x00004adc: 00 63 68 61: 
             0x00004ae0: 6e 54 65 73: 
             0x00004ae4: 74 43 68 69: 
             0x00004ae8: 6c 64 2e 6d: 
             0x00004aec: 61 78 74 69: 
             0x00004af0: 6d 65 72 73: 
             0x00004af4: 00 63 68 61: 
             0x00004af8: 6e 54 65 73: 
             0x00004afc: 74 43 68 69: 
             0x00004b00: 6c 64 2e 6d: 
             0x00004b04: 61 78 63 68: 
             0x00004b08: 61 6e 65 6e: 
             0x00004b0c: 64 73 00 70: 
             0x00004b10: 72 69 6e 74: 
             0x00004b14: 49 44 2e 6e: 
             0x00004b18: 73 74 61 63: 
             0x00004b1c: 6b 77 6f 72: 
             0x00004b20: 64 73 00 70: 
             0x00004b24: 72 69 6e 74: 
             0x00004b28: 49 44 2e 6d: 
             0x00004b2c: 61 78 63 6f: 
             0x00004b30: 72 65 73 00: 
             0x00004b34: 70 72 69 6e: 
             0x00004b38: 74 49 44 2e: 
             0x00004b3c: 6d 61 78 74: 
             0x00004b40: 69 6d 65 72: 
             0x00004b44: 73 00 70 72: 
             0x00004b48: 69 6e 74 49: 
             0x00004b4c: 44 2e 6d 61: 
             0x00004b50: 78 63 68 61: 
             0x00004b54: 6e 65 6e 64: 
             0x00004b58: 73 00 6e 4f: 
             0x00004b5c: 53 5f 73 74: 
             0x00004b60: 61 72 74 2e: 
             0x00004b64: 63 6f 65 72: 
             0x00004b68: 73 65 64 2e: 
             0x00004b6c: 2e 66 2e 37: 
             0x00004b70: 62 30 2e 37: 
             0x00004b74: 64 2e 32 38: 
             0x00004b78: 63 68 64 2e: 
             0x00004b7c: 32 63 63 68: 
             0x00004b80: 64 2e 32 39: 
             0x00004b84: 00 6e 4f 53: 
             0x00004b88: 5f 73 74 61: 
             0x00004b8c: 72 74 2e 63: 
             0x00004b90: 6f 65 72 73: 
             0x00004b94: 65 64 2e 2e: 
             0x00004b98: 66 2e 37 62: 
             0x00004b9c: 30 2e 37 64: 
             0x00004ba0: 2e 32 38 63: 
             0x00004ba4: 68 64 2e 32: 
             0x00004ba8: 63 63 68 64: 
             0x00004bac: 2e 32 39 2e: 
             0x00004bb0: 6e 73 74 61: 
             0x00004bb4: 63 6b 77 6f: 
             0x00004bb8: 72 64 73 00: 
             0x00004bbc: 53 77 61 6c: 
             0x00004bc0: 6c 6f 77 2d: 
             0x00004bc4: 70 72 69 6d: 
             0x00004bc8: 2e 78 63 00: 
             0x00004bcc: 73 72 61 6e: 
             0x00004bd0: 64 00 70 72: 
             0x00004bd4: 69 6d 5f 63: 
             0x00004bd8: 68 69 6c 64: 
             0x00004bdc: 5f 72 6f 6f: 
             0x00004be0: 74 00 72 61: 
             0x00004be4: 6e 64 00 70: 
             0x00004be8: 72 69 6d 5f: 
             0x00004bec: 63 68 69 6c: 
             0x00004bf0: 64 2e 6c 6f: 
             0x00004bf4: 63 6e 6f 73: 
             0x00004bf8: 69 64 65 00: 
             0x00004bfc: 78 63 5f 63: 
             0x00004c00: 68 65 63 6b: 
             0x00004c04: 5f 65 64 67: 
             0x00004c08: 65 2e 6c 6f: 
             0x00004c0c: 63 6e 6f 73: 
             0x00004c10: 69 64 65 00: 
             0x00004c14: 73 74 61 72: 
             0x00004c18: 74 53 79 6e: 
             0x00004c1c: 63 2e 6c 6f: 
             0x00004c20: 63 6e 6f 63: 
             0x00004c24: 68 61 6e 64: 
             0x00004c28: 65 63 00 70: 
             0x00004c2c: 72 69 6d 5f: 
             0x00004c30: 6d 61 69 6e: 
             0x00004c34: 2e 6c 6f 63: 
             0x00004c38: 6e 6f 63 68: 
             0x00004c3c: 61 6e 64 65: 
             0x00004c40: 63 00 70 72: 
             0x00004c44: 69 6d 5f 63: 
             0x00004c48: 68 69 6c 64: 
             0x00004c4c: 2e 6c 6f 63: 
             0x00004c50: 6e 6f 63 68: 
             0x00004c54: 61 6e 64 65: 
             0x00004c58: 63 00 70 72: 
             0x00004c5c: 69 6d 5f 63: 
             0x00004c60: 68 69 6c 64: 
             0x00004c64: 5f 72 6f 6f: 
             0x00004c68: 74 2e 6c 6f: 
             0x00004c6c: 63 6e 6f 63: 
             0x00004c70: 68 61 6e 64: 
             0x00004c74: 65 63 00 78: 
             0x00004c78: 63 5f 63 68: 
             0x00004c7c: 65 63 6b 5f: 
             0x00004c80: 6d 61 7a 65: 
             0x00004c84: 2e 6c 6f 63: 
             0x00004c88: 6e 6f 63 68: 
             0x00004c8c: 61 6e 64 65: 
             0x00004c90: 63 00 78 63: 
             0x00004c94: 5f 63 68 65: 
             0x00004c98: 63 6b 5f 65: 
             0x00004c9c: 64 67 65 2e: 
             0x00004ca0: 6c 6f 63 6e: 
             0x00004ca4: 6f 63 68 61: 
             0x00004ca8: 6e 64 65 63: 
             0x00004cac: 00 78 63 5f: 
             0x00004cb0: 6c 69 73 74: 
             0x00004cb4: 65 6e 5f 63: 
             0x00004cb8: 68 65 63 6b: 
             0x00004cbc: 5f 77 61 6c: 
             0x00004cc0: 6c 2e 6c 6f: 
             0x00004cc4: 63 6e 6f 63: 
             0x00004cc8: 68 61 6e 64: 
             0x00004ccc: 65 63 00 70: 
             0x00004cd0: 72 69 6d 5f: 
             0x00004cd4: 6d 61 69 6e: 
             0x00004cd8: 2e 6e 73 74: 
             0x00004cdc: 61 63 6b 77: 
             0x00004ce0: 6f 72 64 73: 
             0x00004ce4: 00 70 72 69: 
             0x00004ce8: 6d 5f 6d 61: 
             0x00004cec: 69 6e 2e 6d: 
             0x00004cf0: 61 78 63 6f: 
             0x00004cf4: 72 65 73 00: 
             0x00004cf8: 70 72 69 6d: 
             0x00004cfc: 5f 6d 61 69: 
             0x00004d00: 6e 2e 6d 61: 
             0x00004d04: 78 74 69 6d: 
             0x00004d08: 65 72 73 00: 
             0x00004d0c: 70 72 69 6d: 
             0x00004d10: 5f 6d 61 69: 
             0x00004d14: 6e 2e 6d 61: 
             0x00004d18: 78 63 68 61: 
             0x00004d1c: 6e 65 6e 64: 
             0x00004d20: 73 00 73 74: 
             0x00004d24: 61 72 74 53: 
             0x00004d28: 79 6e 63 2e: 
             0x00004d2c: 6e 73 74 61: 
             0x00004d30: 63 6b 77 6f: 
             0x00004d34: 72 64 73 00: 
             0x00004d38: 73 74 61 72: 
             0x00004d3c: 74 53 79 6e: 
             0x00004d40: 63 2e 6d 61: 
             0x00004d44: 78 63 6f 72: 
             0x00004d48: 65 73 00 73: 
             0x00004d4c: 74 61 72 74: 
             0x00004d50: 53 79 6e 63: 
             0x00004d54: 2e 6d 61 78: 
             0x00004d58: 74 69 6d 65: 
             0x00004d5c: 72 73 00 73: 
             0x00004d60: 74 61 72 74: 
             0x00004d64: 53 79 6e 63: 
             0x00004d68: 2e 6d 61 78: 
             0x00004d6c: 63 68 61 6e: 
             0x00004d70: 65 6e 64 73: 
             0x00004d74: 00 70 72 69: 
             0x00004d78: 6d 5f 63 68: 
             0x00004d7c: 69 6c 64 2e: 
             0x00004d80: 6e 73 74 61: 
             0x00004d84: 63 6b 77 6f: 
             0x00004d88: 72 64 73 00: 
             0x00004d8c: 70 61 72 5f: 
             0x00004d90: 6f 75 74 6c: 
             0x00004d94: 69 6e 65 64: 
             0x00004d98: 2e 31 2e 6e: 
             0x00004d9c: 73 74 61 63: 
             0x00004da0: 6b 77 6f 72: 
             0x00004da4: 64 73 00 70: 
             0x00004da8: 72 69 6d 5f: 
             0x00004dac: 63 68 69 6c: 
             0x00004db0: 64 5f 72 6f: 
             0x00004db4: 6f 74 2e 6e: 
             0x00004db8: 73 74 61 63: 
             0x00004dbc: 6b 77 6f 72: 
             0x00004dc0: 64 73 00 70: 
             0x00004dc4: 72 69 6d 5f: 
             0x00004dc8: 63 68 69 6c: 
             0x00004dcc: 64 2e 6d 61: 
             0x00004dd0: 78 63 6f 72: 
             0x00004dd4: 65 73 00 70: 
             0x00004dd8: 61 72 5f 6f: 
             0x00004ddc: 75 74 6c 69: 
             0x00004de0: 6e 65 64 2e: 
             0x00004de4: 31 2e 6d 61: 
             0x00004de8: 78 63 6f 72: 
             0x00004dec: 65 73 00 70: 
             0x00004df0: 72 69 6d 5f: 
             0x00004df4: 63 68 69 6c: 
             0x00004df8: 64 5f 72 6f: 
             0x00004dfc: 6f 74 2e 6d: 
             0x00004e00: 61 78 63 6f: 
             0x00004e04: 72 65 73 00: 
             0x00004e08: 70 72 69 6d: 
             0x00004e0c: 5f 63 68 69: 
             0x00004e10: 6c 64 2e 6d: 
             0x00004e14: 61 78 74 69: 
             0x00004e18: 6d 65 72 73: 
             0x00004e1c: 00 70 61 72: 
             0x00004e20: 5f 6f 75 74: 
             0x00004e24: 6c 69 6e 65: 
             0x00004e28: 64 2e 31 2e: 
             0x00004e2c: 6d 61 78 74: 
             0x00004e30: 69 6d 65 72: 
             0x00004e34: 73 00 70 72: 
             0x00004e38: 69 6d 5f 63: 
             0x00004e3c: 68 69 6c 64: 
             0x00004e40: 5f 72 6f 6f: 
             0x00004e44: 74 2e 6d 61: 
             0x00004e48: 78 74 69 6d: 
             0x00004e4c: 65 72 73 00: 
             0x00004e50: 70 72 69 6d: 
             0x00004e54: 5f 63 68 69: 
             0x00004e58: 6c 64 2e 6d: 
             0x00004e5c: 61 78 63 68: 
             0x00004e60: 61 6e 65 6e: 
             0x00004e64: 64 73 00 70: 
             0x00004e68: 61 72 5f 6f: 
             0x00004e6c: 75 74 6c 69: 
             0x00004e70: 6e 65 64 2e: 
             0x00004e74: 31 2e 6d 61: 
             0x00004e78: 78 63 68 61: 
             0x00004e7c: 6e 65 6e 64: 
             0x00004e80: 73 00 70 72: 
             0x00004e84: 69 6d 5f 63: 
             0x00004e88: 68 69 6c 64: 
             0x00004e8c: 5f 72 6f 6f: 
             0x00004e90: 74 2e 6d 61: 
             0x00004e94: 78 63 68 61: 
             0x00004e98: 6e 65 6e 64: 
             0x00004e9c: 73 00 73 72: 
             0x00004ea0: 61 6e 64 2e: 
             0x00004ea4: 6e 73 74 61: 
             0x00004ea8: 63 6b 77 6f: 
             0x00004eac: 72 64 73 00: 
             0x00004eb0: 72 61 6e 64: 
             0x00004eb4: 2e 6e 73 74: 
             0x00004eb8: 61 63 6b 77: 
             0x00004ebc: 6f 72 64 73: 
             0x00004ec0: 00 72 61 6e: 
             0x00004ec4: 64 2e 6d 61: 
             0x00004ec8: 78 63 6f 72: 
             0x00004ecc: 65 73 00 73: 
             0x00004ed0: 72 61 6e 64: 
             0x00004ed4: 2e 6d 61 78: 
             0x00004ed8: 63 6f 72 65: 
             0x00004edc: 73 00 72 61: 
             0x00004ee0: 6e 64 2e 6d: 
             0x00004ee4: 61 78 74 69: 
             0x00004ee8: 6d 65 72 73: 
             0x00004eec: 00 73 72 61: 
             0x00004ef0: 6e 64 2e 6d: 
             0x00004ef4: 61 78 74 69: 
             0x00004ef8: 6d 65 72 73: 
             0x00004efc: 00 72 61 6e: 
             0x00004f00: 64 2e 6d 61: 
             0x00004f04: 78 63 68 61: 
             0x00004f08: 6e 65 6e 64: 
             0x00004f0c: 73 00 73 72: 
             0x00004f10: 61 6e 64 2e: 
             0x00004f14: 6d 61 78 63: 
             0x00004f18: 68 61 6e 65: 
             0x00004f1c: 6e 64 73 00: 
             0x00004f20: 70 61 72 5f: 
             0x00004f24: 6f 75 74 6c: 
             0x00004f28: 69 6e 65 64: 
             0x00004f2c: 2e 31 00 5f: 
             0x00004f30: 5f 63 68 69: 
             0x00004f34: 6c 64 5f 63: 
             0x00004f38: 6c 65 61 6e: 
             0x00004f3c: 75 70 00 63: 
             0x00004f40: 68 65 63 6b: 
             0x00004f44: 5f 6d 61 7a: 
             0x00004f48: 65 2e 63 6f: 
             0x00004f4c: 65 72 73 65: 
             0x00004f50: 64 2e 2e 66: 
             0x00004f54: 2e 37 62 75: 
             0x00004f58: 69 2e 37 64: 
             0x00004f5c: 2e 32 38 75: 
             0x00004f60: 69 2e 32 63: 
             0x00004f64: 2e 32 36 2e: 
             0x00004f68: 32 38 61 2e: 
             0x00004f6c: 32 38 2e 33: 
             0x00004f70: 61 61 2e 32: 
             0x00004f74: 38 31 30 2e: 
             0x00004f78: 33 61 75 69: 
             0x00004f7c: 2e 32 39 2e: 
             0x00004f80: 32 39 2e 32: 
             0x00004f84: 39 2e 32 63: 
             0x00004f88: 75 69 2e 32: 
             0x00004f8c: 63 75 69 2e: 
             0x00004f90: 32 63 75 69: 
             0x00004f94: 2e 32 63 75: 
             0x00004f98: 69 2e 32 63: 
             0x00004f9c: 75 69 2e 32: 
             0x00004fa0: 39 00 63 68: 
             0x00004fa4: 65 63 6b 5f: 
             0x00004fa8: 6d 61 7a 65: 
             0x00004fac: 2e 63 6f 65: 
             0x00004fb0: 72 73 65 64: 
             0x00004fb4: 2e 2e 66 2e: 
             0x00004fb8: 37 62 75 69: 
             0x00004fbc: 2e 37 64 2e: 
             0x00004fc0: 32 38 75 69: 
             0x00004fc4: 2e 32 63 2e: 
             0x00004fc8: 32 36 2e 32: 
             0x00004fcc: 38 61 2e 32: 
             0x00004fd0: 38 2e 33 61: 
             0x00004fd4: 61 2e 32 38: 
             0x00004fd8: 31 30 2e 33: 
             0x00004fdc: 61 75 69 2e: 
             0x00004fe0: 32 39 2e 32: 
             0x00004fe4: 39 2e 32 39: 
             0x00004fe8: 2e 32 63 75: 
             0x00004fec: 69 2e 32 63: 
             0x00004ff0: 75 69 2e 32: 
             0x00004ff4: 63 75 69 2e: 
             0x00004ff8: 32 63 75 69: 
             0x00004ffc: 2e 32 63 75: 
             0x00005000: 69 2e 32 39: 
             0x00005004: 2e 6e 73 74: 
             0x00005008: 61 63 6b 77: 
             0x0000500c: 6f 72 64 73: 
             0x00005010: 00 78 63 5f: 
             0x00005014: 6c 69 73 74: 
             0x00005018: 65 6e 5f 63: 
             0x0000501c: 68 65 63 6b: 
             0x00005020: 5f 77 61 6c: 
             0x00005024: 6c 2e 63 6f: 
             0x00005028: 65 72 73 65: 
             0x0000502c: 64 2e 2e 66: 
             0x00005030: 2e 37 62 30: 
             0x00005034: 2e 37 64 2e: 
             0x00005038: 32 38 75 69: 
             0x0000503c: 2e 32 63 2e: 
             0x00005040: 32 36 2e 32: 
             0x00005044: 38 61 2e 32: 
             0x00005048: 38 2e 33 61: 
             0x0000504c: 61 2e 32 38: 
             0x00005050: 31 30 2e 33: 
             0x00005054: 61 75 69 2e: 
             0x00005058: 32 39 2e 32: 
             0x0000505c: 39 2e 32 39: 
             0x00005060: 2e 32 63 2e: 
             0x00005064: 32 36 2e 32: 
             0x00005068: 38 61 2e 32: 
             0x0000506c: 38 2e 33 61: 
             0x00005070: 75 69 2e 32: 
             0x00005074: 39 2e 32 39: 
             0x00005078: 2e 32 63 63: 
             0x0000507c: 68 64 2e 32: 
             0x00005080: 63 63 68 64: 
             0x00005084: 2e 32 63 63: 
             0x00005088: 68 64 2e 32: 
             0x0000508c: 63 63 68 64: 
             0x00005090: 2e 32 39 00: 
             0x00005094: 78 63 5f 6c: 
             0x00005098: 69 73 74 65: 
             0x0000509c: 6e 5f 63 68: 
             0x000050a0: 65 63 6b 5f: 
             0x000050a4: 77 61 6c 6c: 
             0x000050a8: 2e 63 6f 65: 
             0x000050ac: 72 73 65 64: 
             0x000050b0: 2e 2e 66 2e: 
             0x000050b4: 37 62 30 2e: 
             0x000050b8: 37 64 2e 32: 
             0x000050bc: 38 75 69 2e: 
             0x000050c0: 32 63 2e 32: 
             0x000050c4: 36 2e 32 38: 
             0x000050c8: 61 2e 32 38: 
             0x000050cc: 2e 33 61 61: 
             0x000050d0: 2e 32 38 31: 
             0x000050d4: 30 2e 33 61: 
             0x000050d8: 75 69 2e 32: 
             0x000050dc: 39 2e 32 39: 
             0x000050e0: 2e 32 39 2e: 
             0x000050e4: 32 63 2e 32: 
             0x000050e8: 36 2e 32 38: 
             0x000050ec: 61 2e 32 38: 
             0x000050f0: 2e 33 61 75: 
             0x000050f4: 69 2e 32 39: 
             0x000050f8: 2e 32 39 2e: 
             0x000050fc: 32 63 63 68: 
             0x00005100: 64 2e 32 63: 
             0x00005104: 63 68 64 2e: 
             0x00005108: 32 63 63 68: 
             0x0000510c: 64 2e 32 63: 
             0x00005110: 63 68 64 2e: 
             0x00005114: 32 39 2e 6e: 
             0x00005118: 73 74 61 63: 
             0x0000511c: 6b 77 6f 72: 
             0x00005120: 64 73 00 78: 
             0x00005124: 63 5f 63 68: 
             0x00005128: 65 63 6b 5f: 
             0x0000512c: 6d 61 7a 65: 
             0x00005130: 2e 63 6f 65: 
             0x00005134: 72 73 65 64: 
             0x00005138: 2e 2e 66 2e: 
             0x0000513c: 37 62 75 69: 
             0x00005140: 2e 37 64 2e: 
             0x00005144: 32 38 75 69: 
             0x00005148: 2e 32 63 2e: 
             0x0000514c: 32 36 2e 32: 
             0x00005150: 38 61 2e 32: 
             0x00005154: 38 2e 33 61: 
             0x00005158: 61 2e 32 38: 
             0x0000515c: 31 30 2e 33: 
             0x00005160: 61 75 69 2e: 
             0x00005164: 32 39 2e 32: 
             0x00005168: 39 2e 32 39: 
             0x0000516c: 2e 32 63 75: 
             0x00005170: 69 2e 32 63: 
             0x00005174: 75 69 2e 32: 
             0x00005178: 63 75 69 2e: 
             0x0000517c: 32 63 75 69: 
             0x00005180: 2e 32 63 75: 
             0x00005184: 69 2e 32 39: 
             0x00005188: 00 78 63 5f: 
             0x0000518c: 63 68 65 63: 
             0x00005190: 6b 5f 6d 61: 
             0x00005194: 7a 65 2e 63: 
             0x00005198: 6f 65 72 73: 
             0x0000519c: 65 64 2e 2e: 
             0x000051a0: 66 2e 37 62: 
             0x000051a4: 75 69 2e 37: 
             0x000051a8: 64 2e 32 38: 
             0x000051ac: 75 69 2e 32: 
             0x000051b0: 63 2e 32 36: 
             0x000051b4: 2e 32 38 61: 
             0x000051b8: 2e 32 38 2e: 
             0x000051bc: 33 61 61 2e: 
             0x000051c0: 32 38 31 30: 
             0x000051c4: 2e 33 61 75: 
             0x000051c8: 69 2e 32 39: 
             0x000051cc: 2e 32 39 2e: 
             0x000051d0: 32 39 2e 32: 
             0x000051d4: 63 75 69 2e: 
             0x000051d8: 32 63 75 69: 
             0x000051dc: 2e 32 63 75: 
             0x000051e0: 69 2e 32 63: 
             0x000051e4: 75 69 2e 32: 
             0x000051e8: 63 75 69 2e: 
             0x000051ec: 32 39 2e 6e: 
             0x000051f0: 73 74 61 63: 
             0x000051f4: 6b 77 6f 72: 
             0x000051f8: 64 73 00 65: 
             0x000051fc: 78 63 65 70: 
             0x00005200: 74 69 6f 6e: 
             0x00005204: 2e 53 00 5f: 
             0x00005208: 44 6f 45 78: 
             0x0000520c: 63 65 70 74: 
             0x00005210: 69 6f 6e 2e: 
             0x00005214: 6c 6f 63 6e: 
             0x00005218: 6f 63 68 61: 
             0x0000521c: 6e 64 65 63: 
             0x00005220: 00 5f 44 6f: 
             0x00005224: 45 78 63 65: 
             0x00005228: 70 74 69 6f: 
             0x0000522c: 6e 2e 6e 73: 
             0x00005230: 74 61 63 6b: 
             0x00005234: 77 6f 72 64: 
             0x00005238: 73 00 5f 44: 
             0x0000523c: 6f 45 78 63: 
             0x00005240: 65 70 74 69: 
             0x00005244: 6f 6e 2e 6d: 
             0x00005248: 61 78 63 68: 
             0x0000524c: 61 6e 65 6e: 
             0x00005250: 64 73 00 5f: 
             0x00005254: 44 6f 45 78: 
             0x00005258: 63 65 70 74: 
             0x0000525c: 69 6f 6e 2e: 
             0x00005260: 6d 61 78 74: 
             0x00005264: 69 6d 65 72: 
             0x00005268: 73 00 5f 44: 
             0x0000526c: 6f 45 78 63: 
             0x00005270: 65 70 74 69: 
             0x00005274: 6f 6e 2e 6d: 
             0x00005278: 61 78 63 6f: 
             0x0000527c: 72 65 73 00: 
             0x00005280: 67 65 74 69: 
             0x00005284: 64 2e 63 00: 
             0x00005288: 5f 5f 62 75: 
             0x0000528c: 69 6c 74 69: 
             0x00005290: 6e 5f 67 65: 
             0x00005294: 74 69 64 2e: 
             0x00005298: 6c 6f 63 6e: 
             0x0000529c: 6f 73 69 64: 
             0x000052a0: 65 00 5f 5f: 
             0x000052a4: 62 75 69 6c: 
             0x000052a8: 74 69 6e 5f: 
             0x000052ac: 67 65 74 69: 
             0x000052b0: 64 2e 6c 6f: 
             0x000052b4: 63 6e 6f 63: 
             0x000052b8: 68 61 6e 64: 
             0x000052bc: 65 63 00 5f: 
             0x000052c0: 5f 63 68 69: 
             0x000052c4: 6c 64 5f 63: 
             0x000052c8: 6c 65 61 6e: 
             0x000052cc: 75 70 2e 53: 
             0x000052d0: 00 5f 5f 63: 
             0x000052d4: 68 69 6c 64: 
             0x000052d8: 5f 63 6c 65: 
             0x000052dc: 61 6e 75 70: 
             0x000052e0: 2e 6e 73 74: 
             0x000052e4: 61 63 6b 77: 
             0x000052e8: 6f 72 64 73: 
             0x000052ec: 00 5f 5f 63: 
             0x000052f0: 68 69 6c 64: 
             0x000052f4: 5f 63 6c 65: 
             0x000052f8: 61 6e 75 70: 
             0x000052fc: 2e 6d 61 78: 
             0x00005300: 63 68 61 6e: 
             0x00005304: 65 6e 64 73: 
             0x00005308: 00 5f 5f 63: 
             0x0000530c: 68 69 6c 64: 
             0x00005310: 5f 63 6c 65: 
             0x00005314: 61 6e 75 70: 
             0x00005318: 2e 6d 61 78: 
             0x0000531c: 74 69 6d 65: 
             0x00005320: 72 73 00 5f: 
             0x00005324: 5f 63 68 69: 
             0x00005328: 6c 64 5f 63: 
             0x0000532c: 6c 65 61 6e: 
             0x00005330: 75 70 2e 6d: 
             0x00005334: 61 78 63 6f: 
             0x00005338: 72 65 73 00: 
             0x0000533c: 2e 2e 2f 2e: 
             0x00005340: 2e 2f 2e 2e: 
             0x00005344: 2f 2e 2e 2f: 
             0x00005348: 2e 2e 2f 2e: 
             0x0000534c: 2e 2f 73 72: 
             0x00005350: 63 2f 6e 65: 
             0x00005354: 77 6c 69 62: 
             0x00005358: 2f 6c 69 62: 
             0x0000535c: 63 2f 6d 61: 
             0x00005360: 63 68 69 6e: 
             0x00005364: 65 2f 78 63: 
             0x00005368: 6f 72 65 2f: 
             0x0000536c: 64 6f 6e 65: 
             0x00005370: 2e 63 00 5f: 
             0x00005374: 5f 6c 69 62: 
             0x00005378: 63 5f 64 6f: 
             0x0000537c: 6e 65 2e 6c: 
             0x00005380: 6f 63 6e 6f: 
             0x00005384: 73 69 64 65: 
             0x00005388: 00 5f 5f 6c: 
             0x0000538c: 69 62 63 5f: 
             0x00005390: 64 6f 6e 65: 
             0x00005394: 2e 6c 6f 63: 
             0x00005398: 6e 6f 63 68: 
             0x0000539c: 61 6e 64 65: 
             0x000053a0: 63 00 5f 5f: 
             0x000053a4: 63 61 6c 6c: 
             0x000053a8: 5f 65 78 69: 
             0x000053ac: 74 70 72 6f: 
             0x000053b0: 63 73 2e 6e: 
             0x000053b4: 73 74 61 63: 
             0x000053b8: 6b 77 6f 72: 
             0x000053bc: 64 73 00 5f: 
             0x000053c0: 63 6c 65 61: 
             0x000053c4: 6e 75 70 2e: 
             0x000053c8: 6e 73 74 61: 
             0x000053cc: 63 6b 77 6f: 
             0x000053d0: 72 64 73 00: 
             0x000053d4: 5f 64 6f 6e: 
             0x000053d8: 65 2e 6e 73: 
             0x000053dc: 74 61 63 6b: 
             0x000053e0: 77 6f 72 64: 
             0x000053e4: 73 00 5f 5f: 
             0x000053e8: 63 61 6c 6c: 
             0x000053ec: 5f 65 78 69: 
             0x000053f0: 74 70 72 6f: 
             0x000053f4: 63 73 2e 6d: 
             0x000053f8: 61 78 63 6f: 
             0x000053fc: 72 65 73 00: 
             0x00005400: 5f 63 6c 65: 
             0x00005404: 61 6e 75 70: 
             0x00005408: 2e 6d 61 78: 
             0x0000540c: 63 6f 72 65: 
             0x00005410: 73 00 5f 64: 
             0x00005414: 6f 6e 65 2e: 
             0x00005418: 6d 61 78 63: 
             0x0000541c: 6f 72 65 73: 
             0x00005420: 00 5f 5f 63: 
             0x00005424: 61 6c 6c 5f: 
             0x00005428: 65 78 69 74: 
             0x0000542c: 70 72 6f 63: 
             0x00005430: 73 2e 6d 61: 
             0x00005434: 78 74 69 6d: 
             0x00005438: 65 72 73 00: 
             0x0000543c: 5f 63 6c 65: 
             0x00005440: 61 6e 75 70: 
             0x00005444: 2e 6d 61 78: 
             0x00005448: 74 69 6d 65: 
             0x0000544c: 72 73 00 5f: 
             0x00005450: 64 6f 6e 65: 
             0x00005454: 2e 6d 61 78: 
             0x00005458: 74 69 6d 65: 
             0x0000545c: 72 73 00 5f: 
             0x00005460: 5f 63 61 6c: 
             0x00005464: 6c 5f 65 78: 
             0x00005468: 69 74 70 72: 
             0x0000546c: 6f 63 73 2e: 
             0x00005470: 6d 61 78 63: 
             0x00005474: 68 61 6e 65: 
             0x00005478: 6e 64 73 00: 
             0x0000547c: 5f 63 6c 65: 
             0x00005480: 61 6e 75 70: 
             0x00005484: 2e 6d 61 78: 
             0x00005488: 63 68 61 6e: 
             0x0000548c: 65 6e 64 73: 
             0x00005490: 00 5f 64 6f: 
             0x00005494: 6e 65 2e 6d: 
             0x00005498: 61 78 63 68: 
             0x0000549c: 61 6e 65 6e: 
             0x000054a0: 64 73 00 5f: 
             0x000054a4: 5f 63 61 6c: 
             0x000054a8: 6c 5f 65 78: 
             0x000054ac: 69 74 70 72: 
             0x000054b0: 6f 63 73 00: 
             0x000054b4: 5f 63 6c 65: 
             0x000054b8: 61 6e 75 70: 
             0x000054bc: 00 5f 64 6f: 
             0x000054c0: 6e 65 00 65: 
             0x000054c4: 78 69 74 2e: 
             0x000054c8: 53 00 5f 65: 
             0x000054cc: 78 69 74 2e: 
             0x000054d0: 6c 6f 63 6e: 
             0x000054d4: 6f 63 68 61: 
             0x000054d8: 6e 64 65 63: 
             0x000054dc: 00 5f 65 78: 
             0x000054e0: 69 74 2e 6e: 
             0x000054e4: 73 74 61 63: 
             0x000054e8: 6b 77 6f 72: 
             0x000054ec: 64 73 00 5f: 
             0x000054f0: 65 78 69 74: 
             0x000054f4: 2e 6d 61 78: 
             0x000054f8: 63 68 61 6e: 
             0x000054fc: 65 6e 64 73: 
             0x00005500: 00 5f 65 78: 
             0x00005504: 69 74 2e 6d: 
             0x00005508: 61 78 74 69: 
             0x0000550c: 6d 65 72 73: 
             0x00005510: 00 5f 65 78: 
             0x00005514: 69 74 2e 6d: 
             0x00005518: 61 78 63 6f: 
             0x0000551c: 72 65 73 00: 
             0x00005520: 5f 44 6f 53: 
             0x00005524: 79 73 63 61: 
             0x00005528: 6c 6c 2e 6e: 
             0x0000552c: 73 74 61 63: 
             0x00005530: 6b 77 6f 72: 
             0x00005534: 64 73 00 5f: 
             0x00005538: 44 6f 53 79: 
             0x0000553c: 73 63 61 6c: 
             0x00005540: 6c 2e 6d 61: 
             0x00005544: 78 63 68 61: 
             0x00005548: 6e 65 6e 64: 
             0x0000554c: 73 00 5f 44: 
             0x00005550: 6f 53 79 73: 
             0x00005554: 63 61 6c 6c: 
             0x00005558: 2e 6d 61 78: 
             0x0000555c: 74 69 6d 65: 
             0x00005560: 72 73 00 5f: 
             0x00005564: 44 6f 53 79: 
             0x00005568: 73 63 61 6c: 
             0x0000556c: 6c 2e 6d 61: 
             0x00005570: 78 63 6f 72: 
             0x00005574: 65 73 00 5f: 
             0x00005578: 44 6f 53 79: 
             0x0000557c: 73 63 61 6c: 
             0x00005580: 6c 00 2e 2e: 
             0x00005584: 2f 2e 2e 2f: 
             0x00005588: 2e 2e 2f 2e: 
             0x0000558c: 2e 2f 2e 2e: 
             0x00005590: 2f 2e 2e 2f: 
             0x00005594: 73 72 63 2f: 
             0x00005598: 6e 65 77 6c: 
             0x0000559c: 69 62 2f 6c: 
             0x000055a0: 69 62 63 2f: 
             0x000055a4: 6d 61 63 68: 
             0x000055a8: 69 6e 65 2f: 
             0x000055ac: 78 63 6f 72: 
             0x000055b0: 65 2f 65 78: 
             0x000055b4: 69 74 2e 63: 
             0x000055b8: 00 5f 65 78: 
             0x000055bc: 69 74 5f 75: 
             0x000055c0: 6e 6c 6f 63: 
             0x000055c4: 6b 65 64 2e: 
             0x000055c8: 6c 6f 63 6e: 
             0x000055cc: 6f 73 69 64: 
             0x000055d0: 65 00 5f 65: 
             0x000055d4: 78 69 74 5f: 
             0x000055d8: 75 6e 6c 6f: 
             0x000055dc: 63 6b 65 64: 
             0x000055e0: 2e 6c 6f 63: 
             0x000055e4: 6e 6f 63 68: 
             0x000055e8: 61 6e 64 65: 
             0x000055ec: 63 00 65 78: 
             0x000055f0: 69 74 2e 6c: 
             0x000055f4: 6f 63 6e 6f: 
             0x000055f8: 73 69 64 65: 
             0x000055fc: 00 65 78 69: 
             0x00005600: 74 2e 6c 6f: 
             0x00005604: 63 6e 6f 63: 
             0x00005608: 68 61 6e 64: 
             0x0000560c: 65 63 00 5f: 
             0x00005610: 5f 73 70 69: 
             0x00005614: 6e 5f 6c 6f: 
             0x00005618: 63 6b 5f 74: 
             0x0000561c: 72 79 5f 61: 
             0x00005620: 63 71 75 69: 
             0x00005624: 72 65 2e 6e: 
             0x00005628: 73 74 61 63: 
             0x0000562c: 6b 77 6f 72: 
             0x00005630: 64 73 00 5f: 
             0x00005634: 5f 73 70 69: 
             0x00005638: 6e 5f 6c 6f: 
             0x0000563c: 63 6b 5f 74: 
             0x00005640: 72 79 5f 61: 
             0x00005644: 63 71 75 69: 
             0x00005648: 72 65 2e 6d: 
             0x0000564c: 61 78 63 6f: 
             0x00005650: 72 65 73 00: 
             0x00005654: 5f 5f 73 70: 
             0x00005658: 69 6e 5f 6c: 
             0x0000565c: 6f 63 6b 5f: 
             0x00005660: 74 72 79 5f: 
             0x00005664: 61 63 71 75: 
             0x00005668: 69 72 65 2e: 
             0x0000566c: 6d 61 78 74: 
             0x00005670: 69 6d 65 72: 
             0x00005674: 73 00 5f 5f: 
             0x00005678: 73 70 69 6e: 
             0x0000567c: 5f 6c 6f 63: 
             0x00005680: 6b 5f 74 72: 
             0x00005684: 79 5f 61 63: 
             0x00005688: 71 75 69 72: 
             0x0000568c: 65 2e 6d 61: 
             0x00005690: 78 63 68 61: 
             0x00005694: 6e 65 6e 64: 
             0x00005698: 73 00 5f 5f: 
             0x0000569c: 65 78 69 74: 
             0x000056a0: 5f 6c 6f 63: 
             0x000056a4: 6b 00 5f 5f: 
             0x000056a8: 73 70 69 6e: 
             0x000056ac: 5f 6c 6f 63: 
             0x000056b0: 6b 5f 74 72: 
             0x000056b4: 79 5f 61 63: 
             0x000056b8: 71 75 69 72: 
             0x000056bc: 65 00 78 73: 
             0x000056c0: 63 6f 70 65: 
             0x000056c4: 5f 61 70 69: 
             0x000056c8: 5f 78 6c 69: 
             0x000056cc: 6e 6b 2e 63: 
             0x000056d0: 00 78 73 63: 
             0x000056d4: 6f 70 65 5f: 
             0x000056d8: 63 6f 6e 66: 
             0x000056dc: 69 67 5f 69: 
             0x000056e0: 6f 2e 6c 6f: 
             0x000056e4: 63 6e 6f 73: 
             0x000056e8: 69 64 65 00: 
             0x000056ec: 78 73 63 6f: 
             0x000056f0: 70 65 5f 63: 
             0x000056f4: 6f 6e 66 69: 
             0x000056f8: 67 5f 69 6f: 
             0x000056fc: 2e 6c 6f 63: 
             0x00005700: 6e 6f 63 68: 
             0x00005704: 61 6e 64 65: 
             0x00005708: 63 00 78 73: 
             0x0000570c: 63 6f 70 65: 
             0x00005710: 5f 73 65 74: 
             0x00005714: 5f 72 65 67: 
             0x00005718: 69 73 74 65: 
             0x0000571c: 72 5f 6c 6f: 
             0x00005720: 63 61 74 69: 
             0x00005724: 6f 6e 2e 6c: 
             0x00005728: 6f 63 6e 6f: 
             0x0000572c: 73 69 64 65: 
             0x00005730: 00 78 73 63: 
             0x00005734: 6f 70 65 5f: 
             0x00005738: 73 65 74 5f: 
             0x0000573c: 72 65 67 69: 
             0x00005740: 73 74 65 72: 
             0x00005744: 5f 6c 6f 63: 
             0x00005748: 61 74 69 6f: 
             0x0000574c: 6e 2e 6c 6f: 
             0x00005750: 63 6e 6f 63: 
             0x00005754: 68 61 6e 64: 
             0x00005758: 65 63 00 78: 
             0x0000575c: 73 63 6f 70: 
             0x00005760: 65 5f 6f 75: 
             0x00005764: 74 70 75 74: 
             0x00005768: 5f 64 61 74: 
             0x0000576c: 61 2e 6c 6f: 
             0x00005770: 63 6e 6f 73: 
             0x00005774: 69 64 65 00: 
             0x00005778: 78 73 63 6f: 
             0x0000577c: 70 65 5f 6f: 
             0x00005780: 75 74 70 75: 
             0x00005784: 74 5f 64 61: 
             0x00005788: 74 61 00 78: 
             0x0000578c: 73 63 6f 70: 
             0x00005790: 65 5f 6f 75: 
             0x00005794: 74 70 75 74: 
             0x00005798: 5f 64 61 74: 
             0x0000579c: 61 2e 6c 6f: 
             0x000057a0: 63 6e 6f 63: 
             0x000057a4: 68 61 6e 64: 
             0x000057a8: 65 63 00 5f: 
             0x000057ac: 77 72 69 74: 
             0x000057b0: 65 2e 6c 6f: 
             0x000057b4: 63 6e 6f 73: 
             0x000057b8: 69 64 65 00: 
             0x000057bc: 5f 77 72 69: 
             0x000057c0: 74 65 2e 6c: 
             0x000057c4: 6f 63 6e 6f: 
             0x000057c8: 63 68 61 6e: 
             0x000057cc: 64 65 63 00: 
             0x000057d0: 78 73 63 6f: 
             0x000057d4: 70 65 5f 72: 
             0x000057d8: 65 67 69 73: 
             0x000057dc: 74 65 72 2e: 
             0x000057e0: 6c 6f 63 6e: 
             0x000057e4: 6f 73 69 64: 
             0x000057e8: 65 00 78 73: 
             0x000057ec: 63 6f 70 65: 
             0x000057f0: 5f 72 65 67: 
             0x000057f4: 69 73 74 65: 
             0x000057f8: 72 2e 6c 6f: 
             0x000057fc: 63 6e 6f 63: 
             0x00005800: 68 61 6e 64: 
             0x00005804: 65 63 00 78: 
             0x00005808: 73 63 6f 70: 
             0x0000580c: 65 5f 63 6f: 
             0x00005810: 6e 66 69 67: 
             0x00005814: 5f 69 6f 2e: 
             0x00005818: 6e 73 74 61: 
             0x0000581c: 63 6b 77 6f: 
             0x00005820: 72 64 73 00: 
             0x00005824: 78 73 63 6f: 
             0x00005828: 70 65 5f 63: 
             0x0000582c: 6f 6e 66 69: 
             0x00005830: 67 5f 69 6f: 
             0x00005834: 2e 6d 61 78: 
             0x00005838: 63 6f 72 65: 
             0x0000583c: 73 00 78 73: 
             0x00005840: 63 6f 70 65: 
             0x00005844: 5f 63 6f 6e: 
             0x00005848: 66 69 67 5f: 
             0x0000584c: 69 6f 2e 6d: 
             0x00005850: 61 78 74 69: 
             0x00005854: 6d 65 72 73: 
             0x00005858: 00 78 73 63: 
             0x0000585c: 6f 70 65 5f: 
             0x00005860: 63 6f 6e 66: 
             0x00005864: 69 67 5f 69: 
             0x00005868: 6f 2e 6d 61: 
             0x0000586c: 78 63 68 61: 
             0x00005870: 6e 65 6e 64: 
             0x00005874: 73 00 78 73: 
             0x00005878: 63 6f 70 65: 
             0x0000587c: 5f 73 65 74: 
             0x00005880: 5f 72 65 67: 
             0x00005884: 69 73 74 65: 
             0x00005888: 72 5f 6c 6f: 
             0x0000588c: 63 61 74 69: 
             0x00005890: 6f 6e 2e 6e: 
             0x00005894: 73 74 61 63: 
             0x00005898: 6b 77 6f 72: 
             0x0000589c: 64 73 00 78: 
             0x000058a0: 73 63 6f 70: 
             0x000058a4: 65 5f 73 65: 
             0x000058a8: 74 5f 72 65: 
             0x000058ac: 67 69 73 74: 
             0x000058b0: 65 72 5f 6c: 
             0x000058b4: 6f 63 61 74: 
             0x000058b8: 69 6f 6e 2e: 
             0x000058bc: 6d 61 78 63: 
             0x000058c0: 6f 72 65 73: 
             0x000058c4: 00 78 73 63: 
             0x000058c8: 6f 70 65 5f: 
             0x000058cc: 73 65 74 5f: 
             0x000058d0: 72 65 67 69: 
             0x000058d4: 73 74 65 72: 
             0x000058d8: 5f 6c 6f 63: 
             0x000058dc: 61 74 69 6f: 
             0x000058e0: 6e 2e 6d 61: 
             0x000058e4: 78 74 69 6d: 
             0x000058e8: 65 72 73 00: 
             0x000058ec: 78 73 63 6f: 
             0x000058f0: 70 65 5f 73: 
             0x000058f4: 65 74 5f 72: 
             0x000058f8: 65 67 69 73: 
             0x000058fc: 74 65 72 5f: 
             0x00005900: 6c 6f 63 61: 
             0x00005904: 74 69 6f 6e: 
             0x00005908: 2e 6d 61 78: 
             0x0000590c: 63 68 61 6e: 
             0x00005910: 65 6e 64 73: 
             0x00005914: 00 78 73 63: 
             0x00005918: 6f 70 65 5f: 
             0x0000591c: 6f 75 74 70: 
             0x00005920: 75 74 5f 64: 
             0x00005924: 61 74 61 2e: 
             0x00005928: 6e 73 74 61: 
             0x0000592c: 63 6b 77 6f: 
             0x00005930: 72 64 73 00: 
             0x00005934: 78 73 63 6f: 
             0x00005938: 70 65 5f 67: 
             0x0000593c: 65 74 74 69: 
             0x00005940: 6d 65 2e 6e: 
             0x00005944: 73 74 61 63: 
             0x00005948: 6b 77 6f 72: 
             0x0000594c: 64 73 00 78: 
             0x00005950: 73 63 6f 70: 
             0x00005954: 65 5f 78 6c: 
             0x00005958: 69 6e 6b 5f: 
             0x0000595c: 70 75 74 5f: 
             0x00005960: 63 74 2e 6e: 
             0x00005964: 73 74 61 63: 
             0x00005968: 6b 77 6f 72: 
             0x0000596c: 64 73 00 78: 
             0x00005970: 73 63 6f 70: 
             0x00005974: 65 5f 78 6c: 
             0x00005978: 69 6e 6b 5f: 
             0x0000597c: 70 75 74 5f: 
             0x00005980: 63 68 2e 6e: 
             0x00005984: 73 74 61 63: 
             0x00005988: 6b 77 6f 72: 
             0x0000598c: 64 73 00 78: 
             0x00005990: 73 63 6f 70: 
             0x00005994: 65 5f 6f 75: 
             0x00005998: 74 70 75 74: 
             0x0000599c: 5f 64 61 74: 
             0x000059a0: 61 2e 6d 61: 
             0x000059a4: 78 63 6f 72: 
             0x000059a8: 65 73 00 78: 
             0x000059ac: 73 63 6f 70: 
             0x000059b0: 65 5f 67 65: 
             0x000059b4: 74 74 69 6d: 
             0x000059b8: 65 2e 6d 61: 
             0x000059bc: 78 63 6f 72: 
             0x000059c0: 65 73 00 78: 
             0x000059c4: 73 63 6f 70: 
             0x000059c8: 65 5f 78 6c: 
             0x000059cc: 69 6e 6b 5f: 
             0x000059d0: 70 75 74 5f: 
             0x000059d4: 63 68 2e 6d: 
             0x000059d8: 61 78 63 6f: 
             0x000059dc: 72 65 73 00: 
             0x000059e0: 78 73 63 6f: 
             0x000059e4: 70 65 5f 78: 
             0x000059e8: 6c 69 6e 6b: 
             0x000059ec: 5f 70 75 74: 
             0x000059f0: 5f 63 74 2e: 
             0x000059f4: 6d 61 78 63: 
             0x000059f8: 6f 72 65 73: 
             0x000059fc: 00 78 73 63: 
             0x00005a00: 6f 70 65 5f: 
             0x00005a04: 6f 75 74 70: 
             0x00005a08: 75 74 5f 64: 
             0x00005a0c: 61 74 61 2e: 
             0x00005a10: 6d 61 78 74: 
             0x00005a14: 69 6d 65 72: 
             0x00005a18: 73 00 78 73: 
             0x00005a1c: 63 6f 70 65: 
             0x00005a20: 5f 67 65 74: 
             0x00005a24: 74 69 6d 65: 
             0x00005a28: 2e 6d 61 78: 
             0x00005a2c: 74 69 6d 65: 
             0x00005a30: 72 73 00 78: 
             0x00005a34: 73 63 6f 70: 
             0x00005a38: 65 5f 78 6c: 
             0x00005a3c: 69 6e 6b 5f: 
             0x00005a40: 70 75 74 5f: 
             0x00005a44: 63 68 2e 6d: 
             0x00005a48: 61 78 74 69: 
             0x00005a4c: 6d 65 72 73: 
             0x00005a50: 00 78 73 63: 
             0x00005a54: 6f 70 65 5f: 
             0x00005a58: 78 6c 69 6e: 
             0x00005a5c: 6b 5f 70 75: 
             0x00005a60: 74 5f 63 74: 
             0x00005a64: 2e 6d 61 78: 
             0x00005a68: 74 69 6d 65: 
             0x00005a6c: 72 73 00 78: 
             0x00005a70: 73 63 6f 70: 
             0x00005a74: 65 5f 6f 75: 
             0x00005a78: 74 70 75 74: 
             0x00005a7c: 5f 64 61 74: 
             0x00005a80: 61 2e 6d 61: 
             0x00005a84: 78 63 68 61: 
             0x00005a88: 6e 65 6e 64: 
             0x00005a8c: 73 00 78 73: 
             0x00005a90: 63 6f 70 65: 
             0x00005a94: 5f 67 65 74: 
             0x00005a98: 74 69 6d 65: 
             0x00005a9c: 2e 6d 61 78: 
             0x00005aa0: 63 68 61 6e: 
             0x00005aa4: 65 6e 64 73: 
             0x00005aa8: 00 78 73 63: 
             0x00005aac: 6f 70 65 5f: 
             0x00005ab0: 78 6c 69 6e: 
             0x00005ab4: 6b 5f 70 75: 
             0x00005ab8: 74 5f 63 68: 
             0x00005abc: 2e 6d 61 78: 
             0x00005ac0: 63 68 61 6e: 
             0x00005ac4: 65 6e 64 73: 
             0x00005ac8: 00 78 73 63: 
             0x00005acc: 6f 70 65 5f: 
             0x00005ad0: 78 6c 69 6e: 
             0x00005ad4: 6b 5f 70 75: 
             0x00005ad8: 74 5f 63 74: 
             0x00005adc: 2e 6d 61 78: 
             0x00005ae0: 63 68 61 6e: 
             0x00005ae4: 65 6e 64 73: 
             0x00005ae8: 00 5f 77 72: 
             0x00005aec: 69 74 65 2e: 
             0x00005af0: 6e 73 74 61: 
             0x00005af4: 63 6b 77 6f: 
             0x00005af8: 72 64 73 00: 
             0x00005afc: 78 73 63 6f: 
             0x00005b00: 70 65 5f 73: 
             0x00005b04: 79 73 63 61: 
             0x00005b08: 6c 6c 5f 77: 
             0x00005b0c: 72 69 74 65: 
             0x00005b10: 2e 6e 73 74: 
             0x00005b14: 61 63 6b 77: 
             0x00005b18: 6f 72 64 73: 
             0x00005b1c: 00 5f 77 72: 
             0x00005b20: 69 74 65 2e: 
             0x00005b24: 6d 61 78 63: 
             0x00005b28: 6f 72 65 73: 
             0x00005b2c: 00 78 73 63: 
             0x00005b30: 6f 70 65 5f: 
             0x00005b34: 73 79 73 63: 
             0x00005b38: 61 6c 6c 5f: 
             0x00005b3c: 77 72 69 74: 
             0x00005b40: 65 2e 6d 61: 
             0x00005b44: 78 63 6f 72: 
             0x00005b48: 65 73 00 5f: 
             0x00005b4c: 77 72 69 74: 
             0x00005b50: 65 2e 6d 61: 
             0x00005b54: 78 74 69 6d: 
             0x00005b58: 65 72 73 00: 
             0x00005b5c: 78 73 63 6f: 
             0x00005b60: 70 65 5f 73: 
             0x00005b64: 79 73 63 61: 
             0x00005b68: 6c 6c 5f 77: 
             0x00005b6c: 72 69 74 65: 
             0x00005b70: 2e 6d 61 78: 
             0x00005b74: 74 69 6d 65: 
             0x00005b78: 72 73 00 5f: 
             0x00005b7c: 77 72 69 74: 
             0x00005b80: 65 2e 6d 61: 
             0x00005b84: 78 63 68 61: 
             0x00005b88: 6e 65 6e 64: 
             0x00005b8c: 73 00 78 73: 
             0x00005b90: 63 6f 70 65: 
             0x00005b94: 5f 73 79 73: 
             0x00005b98: 63 61 6c 6c: 
             0x00005b9c: 5f 77 72 69: 
             0x00005ba0: 74 65 2e 6d: 
             0x00005ba4: 61 78 63 68: 
             0x00005ba8: 61 6e 65 6e: 
             0x00005bac: 64 73 00 78: 
             0x00005bb0: 73 63 6f 70: 
             0x00005bb4: 65 5f 72 65: 
             0x00005bb8: 67 69 73 74: 
             0x00005bbc: 65 72 2e 6e: 
             0x00005bc0: 73 74 61 63: 
             0x00005bc4: 6b 77 6f 72: 
             0x00005bc8: 64 73 00 78: 
             0x00005bcc: 73 63 6f 70: 
             0x00005bd0: 65 5f 78 6c: 
             0x00005bd4: 69 6e 6b 5f: 
             0x00005bd8: 69 6e 69 74: 
             0x00005bdc: 2e 6e 73 74: 
             0x00005be0: 61 63 6b 77: 
             0x00005be4: 6f 72 64 73: 
             0x00005be8: 00 78 73 63: 
             0x00005bec: 6f 70 65 5f: 
             0x00005bf0: 78 6c 69 6e: 
             0x00005bf4: 6b 5f 73 74: 
             0x00005bf8: 61 72 74 5f: 
             0x00005bfc: 74 6f 6b 65: 
             0x00005c00: 6e 2e 6e 73: 
             0x00005c04: 74 61 63 6b: 
             0x00005c08: 77 6f 72 64: 
             0x00005c0c: 73 00 78 73: 
             0x00005c10: 63 6f 70 65: 
             0x00005c14: 5f 78 6c 69: 
             0x00005c18: 6e 6b 5f 63: 
             0x00005c1c: 6c 6f 73 65: 
             0x00005c20: 2e 6e 73 74: 
             0x00005c24: 61 63 6b 77: 
             0x00005c28: 6f 72 64 73: 
             0x00005c2c: 00 73 74 72: 
             0x00005c30: 6c 65 6e 2e: 
             0x00005c34: 6e 73 74 61: 
             0x00005c38: 63 6b 77 6f: 
             0x00005c3c: 72 64 73 00: 
             0x00005c40: 78 73 63 6f: 
             0x00005c44: 70 65 5f 72: 
             0x00005c48: 65 67 69 73: 
             0x00005c4c: 74 65 72 2e: 
             0x00005c50: 6d 61 78 63: 
             0x00005c54: 6f 72 65 73: 
             0x00005c58: 00 73 74 72: 
             0x00005c5c: 6c 65 6e 2e: 
             0x00005c60: 6d 61 78 63: 
             0x00005c64: 6f 72 65 73: 
             0x00005c68: 00 78 73 63: 
             0x00005c6c: 6f 70 65 5f: 
             0x00005c70: 78 6c 69 6e: 
             0x00005c74: 6b 5f 63 6c: 
             0x00005c78: 6f 73 65 2e: 
             0x00005c7c: 6d 61 78 63: 
             0x00005c80: 6f 72 65 73: 
             0x00005c84: 00 78 73 63: 
             0x00005c88: 6f 70 65 5f: 
             0x00005c8c: 78 6c 69 6e: 
             0x00005c90: 6b 5f 69 6e: 
             0x00005c94: 69 74 2e 6d: 
             0x00005c98: 61 78 63 6f: 
             0x00005c9c: 72 65 73 00: 
             0x00005ca0: 78 73 63 6f: 
             0x00005ca4: 70 65 5f 78: 
             0x00005ca8: 6c 69 6e 6b: 
             0x00005cac: 5f 73 74 61: 
             0x00005cb0: 72 74 5f 74: 
             0x00005cb4: 6f 6b 65 6e: 
             0x00005cb8: 2e 6d 61 78: 
             0x00005cbc: 63 6f 72 65: 
             0x00005cc0: 73 00 78 73: 
             0x00005cc4: 63 6f 70 65: 
             0x00005cc8: 5f 72 65 67: 
             0x00005ccc: 69 73 74 65: 
             0x00005cd0: 72 2e 6d 61: 
             0x00005cd4: 78 74 69 6d: 
             0x00005cd8: 65 72 73 00: 
             0x00005cdc: 73 74 72 6c: 
             0x00005ce0: 65 6e 2e 6d: 
             0x00005ce4: 61 78 74 69: 
             0x00005ce8: 6d 65 72 73: 
             0x00005cec: 00 78 73 63: 
             0x00005cf0: 6f 70 65 5f: 
             0x00005cf4: 78 6c 69 6e: 
             0x00005cf8: 6b 5f 63 6c: 
             0x00005cfc: 6f 73 65 2e: 
             0x00005d00: 6d 61 78 74: 
             0x00005d04: 69 6d 65 72: 
             0x00005d08: 73 00 78 73: 
             0x00005d0c: 63 6f 70 65: 
             0x00005d10: 5f 78 6c 69: 
             0x00005d14: 6e 6b 5f 69: 
             0x00005d18: 6e 69 74 2e: 
             0x00005d1c: 6d 61 78 74: 
             0x00005d20: 69 6d 65 72: 
             0x00005d24: 73 00 78 73: 
             0x00005d28: 63 6f 70 65: 
             0x00005d2c: 5f 78 6c 69: 
             0x00005d30: 6e 6b 5f 73: 
             0x00005d34: 74 61 72 74: 
             0x00005d38: 5f 74 6f 6b: 
             0x00005d3c: 65 6e 2e 6d: 
             0x00005d40: 61 78 74 69: 
             0x00005d44: 6d 65 72 73: 
             0x00005d48: 00 78 73 63: 
             0x00005d4c: 6f 70 65 5f: 
             0x00005d50: 72 65 67 69: 
             0x00005d54: 73 74 65 72: 
             0x00005d58: 2e 6d 61 78: 
             0x00005d5c: 63 68 61 6e: 
             0x00005d60: 65 6e 64 73: 
             0x00005d64: 00 73 74 72: 
             0x00005d68: 6c 65 6e 2e: 
             0x00005d6c: 6d 61 78 63: 
             0x00005d70: 68 61 6e 65: 
             0x00005d74: 6e 64 73 00: 
             0x00005d78: 78 73 63 6f: 
             0x00005d7c: 70 65 5f 78: 
             0x00005d80: 6c 69 6e 6b: 
             0x00005d84: 5f 63 6c 6f: 
             0x00005d88: 73 65 2e 6d: 
             0x00005d8c: 61 78 63 68: 
             0x00005d90: 61 6e 65 6e: 
             0x00005d94: 64 73 00 78: 
             0x00005d98: 73 63 6f 70: 
             0x00005d9c: 65 5f 78 6c: 
             0x00005da0: 69 6e 6b 5f: 
             0x00005da4: 69 6e 69 74: 
             0x00005da8: 2e 6d 61 78: 
             0x00005dac: 63 68 61 6e: 
             0x00005db0: 65 6e 64 73: 
             0x00005db4: 00 78 73 63: 
             0x00005db8: 6f 70 65 5f: 
             0x00005dbc: 78 6c 69 6e: 
             0x00005dc0: 6b 5f 73 74: 
             0x00005dc4: 61 72 74 5f: 
             0x00005dc8: 74 6f 6b 65: 
             0x00005dcc: 6e 2e 6d 61: 
             0x00005dd0: 78 63 68 61: 
             0x00005dd4: 6e 65 6e 64: 
             0x00005dd8: 73 00 78 73: 
             0x00005ddc: 63 6f 70 65: 
             0x00005de0: 5f 6c 6f 63: 
             0x00005de4: 6b 5f 69 6e: 
             0x00005de8: 69 74 00 78: 
             0x00005dec: 73 63 6f 70: 
             0x00005df0: 65 5f 6c 6f: 
             0x00005df4: 63 6b 5f 69: 
             0x00005df8: 6e 69 74 2e: 
             0x00005dfc: 6e 73 74 61: 
             0x00005e00: 63 6b 77 6f: 
             0x00005e04: 72 64 73 00: 
             0x00005e08: 78 73 63 6f: 
             0x00005e0c: 70 65 5f 75: 
             0x00005e10: 73 65 72 5f: 
             0x00005e14: 69 6e 69 74: 
             0x00005e18: 2e 6e 73 74: 
             0x00005e1c: 61 63 6b 77: 
             0x00005e20: 6f 72 64 73: 
             0x00005e24: 00 77 72 69: 
             0x00005e28: 74 65 5f 70: 
             0x00005e2c: 73 77 69 74: 
             0x00005e30: 63 68 5f 72: 
             0x00005e34: 65 67 2e 6e: 
             0x00005e38: 73 74 61 63: 
             0x00005e3c: 6b 77 6f 72: 
             0x00005e40: 64 73 00 78: 
             0x00005e44: 73 63 6f 70: 
             0x00005e48: 65 5f 6c 6f: 
             0x00005e4c: 63 6b 5f 69: 
             0x00005e50: 6e 69 74 2e: 
             0x00005e54: 6d 61 78 63: 
             0x00005e58: 6f 72 65 73: 
             0x00005e5c: 00 77 72 69: 
             0x00005e60: 74 65 5f 70: 
             0x00005e64: 73 77 69 74: 
             0x00005e68: 63 68 5f 72: 
             0x00005e6c: 65 67 2e 6d: 
             0x00005e70: 61 78 63 6f: 
             0x00005e74: 72 65 73 00: 
             0x00005e78: 78 73 63 6f: 
             0x00005e7c: 70 65 5f 75: 
             0x00005e80: 73 65 72 5f: 
             0x00005e84: 69 6e 69 74: 
             0x00005e88: 2e 6d 61 78: 
             0x00005e8c: 63 6f 72 65: 
             0x00005e90: 73 00 78 73: 
             0x00005e94: 63 6f 70 65: 
             0x00005e98: 5f 6c 6f 63: 
             0x00005e9c: 6b 5f 69 6e: 
             0x00005ea0: 69 74 2e 6d: 
             0x00005ea4: 61 78 74 69: 
             0x00005ea8: 6d 65 72 73: 
             0x00005eac: 00 77 72 69: 
             0x00005eb0: 74 65 5f 70: 
             0x00005eb4: 73 77 69 74: 
             0x00005eb8: 63 68 5f 72: 
             0x00005ebc: 65 67 2e 6d: 
             0x00005ec0: 61 78 74 69: 
             0x00005ec4: 6d 65 72 73: 
             0x00005ec8: 00 78 73 63: 
             0x00005ecc: 6f 70 65 5f: 
             0x00005ed0: 75 73 65 72: 
             0x00005ed4: 5f 69 6e 69: 
             0x00005ed8: 74 2e 6d 61: 
             0x00005edc: 78 74 69 6d: 
             0x00005ee0: 65 72 73 00: 
             0x00005ee4: 78 73 63 6f: 
             0x00005ee8: 70 65 5f 6c: 
             0x00005eec: 6f 63 6b 5f: 
             0x00005ef0: 69 6e 69 74: 
             0x00005ef4: 2e 6d 61 78: 
             0x00005ef8: 63 68 61 6e: 
             0x00005efc: 65 6e 64 73: 
             0x00005f00: 00 77 72 69: 
             0x00005f04: 74 65 5f 70: 
             0x00005f08: 73 77 69 74: 
             0x00005f0c: 63 68 5f 72: 
             0x00005f10: 65 67 2e 6d: 
             0x00005f14: 61 78 63 68: 
             0x00005f18: 61 6e 65 6e: 
             0x00005f1c: 64 73 00 78: 
             0x00005f20: 73 63 6f 70: 
             0x00005f24: 65 5f 75 73: 
             0x00005f28: 65 72 5f 69: 
             0x00005f2c: 6e 69 74 2e: 
             0x00005f30: 6d 61 78 63: 
             0x00005f34: 68 61 6e 65: 
             0x00005f38: 6e 64 73 00: 
             0x00005f3c: 5f 5f 73 6f: 
             0x00005f40: 64 43 68 61: 
             0x00005f44: 6e 00 78 73: 
             0x00005f48: 63 6f 70 65: 
             0x00005f4c: 5f 6c 6f 63: 
             0x00005f50: 6b 00 58 53: 
             0x00005f54: 43 4f 50 45: 
             0x00005f58: 5f 52 45 44: 
             0x00005f5c: 49 52 45 43: 
             0x00005f60: 54 5f 49 4f: 
             0x00005f64: 00 78 73 63: 
             0x00005f68: 6f 70 65 5f: 
             0x00005f6c: 75 73 65 72: 
             0x00005f70: 5f 69 6e 69: 
             0x00005f74: 74 00 78 73: 
             0x00005f78: 63 6f 70 65: 
             0x00005f7c: 5f 78 6c 69: 
             0x00005f80: 6e 6b 5f 70: 
             0x00005f84: 75 74 5f 63: 
             0x00005f88: 68 00 78 73: 
             0x00005f8c: 63 6f 70 65: 
             0x00005f90: 5f 78 6c 69: 
             0x00005f94: 6e 6b 5f 70: 
             0x00005f98: 75 74 5f 63: 
             0x00005f9c: 74 00 78 73: 
             0x00005fa0: 63 6f 70 65: 
             0x00005fa4: 5f 67 65 74: 
             0x00005fa8: 74 69 6d 65: 
             0x00005fac: 00 78 73 63: 
             0x00005fb0: 6f 70 65 5f: 
             0x00005fb4: 73 79 73 63: 
             0x00005fb8: 61 6c 6c 5f: 
             0x00005fbc: 77 72 69 74: 
             0x00005fc0: 65 00 77 72: 
             0x00005fc4: 69 74 65 5f: 
             0x00005fc8: 70 73 77 69: 
             0x00005fcc: 74 63 68 5f: 
             0x00005fd0: 72 65 67 00: 
             0x00005fd4: 5f 5f 73 6f: 
             0x00005fd8: 64 46 6c 61: 
             0x00005fdc: 67 00 5f 77: 
             0x00005fe0: 72 69 74 65: 
             0x00005fe4: 2e 63 6f 65: 
             0x00005fe8: 72 73 65 64: 
             0x00005fec: 2e 2e 66 2e: 
             0x00005ff0: 37 62 73 69: 
             0x00005ff4: 2e 37 64 2e: 
             0x00005ff8: 32 38 73 69: 
             0x00005ffc: 2e 32 63 70: 
             0x00006000: 2e 32 38 63: 
             0x00006004: 2e 33 61 75: 
             0x00006008: 63 2e 32 39: 
             0x0000600c: 2e 32 63 75: 
             0x00006010: 69 2e 32 39: 
             0x00006014: 00 5f 77 72: 
             0x00006018: 69 74 65 2e: 
             0x0000601c: 63 6f 65 72: 
             0x00006020: 73 65 64 2e: 
             0x00006024: 2e 66 2e 37: 
             0x00006028: 62 73 69 2e: 
             0x0000602c: 37 64 2e 32: 
             0x00006030: 38 73 69 2e: 
             0x00006034: 32 63 70 2e: 
             0x00006038: 32 38 63 2e: 
             0x0000603c: 33 61 75 63: 
             0x00006040: 2e 32 39 2e: 
             0x00006044: 32 63 75 69: 
             0x00006048: 2e 32 39 2e: 
             0x0000604c: 6e 73 74 61: 
             0x00006050: 63 6b 77 6f: 
             0x00006054: 72 64 73 00: 
             0x00006058: 73 77 69 74: 
             0x0000605c: 63 68 5f 72: 
             0x00006060: 65 67 2e 53: 
             0x00006064: 00 72 65 61: 
             0x00006068: 64 5f 73 73: 
             0x0000606c: 77 69 74 63: 
             0x00006070: 68 5f 72 65: 
             0x00006074: 67 2e 6e 73: 
             0x00006078: 74 61 63 6b: 
             0x0000607c: 77 6f 72 64: 
             0x00006080: 73 00 72 65: 
             0x00006084: 61 64 5f 73: 
             0x00006088: 77 69 74 63: 
             0x0000608c: 68 5f 72 65: 
             0x00006090: 67 2e 6e 73: 
             0x00006094: 74 61 63 6b: 
             0x00006098: 77 6f 72 64: 
             0x0000609c: 73 00 72 65: 
             0x000060a0: 74 75 72 6e: 
             0x000060a4: 5f 7a 65 72: 
             0x000060a8: 6f 2e 6e 73: 
             0x000060ac: 74 61 63 6b: 
             0x000060b0: 77 6f 72 64: 
             0x000060b4: 73 00 72 65: 
             0x000060b8: 61 64 5f 73: 
             0x000060bc: 73 77 69 74: 
             0x000060c0: 63 68 5f 72: 
             0x000060c4: 65 67 2e 6d: 
             0x000060c8: 61 78 63 6f: 
             0x000060cc: 72 65 73 00: 
             0x000060d0: 72 65 61 64: 
             0x000060d4: 5f 73 77 69: 
             0x000060d8: 74 63 68 5f: 
             0x000060dc: 72 65 67 2e: 
             0x000060e0: 6d 61 78 63: 
             0x000060e4: 6f 72 65 73: 
             0x000060e8: 00 72 65 74: 
             0x000060ec: 75 72 6e 5f: 
             0x000060f0: 7a 65 72 6f: 
             0x000060f4: 2e 6d 61 78: 
             0x000060f8: 63 6f 72 65: 
             0x000060fc: 73 00 72 65: 
             0x00006100: 61 64 5f 73: 
             0x00006104: 73 77 69 74: 
             0x00006108: 63 68 5f 72: 
             0x0000610c: 65 67 2e 6d: 
             0x00006110: 61 78 74 69: 
             0x00006114: 6d 65 72 73: 
             0x00006118: 00 72 65 61: 
             0x0000611c: 64 5f 73 77: 
             0x00006120: 69 74 63 68: 
             0x00006124: 5f 72 65 67: 
             0x00006128: 2e 6d 61 78: 
             0x0000612c: 74 69 6d 65: 
             0x00006130: 72 73 00 72: 
             0x00006134: 65 74 75 72: 
             0x00006138: 6e 5f 7a 65: 
             0x0000613c: 72 6f 2e 6d: 
             0x00006140: 61 78 74 69: 
             0x00006144: 6d 65 72 73: 
             0x00006148: 00 72 65 61: 
             0x0000614c: 64 5f 73 73: 
             0x00006150: 77 69 74 63: 
             0x00006154: 68 5f 72 65: 
             0x00006158: 67 2e 6d 61: 
             0x0000615c: 78 63 68 61: 
             0x00006160: 6e 65 6e 64: 
             0x00006164: 73 00 72 65: 
             0x00006168: 61 64 5f 73: 
             0x0000616c: 77 69 74 63: 
             0x00006170: 68 5f 72 65: 
             0x00006174: 67 2e 6d 61: 
             0x00006178: 78 63 68 61: 
             0x0000617c: 6e 65 6e 64: 
             0x00006180: 73 00 72 65: 
             0x00006184: 74 75 72 6e: 
             0x00006188: 5f 7a 65 72: 
             0x0000618c: 6f 2e 6d 61: 
             0x00006190: 78 63 68 61: 
             0x00006194: 6e 65 6e 64: 
             0x00006198: 73 00 72 65: 
             0x0000619c: 61 64 5f 70: 
             0x000061a0: 73 77 69 74: 
             0x000061a4: 63 68 5f 72: 
             0x000061a8: 65 67 2e 6e: 
             0x000061ac: 73 74 61 63: 
             0x000061b0: 6b 77 6f 72: 
             0x000061b4: 64 73 00 72: 
             0x000061b8: 65 61 64 5f: 
             0x000061bc: 70 73 77 69: 
             0x000061c0: 74 63 68 5f: 
             0x000061c4: 72 65 67 2e: 
             0x000061c8: 6d 61 78 63: 
             0x000061cc: 6f 72 65 73: 
             0x000061d0: 00 72 65 61: 
             0x000061d4: 64 5f 70 73: 
             0x000061d8: 77 69 74 63: 
             0x000061dc: 68 5f 72 65: 
             0x000061e0: 67 2e 6d 61: 
             0x000061e4: 78 74 69 6d: 
             0x000061e8: 65 72 73 00: 
             0x000061ec: 72 65 61 64: 
             0x000061f0: 5f 70 73 77: 
             0x000061f4: 69 74 63 68: 
             0x000061f8: 5f 72 65 67: 
             0x000061fc: 2e 6d 61 78: 
             0x00006200: 63 68 61 6e: 
             0x00006204: 65 6e 64 73: 
             0x00006208: 00 77 72 69: 
             0x0000620c: 74 65 5f 73: 
             0x00006210: 77 69 74 63: 
             0x00006214: 68 5f 72 65: 
             0x00006218: 67 2e 6e 73: 
             0x0000621c: 74 61 63 6b: 
             0x00006220: 77 6f 72 64: 
             0x00006224: 73 00 77 72: 
             0x00006228: 69 74 65 5f: 
             0x0000622c: 73 77 69 74: 
             0x00006230: 63 68 5f 72: 
             0x00006234: 65 67 2e 6d: 
             0x00006238: 61 78 63 6f: 
             0x0000623c: 72 65 73 00: 
             0x00006240: 77 72 69 74: 
             0x00006244: 65 5f 73 77: 
             0x00006248: 69 74 63 68: 
             0x0000624c: 5f 72 65 67: 
             0x00006250: 2e 6d 61 78: 
             0x00006254: 74 69 6d 65: 
             0x00006258: 72 73 00 77: 
             0x0000625c: 72 69 74 65: 
             0x00006260: 5f 73 77 69: 
             0x00006264: 74 63 68 5f: 
             0x00006268: 72 65 67 2e: 
             0x0000626c: 6d 61 78 63: 
             0x00006270: 68 61 6e 65: 
             0x00006274: 6e 64 73 00: 
             0x00006278: 77 72 69 74: 
             0x0000627c: 65 5f 70 73: 
             0x00006280: 77 69 74 63: 
             0x00006284: 68 5f 72 65: 
             0x00006288: 67 5f 6e 6f: 
             0x0000628c: 5f 61 63 6b: 
             0x00006290: 2e 6e 73 74: 
             0x00006294: 61 63 6b 77: 
             0x00006298: 6f 72 64 73: 
             0x0000629c: 00 77 72 69: 
             0x000062a0: 74 65 5f 70: 
             0x000062a4: 73 77 69 74: 
             0x000062a8: 63 68 5f 72: 
             0x000062ac: 65 67 5f 6e: 
             0x000062b0: 6f 5f 61 63: 
             0x000062b4: 6b 2e 6d 61: 
             0x000062b8: 78 63 6f 72: 
             0x000062bc: 65 73 00 77: 
             0x000062c0: 72 69 74 65: 
             0x000062c4: 5f 70 73 77: 
             0x000062c8: 69 74 63 68: 
             0x000062cc: 5f 72 65 67: 
             0x000062d0: 5f 6e 6f 5f: 
             0x000062d4: 61 63 6b 2e: 
             0x000062d8: 6d 61 78 74: 
             0x000062dc: 69 6d 65 72: 
             0x000062e0: 73 00 77 72: 
             0x000062e4: 69 74 65 5f: 
             0x000062e8: 70 73 77 69: 
             0x000062ec: 74 63 68 5f: 
             0x000062f0: 72 65 67 5f: 
             0x000062f4: 6e 6f 5f 61: 
             0x000062f8: 63 6b 2e 6d: 
             0x000062fc: 61 78 63 68: 
             0x00006300: 61 6e 65 6e: 
             0x00006304: 64 73 00 77: 
             0x00006308: 72 69 74 65: 
             0x0000630c: 5f 73 77 69: 
             0x00006310: 74 63 68 5f: 
             0x00006314: 72 65 67 00: 
             0x00006318: 62 75 69 6c: 
             0x0000631c: 64 5f 72 65: 
             0x00006320: 74 75 72 6e: 
             0x00006324: 5f 6e 6f 5f: 
             0x00006328: 61 63 6b 00: 
             0x0000632c: 77 72 69 74: 
             0x00006330: 65 5f 73 77: 
             0x00006334: 69 74 63 68: 
             0x00006338: 5f 72 65 67: 
             0x0000633c: 5f 73 65 6e: 
             0x00006340: 64 00 77 72: 
             0x00006344: 69 74 65 5f: 
             0x00006348: 73 77 69 74: 
             0x0000634c: 63 68 5f 72: 
             0x00006350: 65 67 5f 72: 
             0x00006354: 65 74 75 72: 
             0x00006358: 6e 5f 30 00: 
             0x0000635c: 77 72 69 74: 
             0x00006360: 65 5f 73 77: 
             0x00006364: 69 74 63 68: 
             0x00006368: 5f 72 65 67: 
             0x0000636c: 5f 66 72 65: 
             0x00006370: 65 5f 61 6e: 
             0x00006374: 64 5f 72 65: 
             0x00006378: 74 75 72 6e: 
             0x0000637c: 5f 31 00 6d: 
             0x00006380: 65 6d 73 65: 
             0x00006384: 74 2e 53 00: 
             0x00006388: 6d 65 6d 73: 
             0x0000638c: 65 74 2e 6d: 
             0x00006390: 61 78 63 68: 
             0x00006394: 61 6e 65 6e: 
             0x00006398: 64 73 00 6d: 
             0x0000639c: 65 6d 73 65: 
             0x000063a0: 74 2e 6d 61: 
             0x000063a4: 78 74 69 6d: 
             0x000063a8: 65 72 73 00: 
             0x000063ac: 6d 65 6d 73: 
             0x000063b0: 65 74 2e 6d: 
             0x000063b4: 61 78 63 6f: 
             0x000063b8: 72 65 73 00: 
             0x000063bc: 6d 65 6d 73: 
             0x000063c0: 65 74 2e 6c: 
             0x000063c4: 6f 63 6e 6f: 
             0x000063c8: 63 68 61 6e: 
             0x000063cc: 64 65 63 00: 
             0x000063d0: 70 72 69 6e: 
             0x000063d4: 74 2e 78 63: 
             0x000063d8: 00 75 73 61: 
             0x000063dc: 67 65 2e 61: 
             0x000063e0: 6e 6f 6e 2e: 
             0x000063e4: 31 00 75 73: 
             0x000063e8: 61 67 65 2e: 
             0x000063ec: 61 6e 6f 6e: 
             0x000063f0: 2e 32 00 75: 
             0x000063f4: 73 61 67 65: 
             0x000063f8: 2e 61 6e 6f: 
             0x000063fc: 6e 2e 33 00: 
             0x00006400: 75 73 61 67: 
             0x00006404: 65 2e 61 6e: 
             0x00006408: 6f 6e 2e 34: 
             0x0000640c: 00 75 73 61: 
             0x00006410: 67 65 2e 61: 
             0x00006414: 6e 6f 6e 2e: 
             0x00006418: 35 00 75 73: 
             0x0000641c: 61 67 65 2e: 
             0x00006420: 61 6e 6f 6e: 
             0x00006424: 2e 36 00 70: 
             0x00006428: 72 69 6e 74: 
             0x0000642c: 63 68 61 72: 
             0x00006430: 00 70 72 69: 
             0x00006434: 6e 74 63 68: 
             0x00006438: 61 72 2e 6c: 
             0x0000643c: 6f 63 6e 6f: 
             0x00006440: 73 69 64 65: 
             0x00006444: 00 70 72 69: 
             0x00006448: 6e 74 63 68: 
             0x0000644c: 61 72 6c 6e: 
             0x00006450: 2e 6c 6f 63: 
             0x00006454: 6e 6f 73 69: 
             0x00006458: 64 65 00 75: 
             0x0000645c: 73 61 67 65: 
             0x00006460: 2e 61 6e 6f: 
             0x00006464: 6e 2e 31 2e: 
             0x00006468: 6c 6f 63 6e: 
             0x0000646c: 6f 73 69 64: 
             0x00006470: 65 00 75 73: 
             0x00006474: 61 67 65 2e: 
             0x00006478: 61 6e 6f 6e: 
             0x0000647c: 2e 33 2e 6c: 
             0x00006480: 6f 63 6e 6f: 
             0x00006484: 73 69 64 65: 
             0x00006488: 00 70 72 69: 
             0x0000648c: 6e 74 75 69: 
             0x00006490: 6e 74 2e 6c: 
             0x00006494: 6f 63 6e 6f: 
             0x00006498: 73 69 64 65: 
             0x0000649c: 00 70 72 69: 
             0x000064a0: 6e 74 75 69: 
             0x000064a4: 6e 74 6c 6e: 
             0x000064a8: 2e 6c 6f 63: 
             0x000064ac: 6e 6f 73 69: 
             0x000064b0: 64 65 00 70: 
             0x000064b4: 72 69 6e 74: 
             0x000064b8: 69 6e 74 2e: 
             0x000064bc: 6c 6f 63 6e: 
             0x000064c0: 6f 73 69 64: 
             0x000064c4: 65 00 70 72: 
             0x000064c8: 69 6e 74 69: 
             0x000064cc: 6e 74 6c 6e: 
             0x000064d0: 2e 6c 6f 63: 
             0x000064d4: 6e 6f 73 69: 
             0x000064d8: 64 65 00 75: 
             0x000064dc: 73 61 67 65: 
             0x000064e0: 2e 61 6e 6f: 
             0x000064e4: 6e 2e 35 2e: 
             0x000064e8: 6c 6f 63 6e: 
             0x000064ec: 6f 73 69 64: 
             0x000064f0: 65 00 75 73: 
             0x000064f4: 61 67 65 2e: 
             0x000064f8: 61 6e 6f 6e: 
             0x000064fc: 2e 36 2e 6c: 
             0x00006500: 6f 63 6e 6f: 
             0x00006504: 73 69 64 65: 
             0x00006508: 00 70 72 69: 
             0x0000650c: 6e 74 75 6c: 
             0x00006510: 6c 6f 6e 67: 
             0x00006514: 2e 6c 6f 63: 
             0x00006518: 6e 6f 73 69: 
             0x0000651c: 64 65 00 70: 
             0x00006520: 72 69 6e 74: 
             0x00006524: 75 6c 6c 6f: 
             0x00006528: 6e 67 6c 6e: 
             0x0000652c: 2e 6c 6f 63: 
             0x00006530: 6e 6f 73 69: 
             0x00006534: 64 65 00 70: 
             0x00006538: 72 69 6e 74: 
             0x0000653c: 6c 6c 6f 6e: 
             0x00006540: 67 2e 6c 6f: 
             0x00006544: 63 6e 6f 73: 
             0x00006548: 69 64 65 00: 
             0x0000654c: 70 72 69 6e: 
             0x00006550: 74 6c 6c 6f: 
             0x00006554: 6e 67 6c 6e: 
             0x00006558: 2e 6c 6f 63: 
             0x0000655c: 6e 6f 73 69: 
             0x00006560: 64 65 00 70: 
             0x00006564: 72 69 6e 74: 
             0x00006568: 68 65 78 2e: 
             0x0000656c: 6c 6f 63 6e: 
             0x00006570: 6f 73 69 64: 
             0x00006574: 65 00 70 72: 
             0x00006578: 69 6e 74 68: 
             0x0000657c: 65 78 6c 6e: 
             0x00006580: 2e 6c 6f 63: 
             0x00006584: 6e 6f 73 69: 
             0x00006588: 64 65 00 70: 
             0x0000658c: 72 69 6e 74: 
             0x00006590: 6c 6c 6f 6e: 
             0x00006594: 67 68 65 78: 
             0x00006598: 2e 6c 6f 63: 
             0x0000659c: 6e 6f 73 69: 
             0x000065a0: 64 65 00 70: 
             0x000065a4: 72 69 6e 74: 
             0x000065a8: 6c 6c 6f 6e: 
             0x000065ac: 67 68 65 78: 
             0x000065b0: 6c 6e 2e 6c: 
             0x000065b4: 6f 63 6e 6f: 
             0x000065b8: 73 69 64 65: 
             0x000065bc: 00 70 72 69: 
             0x000065c0: 6e 74 73 74: 
             0x000065c4: 72 2e 6c 6f: 
             0x000065c8: 63 6e 6f 73: 
             0x000065cc: 69 64 65 00: 
             0x000065d0: 70 72 69 6e: 
             0x000065d4: 74 73 74 72: 
             0x000065d8: 6c 6e 2e 6c: 
             0x000065dc: 6f 63 6e 6f: 
             0x000065e0: 73 69 64 65: 
             0x000065e4: 00 70 72 69: 
             0x000065e8: 6e 74 63 68: 
             0x000065ec: 61 72 2e 6c: 
             0x000065f0: 6f 63 6e 6f: 
             0x000065f4: 63 68 61 6e: 
             0x000065f8: 64 65 63 00: 
             0x000065fc: 70 72 69 6e: 
             0x00006600: 74 63 68 61: 
             0x00006604: 72 6c 6e 2e: 
             0x00006608: 6c 6f 63 6e: 
             0x0000660c: 6f 63 68 61: 
             0x00006610: 6e 64 65 63: 
             0x00006614: 00 75 73 61: 
             0x00006618: 67 65 2e 61: 
             0x0000661c: 6e 6f 6e 2e: 
             0x00006620: 31 2e 6c 6f: 
             0x00006624: 63 6e 6f 63: 
             0x00006628: 68 61 6e 64: 
             0x0000662c: 65 63 00 75: 
             0x00006630: 73 61 67 65: 
             0x00006634: 2e 61 6e 6f: 
             0x00006638: 6e 2e 33 2e: 
             0x0000663c: 6c 6f 63 6e: 
             0x00006640: 6f 63 68 61: 
             0x00006644: 6e 64 65 63: 
             0x00006648: 00 70 72 69: 
             0x0000664c: 6e 74 75 69: 
             0x00006650: 6e 74 2e 6c: 
             0x00006654: 6f 63 6e 6f: 
             0x00006658: 63 68 61 6e: 
             0x0000665c: 64 65 63 00: 
             0x00006660: 70 72 69 6e: 
             0x00006664: 74 75 69 6e: 
             0x00006668: 74 6c 6e 2e: 
             0x0000666c: 6c 6f 63 6e: 
             0x00006670: 6f 63 68 61: 
             0x00006674: 6e 64 65 63: 
             0x00006678: 00 70 72 69: 
             0x0000667c: 6e 74 69 6e: 
             0x00006680: 74 2e 6c 6f: 
             0x00006684: 63 6e 6f 63: 
             0x00006688: 68 61 6e 64: 
             0x0000668c: 65 63 00 70: 
             0x00006690: 72 69 6e 74: 
             0x00006694: 69 6e 74 6c: 
             0x00006698: 6e 2e 6c 6f: 
             0x0000669c: 63 6e 6f 63: 
             0x000066a0: 68 61 6e 64: 
             0x000066a4: 65 63 00 75: 
             0x000066a8: 73 61 67 65: 
             0x000066ac: 2e 61 6e 6f: 
             0x000066b0: 6e 2e 35 2e: 
             0x000066b4: 6c 6f 63 6e: 
             0x000066b8: 6f 63 68 61: 
             0x000066bc: 6e 64 65 63: 
             0x000066c0: 00 75 73 61: 
             0x000066c4: 67 65 2e 61: 
             0x000066c8: 6e 6f 6e 2e: 
             0x000066cc: 36 2e 6c 6f: 
             0x000066d0: 63 6e 6f 63: 
             0x000066d4: 68 61 6e 64: 
             0x000066d8: 65 63 00 70: 
             0x000066dc: 72 69 6e 74: 
             0x000066e0: 75 6c 6c 6f: 
             0x000066e4: 6e 67 2e 6c: 
             0x000066e8: 6f 63 6e 6f: 
             0x000066ec: 63 68 61 6e: 
             0x000066f0: 64 65 63 00: 
             0x000066f4: 70 72 69 6e: 
             0x000066f8: 74 75 6c 6c: 
             0x000066fc: 6f 6e 67 6c: 
             0x00006700: 6e 2e 6c 6f: 
             0x00006704: 63 6e 6f 63: 
             0x00006708: 68 61 6e 64: 
             0x0000670c: 65 63 00 70: 
             0x00006710: 72 69 6e 74: 
             0x00006714: 6c 6c 6f 6e: 
             0x00006718: 67 2e 6c 6f: 
             0x0000671c: 63 6e 6f 63: 
             0x00006720: 68 61 6e 64: 
             0x00006724: 65 63 00 70: 
             0x00006728: 72 69 6e 74: 
             0x0000672c: 6c 6c 6f 6e: 
             0x00006730: 67 6c 6e 2e: 
             0x00006734: 6c 6f 63 6e: 
             0x00006738: 6f 63 68 61: 
             0x0000673c: 6e 64 65 63: 
             0x00006740: 00 70 72 69: 
             0x00006744: 6e 74 68 65: 
             0x00006748: 78 2e 6c 6f: 
             0x0000674c: 63 6e 6f 63: 
             0x00006750: 68 61 6e 64: 
             0x00006754: 65 63 00 70: 
             0x00006758: 72 69 6e 74: 
             0x0000675c: 68 65 78 6c: 
             0x00006760: 6e 2e 6c 6f: 
             0x00006764: 63 6e 6f 63: 
             0x00006768: 68 61 6e 64: 
             0x0000676c: 65 63 00 70: 
             0x00006770: 72 69 6e 74: 
             0x00006774: 6c 6c 6f 6e: 
             0x00006778: 67 68 65 78: 
             0x0000677c: 2e 6c 6f 63: 
             0x00006780: 6e 6f 63 68: 
             0x00006784: 61 6e 64 65: 
             0x00006788: 63 00 70 72: 
             0x0000678c: 69 6e 74 6c: 
             0x00006790: 6c 6f 6e 67: 
             0x00006794: 68 65 78 6c: 
             0x00006798: 6e 2e 6c 6f: 
             0x0000679c: 63 6e 6f 63: 
             0x000067a0: 68 61 6e 64: 
             0x000067a4: 65 63 00 70: 
             0x000067a8: 72 69 6e 74: 
             0x000067ac: 73 74 72 2e: 
             0x000067b0: 6c 6f 63 6e: 
             0x000067b4: 6f 63 68 61: 
             0x000067b8: 6e 64 65 63: 
             0x000067bc: 00 70 72 69: 
             0x000067c0: 6e 74 73 74: 
             0x000067c4: 72 6c 6e 2e: 
             0x000067c8: 6c 6f 63 6e: 
             0x000067cc: 6f 63 68 61: 
             0x000067d0: 6e 64 65 63: 
             0x000067d4: 00 70 72 69: 
             0x000067d8: 6e 74 63 68: 
             0x000067dc: 61 72 2e 6e: 
             0x000067e0: 73 74 61 63: 
             0x000067e4: 6b 77 6f 72: 
             0x000067e8: 64 73 00 70: 
             0x000067ec: 72 69 6e 74: 
             0x000067f0: 63 68 61 72: 
             0x000067f4: 2e 6d 61 78: 
             0x000067f8: 63 6f 72 65: 
             0x000067fc: 73 00 70 72: 
             0x00006800: 69 6e 74 63: 
             0x00006804: 68 61 72 2e: 
             0x00006808: 6d 61 78 74: 
             0x0000680c: 69 6d 65 72: 
             0x00006810: 73 00 70 72: 
             0x00006814: 69 6e 74 63: 
             0x00006818: 68 61 72 2e: 
             0x0000681c: 6d 61 78 63: 
             0x00006820: 68 61 6e 65: 
             0x00006824: 6e 64 73 00: 
             0x00006828: 70 72 69 6e: 
             0x0000682c: 74 63 68 61: 
             0x00006830: 72 6c 6e 2e: 
             0x00006834: 6e 73 74 61: 
             0x00006838: 63 6b 77 6f: 
             0x0000683c: 72 64 73 00: 
             0x00006840: 70 72 69 6e: 
             0x00006844: 74 63 68 61: 
             0x00006848: 72 6c 6e 2e: 
             0x0000684c: 6d 61 78 63: 
             0x00006850: 6f 72 65 73: 
             0x00006854: 00 70 72 69: 
             0x00006858: 6e 74 63 68: 
             0x0000685c: 61 72 6c 6e: 
             0x00006860: 2e 6d 61 78: 
             0x00006864: 74 69 6d 65: 
             0x00006868: 72 73 00 70: 
             0x0000686c: 72 69 6e 74: 
             0x00006870: 63 68 61 72: 
             0x00006874: 6c 6e 2e 6d: 
             0x00006878: 61 78 63 68: 
             0x0000687c: 61 6e 65 6e: 
             0x00006880: 64 73 00 70: 
             0x00006884: 72 69 6e 74: 
             0x00006888: 69 6e 74 2e: 
             0x0000688c: 6e 73 74 61: 
             0x00006890: 63 6b 77 6f: 
             0x00006894: 72 64 73 00: 
             0x00006898: 70 72 69 6e: 
             0x0000689c: 74 75 69 6e: 
             0x000068a0: 74 5f 62 61: 
             0x000068a4: 73 65 2e 6e: 
             0x000068a8: 73 74 61 63: 
             0x000068ac: 6b 77 6f 72: 
             0x000068b0: 64 73 00 70: 
             0x000068b4: 72 69 6e 74: 
             0x000068b8: 69 6e 74 2e: 
             0x000068bc: 6d 61 78 63: 
             0x000068c0: 6f 72 65 73: 
             0x000068c4: 00 70 72 69: 
             0x000068c8: 6e 74 75 69: 
             0x000068cc: 6e 74 5f 62: 
             0x000068d0: 61 73 65 2e: 
             0x000068d4: 6d 61 78 63: 
             0x000068d8: 6f 72 65 73: 
             0x000068dc: 00 70 72 69: 
             0x000068e0: 6e 74 69 6e: 
             0x000068e4: 74 2e 6d 61: 
             0x000068e8: 78 74 69 6d: 
             0x000068ec: 65 72 73 00: 
             0x000068f0: 70 72 69 6e: 
             0x000068f4: 74 75 69 6e: 
             0x000068f8: 74 5f 62 61: 
             0x000068fc: 73 65 2e 6d: 
             0x00006900: 61 78 74 69: 
             0x00006904: 6d 65 72 73: 
             0x00006908: 00 70 72 69: 
             0x0000690c: 6e 74 69 6e: 
             0x00006910: 74 2e 6d 61: 
             0x00006914: 78 63 68 61: 
             0x00006918: 6e 65 6e 64: 
             0x0000691c: 73 00 70 72: 
             0x00006920: 69 6e 74 75: 
             0x00006924: 69 6e 74 5f: 
             0x00006928: 62 61 73 65: 
             0x0000692c: 2e 6d 61 78: 
             0x00006930: 63 68 61 6e: 
             0x00006934: 65 6e 64 73: 
             0x00006938: 00 70 72 69: 
             0x0000693c: 6e 74 75 69: 
             0x00006940: 6e 74 2e 6e: 
             0x00006944: 73 74 61 63: 
             0x00006948: 6b 77 6f 72: 
             0x0000694c: 64 73 00 70: 
             0x00006950: 72 69 6e 74: 
             0x00006954: 75 69 6e 74: 
             0x00006958: 2e 6d 61 78: 
             0x0000695c: 63 6f 72 65: 
             0x00006960: 73 00 70 72: 
             0x00006964: 69 6e 74 75: 
             0x00006968: 69 6e 74 2e: 
             0x0000696c: 6d 61 78 74: 
             0x00006970: 69 6d 65 72: 
             0x00006974: 73 00 70 72: 
             0x00006978: 69 6e 74 75: 
             0x0000697c: 69 6e 74 2e: 
             0x00006980: 6d 61 78 63: 
             0x00006984: 68 61 6e 65: 
             0x00006988: 6e 64 73 00: 
             0x0000698c: 70 72 69 6e: 
             0x00006990: 74 75 69 6e: 
             0x00006994: 74 6c 6e 2e: 
             0x00006998: 6e 73 74 61: 
             0x0000699c: 63 6b 77 6f: 
             0x000069a0: 72 64 73 00: 
             0x000069a4: 70 72 69 6e: 
             0x000069a8: 74 75 69 6e: 
             0x000069ac: 74 6c 6e 2e: 
             0x000069b0: 6d 61 78 63: 
             0x000069b4: 6f 72 65 73: 
             0x000069b8: 00 70 72 69: 
             0x000069bc: 6e 74 75 69: 
             0x000069c0: 6e 74 6c 6e: 
             0x000069c4: 2e 6d 61 78: 
             0x000069c8: 74 69 6d 65: 
             0x000069cc: 72 73 00 70: 
             0x000069d0: 72 69 6e 74: 
             0x000069d4: 75 69 6e 74: 
             0x000069d8: 6c 6e 2e 6d: 
             0x000069dc: 61 78 63 68: 
             0x000069e0: 61 6e 65 6e: 
             0x000069e4: 64 73 00 70: 
             0x000069e8: 72 69 6e 74: 
             0x000069ec: 6c 6c 6f 6e: 
             0x000069f0: 67 2e 6e 73: 
             0x000069f4: 74 61 63 6b: 
             0x000069f8: 77 6f 72 64: 
             0x000069fc: 73 00 70 72: 
             0x00006a00: 69 6e 74 75: 
             0x00006a04: 6c 6c 6f 6e: 
             0x00006a08: 67 5f 62 61: 
             0x00006a0c: 73 65 2e 6e: 
             0x00006a10: 73 74 61 63: 
             0x00006a14: 6b 77 6f 72: 
             0x00006a18: 64 73 00 70: 
             0x00006a1c: 72 69 6e 74: 
             0x00006a20: 6c 6c 6f 6e: 
             0x00006a24: 67 2e 6d 61: 
             0x00006a28: 78 63 6f 72: 
             0x00006a2c: 65 73 00 70: 
             0x00006a30: 72 69 6e 74: 
             0x00006a34: 75 6c 6c 6f: 
             0x00006a38: 6e 67 5f 62: 
             0x00006a3c: 61 73 65 2e: 
             0x00006a40: 6d 61 78 63: 
             0x00006a44: 6f 72 65 73: 
             0x00006a48: 00 70 72 69: 
             0x00006a4c: 6e 74 6c 6c: 
             0x00006a50: 6f 6e 67 2e: 
             0x00006a54: 6d 61 78 74: 
             0x00006a58: 69 6d 65 72: 
             0x00006a5c: 73 00 70 72: 
             0x00006a60: 69 6e 74 75: 
             0x00006a64: 6c 6c 6f 6e: 
             0x00006a68: 67 5f 62 61: 
             0x00006a6c: 73 65 2e 6d: 
             0x00006a70: 61 78 74 69: 
             0x00006a74: 6d 65 72 73: 
             0x00006a78: 00 70 72 69: 
             0x00006a7c: 6e 74 6c 6c: 
             0x00006a80: 6f 6e 67 2e: 
             0x00006a84: 6d 61 78 63: 
             0x00006a88: 68 61 6e 65: 
             0x00006a8c: 6e 64 73 00: 
             0x00006a90: 70 72 69 6e: 
             0x00006a94: 74 75 6c 6c: 
             0x00006a98: 6f 6e 67 5f: 
             0x00006a9c: 62 61 73 65: 
             0x00006aa0: 2e 6d 61 78: 
             0x00006aa4: 63 68 61 6e: 
             0x00006aa8: 65 6e 64 73: 
             0x00006aac: 00 70 72 69: 
             0x00006ab0: 6e 74 6c 6c: 
             0x00006ab4: 6f 6e 67 6c: 
             0x00006ab8: 6e 2e 6e 73: 
             0x00006abc: 74 61 63 6b: 
             0x00006ac0: 77 6f 72 64: 
             0x00006ac4: 73 00 70 72: 
             0x00006ac8: 69 6e 74 6c: 
             0x00006acc: 6c 6f 6e 67: 
             0x00006ad0: 6c 6e 2e 6d: 
             0x00006ad4: 61 78 63 6f: 
             0x00006ad8: 72 65 73 00: 
             0x00006adc: 70 72 69 6e: 
             0x00006ae0: 74 6c 6c 6f: 
             0x00006ae4: 6e 67 6c 6e: 
             0x00006ae8: 2e 6d 61 78: 
             0x00006aec: 74 69 6d 65: 
             0x00006af0: 72 73 00 70: 
             0x00006af4: 72 69 6e 74: 
             0x00006af8: 6c 6c 6f 6e: 
             0x00006afc: 67 6c 6e 2e: 
             0x00006b00: 6d 61 78 63: 
             0x00006b04: 68 61 6e 65: 
             0x00006b08: 6e 64 73 00: 
             0x00006b0c: 70 72 69 6e: 
             0x00006b10: 74 75 6c 6c: 
             0x00006b14: 6f 6e 67 2e: 
             0x00006b18: 6e 73 74 61: 
             0x00006b1c: 63 6b 77 6f: 
             0x00006b20: 72 64 73 00: 
             0x00006b24: 70 72 69 6e: 
             0x00006b28: 74 75 6c 6c: 
             0x00006b2c: 6f 6e 67 2e: 
             0x00006b30: 6d 61 78 63: 
             0x00006b34: 6f 72 65 73: 
             0x00006b38: 00 70 72 69: 
             0x00006b3c: 6e 74 75 6c: 
             0x00006b40: 6c 6f 6e 67: 
             0x00006b44: 2e 6d 61 78: 
             0x00006b48: 74 69 6d 65: 
             0x00006b4c: 72 73 00 70: 
             0x00006b50: 72 69 6e 74: 
             0x00006b54: 75 6c 6c 6f: 
             0x00006b58: 6e 67 2e 6d: 
             0x00006b5c: 61 78 63 68: 
             0x00006b60: 61 6e 65 6e: 
             0x00006b64: 64 73 00 70: 
             0x00006b68: 72 69 6e 74: 
             0x00006b6c: 75 6c 6c 6f: 
             0x00006b70: 6e 67 6c 6e: 
             0x00006b74: 2e 6e 73 74: 
             0x00006b78: 61 63 6b 77: 
             0x00006b7c: 6f 72 64 73: 
             0x00006b80: 00 70 72 69: 
             0x00006b84: 6e 74 75 6c: 
             0x00006b88: 6c 6f 6e 67: 
             0x00006b8c: 6c 6e 2e 6d: 
             0x00006b90: 61 78 63 6f: 
             0x00006b94: 72 65 73 00: 
             0x00006b98: 70 72 69 6e: 
             0x00006b9c: 74 75 6c 6c: 
             0x00006ba0: 6f 6e 67 6c: 
             0x00006ba4: 6e 2e 6d 61: 
             0x00006ba8: 78 74 69 6d: 
             0x00006bac: 65 72 73 00: 
             0x00006bb0: 70 72 69 6e: 
             0x00006bb4: 74 75 6c 6c: 
             0x00006bb8: 6f 6e 67 6c: 
             0x00006bbc: 6e 2e 6d 61: 
             0x00006bc0: 78 63 68 61: 
             0x00006bc4: 6e 65 6e 64: 
             0x00006bc8: 73 00 70 72: 
             0x00006bcc: 69 6e 74 68: 
             0x00006bd0: 65 78 2e 6e: 
             0x00006bd4: 73 74 61 63: 
             0x00006bd8: 6b 77 6f 72: 
             0x00006bdc: 64 73 00 70: 
             0x00006be0: 72 69 6e 74: 
             0x00006be4: 68 65 78 2e: 
             0x00006be8: 6d 61 78 63: 
             0x00006bec: 6f 72 65 73: 
             0x00006bf0: 00 70 72 69: 
             0x00006bf4: 6e 74 68 65: 
             0x00006bf8: 78 2e 6d 61: 
             0x00006bfc: 78 74 69 6d: 
             0x00006c00: 65 72 73 00: 
             0x00006c04: 70 72 69 6e: 
             0x00006c08: 74 68 65 78: 
             0x00006c0c: 2e 6d 61 78: 
             0x00006c10: 63 68 61 6e: 
             0x00006c14: 65 6e 64 73: 
             0x00006c18: 00 70 72 69: 
             0x00006c1c: 6e 74 68 65: 
             0x00006c20: 78 6c 6e 2e: 
             0x00006c24: 6e 73 74 61: 
             0x00006c28: 63 6b 77 6f: 
             0x00006c2c: 72 64 73 00: 
             0x00006c30: 70 72 69 6e: 
             0x00006c34: 74 68 65 78: 
             0x00006c38: 6c 6e 2e 6d: 
             0x00006c3c: 61 78 63 6f: 
             0x00006c40: 72 65 73 00: 
             0x00006c44: 70 72 69 6e: 
             0x00006c48: 74 68 65 78: 
             0x00006c4c: 6c 6e 2e 6d: 
             0x00006c50: 61 78 74 69: 
             0x00006c54: 6d 65 72 73: 
             0x00006c58: 00 70 72 69: 
             0x00006c5c: 6e 74 68 65: 
             0x00006c60: 78 6c 6e 2e: 
             0x00006c64: 6d 61 78 63: 
             0x00006c68: 68 61 6e 65: 
             0x00006c6c: 6e 64 73 00: 
             0x00006c70: 70 72 69 6e: 
             0x00006c74: 74 6c 6c 6f: 
             0x00006c78: 6e 67 68 65: 
             0x00006c7c: 78 2e 6e 73: 
             0x00006c80: 74 61 63 6b: 
             0x00006c84: 77 6f 72 64: 
             0x00006c88: 73 00 70 72: 
             0x00006c8c: 69 6e 74 6c: 
             0x00006c90: 6c 6f 6e 67: 
             0x00006c94: 68 65 78 2e: 
             0x00006c98: 6d 61 78 63: 
             0x00006c9c: 6f 72 65 73: 
             0x00006ca0: 00 70 72 69: 
             0x00006ca4: 6e 74 6c 6c: 
             0x00006ca8: 6f 6e 67 68: 
             0x00006cac: 65 78 2e 6d: 
             0x00006cb0: 61 78 74 69: 
             0x00006cb4: 6d 65 72 73: 
             0x00006cb8: 00 70 72 69: 
             0x00006cbc: 6e 74 6c 6c: 
             0x00006cc0: 6f 6e 67 68: 
             0x00006cc4: 65 78 2e 6d: 
             0x00006cc8: 61 78 63 68: 
             0x00006ccc: 61 6e 65 6e: 
             0x00006cd0: 64 73 00 70: 
             0x00006cd4: 72 69 6e 74: 
             0x00006cd8: 6c 6c 6f 6e: 
             0x00006cdc: 67 68 65 78: 
             0x00006ce0: 6c 6e 2e 6e: 
             0x00006ce4: 73 74 61 63: 
             0x00006ce8: 6b 77 6f 72: 
             0x00006cec: 64 73 00 70: 
             0x00006cf0: 72 69 6e 74: 
             0x00006cf4: 6c 6c 6f 6e: 
             0x00006cf8: 67 68 65 78: 
             0x00006cfc: 6c 6e 2e 6d: 
             0x00006d00: 61 78 63 6f: 
             0x00006d04: 72 65 73 00: 
             0x00006d08: 70 72 69 6e: 
             0x00006d0c: 74 6c 6c 6f: 
             0x00006d10: 6e 67 68 65: 
             0x00006d14: 78 6c 6e 2e: 
             0x00006d18: 6d 61 78 74: 
             0x00006d1c: 69 6d 65 72: 
             0x00006d20: 73 00 70 72: 
             0x00006d24: 69 6e 74 6c: 
             0x00006d28: 6c 6f 6e 67: 
             0x00006d2c: 68 65 78 6c: 
             0x00006d30: 6e 2e 6d 61: 
             0x00006d34: 78 63 68 61: 
             0x00006d38: 6e 65 6e 64: 
             0x00006d3c: 73 00 73 61: 
             0x00006d40: 66 65 73 74: 
             0x00006d44: 72 6c 65 6e: 
             0x00006d48: 2e 6e 73 74: 
             0x00006d4c: 61 63 6b 77: 
             0x00006d50: 6f 72 64 73: 
             0x00006d54: 00 73 61 66: 
             0x00006d58: 65 73 74 72: 
             0x00006d5c: 6c 65 6e 2e: 
             0x00006d60: 6d 61 78 63: 
             0x00006d64: 6f 72 65 73: 
             0x00006d68: 00 73 61 66: 
             0x00006d6c: 65 73 74 72: 
             0x00006d70: 6c 65 6e 2e: 
             0x00006d74: 6d 61 78 74: 
             0x00006d78: 69 6d 65 72: 
             0x00006d7c: 73 00 73 61: 
             0x00006d80: 66 65 73 74: 
             0x00006d84: 72 6c 65 6e: 
             0x00006d88: 2e 6d 61 78: 
             0x00006d8c: 63 68 61 6e: 
             0x00006d90: 65 6e 64 73: 
             0x00006d94: 00 72 65 76: 
             0x00006d98: 65 72 73 65: 
             0x00006d9c: 5f 61 72 72: 
             0x00006da0: 61 79 00 72: 
             0x00006da4: 65 76 65 72: 
             0x00006da8: 73 65 5f 61: 
             0x00006dac: 72 72 61 79: 
             0x00006db0: 2e 6e 73 74: 
             0x00006db4: 61 63 6b 77: 
             0x00006db8: 6f 72 64 73: 
             0x00006dbc: 00 72 65 76: 
             0x00006dc0: 65 72 73 65: 
             0x00006dc4: 5f 61 72 72: 
             0x00006dc8: 61 79 2e 6d: 
             0x00006dcc: 61 78 63 6f: 
             0x00006dd0: 72 65 73 00: 
             0x00006dd4: 72 65 76 65: 
             0x00006dd8: 72 73 65 5f: 
             0x00006ddc: 61 72 72 61: 
             0x00006de0: 79 2e 6d 61: 
             0x00006de4: 78 74 69 6d: 
             0x00006de8: 65 72 73 00: 
             0x00006dec: 72 65 76 65: 
             0x00006df0: 72 73 65 5f: 
             0x00006df4: 61 72 72 61: 
             0x00006df8: 79 2e 6d 61: 
             0x00006dfc: 78 63 68 61: 
             0x00006e00: 6e 65 6e 64: 
             0x00006e04: 73 00 70 72: 
             0x00006e08: 69 6e 74 75: 
             0x00006e0c: 69 6e 74 5f: 
             0x00006e10: 62 61 73 65: 
             0x00006e14: 00 5f 5f 75: 
             0x00006e18: 64 69 76 64: 
             0x00006e1c: 69 33 2e 6e: 
             0x00006e20: 73 74 61 63: 
             0x00006e24: 6b 77 6f 72: 
             0x00006e28: 64 73 00 5f: 
             0x00006e2c: 5f 75 6d 6f: 
             0x00006e30: 64 64 69 33: 
             0x00006e34: 2e 6e 73 74: 
             0x00006e38: 61 63 6b 77: 
             0x00006e3c: 6f 72 64 73: 
             0x00006e40: 00 6e 65 77: 
             0x00006e44: 6c 69 6e 65: 
             0x00006e48: 00 64 69 67: 
             0x00006e4c: 69 74 73 00: 
             0x00006e50: 5f 77 72 69: 
             0x00006e54: 74 65 2e 63: 
             0x00006e58: 6f 65 72 73: 
             0x00006e5c: 65 64 2e 2e: 
             0x00006e60: 66 2e 37 62: 
             0x00006e64: 73 69 2e 37: 
             0x00006e68: 64 2e 32 38: 
             0x00006e6c: 73 69 2e 32: 
             0x00006e70: 63 2e 32 36: 
             0x00006e74: 2e 32 38 61: 
             0x00006e78: 2e 32 38 2e: 
             0x00006e7c: 33 61 63 2e: 
             0x00006e80: 33 61 75 63: 
             0x00006e84: 2e 32 39 2e: 
             0x00006e88: 32 39 2e 32: 
             0x00006e8c: 63 75 69 2e: 
             0x00006e90: 32 39 00 5f: 
             0x00006e94: 77 72 69 74: 
             0x00006e98: 65 2e 63 6f: 
             0x00006e9c: 65 72 73 65: 
             0x00006ea0: 64 2e 2e 66: 
             0x00006ea4: 2e 37 62 73: 
             0x00006ea8: 69 2e 37 64: 
             0x00006eac: 2e 32 38 73: 
             0x00006eb0: 69 2e 32 63: 
             0x00006eb4: 2e 32 36 2e: 
             0x00006eb8: 32 38 61 2e: 
             0x00006ebc: 32 38 2e 33: 
             0x00006ec0: 61 63 2e 33: 
             0x00006ec4: 61 75 63 2e: 
             0x00006ec8: 32 39 2e 32: 
             0x00006ecc: 39 2e 32 63: 
             0x00006ed0: 75 69 2e 32: 
             0x00006ed4: 39 2e 6e 73: 
             0x00006ed8: 74 61 63 6b: 
             0x00006edc: 77 6f 72 64: 
             0x00006ee0: 73 00 2e 2e: 
             0x00006ee4: 2f 2e 2e 2f: 
             0x00006ee8: 2e 2e 2f 2e: 
             0x00006eec: 2e 2f 2e 2e: 
             0x00006ef0: 2f 73 72 63: 
             0x00006ef4: 2f 6e 65 77: 
             0x00006ef8: 6c 69 62 2f: 
             0x00006efc: 6c 69 62 63: 
             0x00006f00: 2f 73 74 64: 
             0x00006f04: 6c 69 62 2f: 
             0x00006f08: 72 61 6e 64: 
             0x00006f0c: 2e 63 00 73: 
             0x00006f10: 72 61 6e 64: 
             0x00006f14: 2e 6c 6f 63: 
             0x00006f18: 6e 6f 73 69: 
             0x00006f1c: 64 65 00 73: 
             0x00006f20: 72 61 6e 64: 
             0x00006f24: 2e 6c 6f 63: 
             0x00006f28: 6e 6f 63 68: 
             0x00006f2c: 61 6e 64 65: 
             0x00006f30: 63 00 72 61: 
             0x00006f34: 6e 64 2e 6c: 
             0x00006f38: 6f 63 6e 6f: 
             0x00006f3c: 73 69 64 65: 
             0x00006f40: 00 72 61 6e: 
             0x00006f44: 64 2e 6c 6f: 
             0x00006f48: 63 6e 6f 63: 
             0x00006f4c: 68 61 6e 64: 
             0x00006f50: 65 63 00 5f: 
             0x00006f54: 72 61 6e 64: 
             0x00006f58: 5f 6e 65 78: 
             0x00006f5c: 74 00 73 79: 
             0x00006f60: 73 63 61 6c: 
             0x00006f64: 6c 2e 53 00: 
             0x00006f68: 2e 2e 2f 2e: 
             0x00006f6c: 2e 2f 2e 2e: 
             0x00006f70: 2f 2e 2e 2f: 
             0x00006f74: 2e 2e 2f 2e: 
             0x00006f78: 2e 2f 73 72: 
             0x00006f7c: 63 2f 6e 65: 
             0x00006f80: 77 6c 69 62: 
             0x00006f84: 2f 6c 69 62: 
             0x00006f88: 63 2f 6d 61: 
             0x00006f8c: 63 68 69 6e: 
             0x00006f90: 65 2f 78 63: 
             0x00006f94: 6f 72 65 2f: 
             0x00006f98: 5f 5f 63 61: 
             0x00006f9c: 6c 6c 5f 61: 
             0x00006fa0: 74 65 78 69: 
             0x00006fa4: 74 2e 63 00: 
             0x00006fa8: 5f 5f 63 61: 
             0x00006fac: 6c 6c 5f 65: 
             0x00006fb0: 78 69 74 70: 
             0x00006fb4: 72 6f 63 73: 
             0x00006fb8: 5f 69 6d 70: 
             0x00006fbc: 6c 2e 6c 6f: 
             0x00006fc0: 63 6e 6f 73: 
             0x00006fc4: 69 64 65 00: 
             0x00006fc8: 5f 5f 63 61: 
             0x00006fcc: 6c 6c 5f 65: 
             0x00006fd0: 78 69 74 70: 
             0x00006fd4: 72 6f 63 73: 
             0x00006fd8: 5f 69 6d 70: 
             0x00006fdc: 6c 00 5f 5f: 
             0x00006fe0: 63 61 6c 6c: 
             0x00006fe4: 5f 65 78 69: 
             0x00006fe8: 74 70 72 6f: 
             0x00006fec: 63 73 5f 69: 
             0x00006ff0: 6d 70 6c 2e: 
             0x00006ff4: 6c 6f 63 6e: 
             0x00006ff8: 6f 63 68 61: 
             0x00006ffc: 6e 64 65 63: 
             0x00007000: 00 5f 5f 63: 
             0x00007004: 61 6c 6c 5f: 
             0x00007008: 65 78 69 74: 
             0x0000700c: 70 72 6f 63: 
             0x00007010: 73 2e 6c 6f: 
             0x00007014: 63 6e 6f 73: 
             0x00007018: 69 64 65 00: 
             0x0000701c: 5f 5f 63 61: 
             0x00007020: 6c 6c 5f 65: 
             0x00007024: 78 69 74 70: 
             0x00007028: 72 6f 63 73: 
             0x0000702c: 2e 6c 6f 63: 
             0x00007030: 6e 6f 63 68: 
             0x00007034: 61 6e 64 65: 
             0x00007038: 63 00 5f 5f: 
             0x0000703c: 63 61 6c 6c: 
             0x00007040: 5f 65 78 69: 
             0x00007044: 74 70 72 6f: 
             0x00007048: 63 73 5f 69: 
             0x0000704c: 6d 70 6c 2e: 
             0x00007050: 6e 73 74 61: 
             0x00007054: 63 6b 77 6f: 
             0x00007058: 72 64 73 00: 
             0x0000705c: 5f 5f 63 61: 
             0x00007060: 6c 6c 5f 65: 
             0x00007064: 78 69 74 70: 
             0x00007068: 72 6f 63 73: 
             0x0000706c: 5f 69 6d 70: 
             0x00007070: 6c 2e 6d 61: 
             0x00007074: 78 63 6f 72: 
             0x00007078: 65 73 00 5f: 
             0x0000707c: 5f 63 61 6c: 
             0x00007080: 6c 5f 65 78: 
             0x00007084: 69 74 70 72: 
             0x00007088: 6f 63 73 5f: 
             0x0000708c: 69 6d 70 6c: 
             0x00007090: 2e 6d 61 78: 
             0x00007094: 74 69 6d 65: 
             0x00007098: 72 73 00 5f: 
             0x0000709c: 5f 63 61 6c: 
             0x000070a0: 6c 5f 65 78: 
             0x000070a4: 69 74 70 72: 
             0x000070a8: 6f 63 73 5f: 
             0x000070ac: 69 6d 70 6c: 
             0x000070b0: 2e 6d 61 78: 
             0x000070b4: 63 68 61 6e: 
             0x000070b8: 65 6e 64 73: 
             0x000070bc: 00 2e 2e 2f: 
             0x000070c0: 2e 2e 2f 2e: 
             0x000070c4: 2e 2f 2e 2e: 
             0x000070c8: 2f 2e 2e 2f: 
             0x000070cc: 2e 2e 2f 73: 
             0x000070d0: 72 63 2f 6e: 
             0x000070d4: 65 77 6c 69: 
             0x000070d8: 62 2f 6c 69: 
             0x000070dc: 62 63 2f 73: 
             0x000070e0: 79 73 2f 78: 
             0x000070e4: 63 6f 72 65: 
             0x000070e8: 2f 6c 6f 63: 
             0x000070ec: 6b 2e 63 00: 
             0x000070f0: 5f 5f 61 6c: 
             0x000070f4: 6c 6f 63 5f: 
             0x000070f8: 6c 69 62 63: 
             0x000070fc: 5f 68 77 6c: 
             0x00007100: 6f 63 6b 2e: 
             0x00007104: 6c 6f 63 6e: 
             0x00007108: 6f 73 69 64: 
             0x0000710c: 65 00 5f 5f: 
             0x00007110: 61 6c 6c 6f: 
             0x00007114: 63 5f 6c 69: 
             0x00007118: 62 63 5f 68: 
             0x0000711c: 77 6c 6f 63: 
             0x00007120: 6b 2e 6c 6f: 
             0x00007124: 63 6e 6f 63: 
             0x00007128: 68 61 6e 64: 
             0x0000712c: 65 63 00 5f: 
             0x00007130: 5f 66 72 65: 
             0x00007134: 65 5f 6c 69: 
             0x00007138: 62 63 5f 68: 
             0x0000713c: 77 6c 6f 63: 
             0x00007140: 6b 2e 6c 6f: 
             0x00007144: 63 6e 6f 73: 
             0x00007148: 69 64 65 00: 
             0x0000714c: 5f 5f 66 72: 
             0x00007150: 65 65 5f 6c: 
             0x00007154: 69 62 63 5f: 
             0x00007158: 68 77 6c 6f: 
             0x0000715c: 63 6b 2e 6c: 
             0x00007160: 6f 63 6e 6f: 
             0x00007164: 63 68 61 6e: 
             0x00007168: 64 65 63 00: 
             0x0000716c: 5f 5f 73 70: 
             0x00007170: 69 6e 5f 6c: 
             0x00007174: 6f 63 6b 5f: 
             0x00007178: 69 6e 69 74: 
             0x0000717c: 2e 6c 6f 63: 
             0x00007180: 6e 6f 73 69: 
             0x00007184: 64 65 00 5f: 
             0x00007188: 5f 73 70 69: 
             0x0000718c: 6e 5f 6c 6f: 
             0x00007190: 63 6b 5f 69: 
             0x00007194: 6e 69 74 2e: 
             0x00007198: 6c 6f 63 6e: 
             0x0000719c: 6f 63 68 61: 
             0x000071a0: 6e 64 65 63: 
             0x000071a4: 00 5f 5f 73: 
             0x000071a8: 70 69 6e 5f: 
             0x000071ac: 6c 6f 63 6b: 
             0x000071b0: 5f 63 6c 6f: 
             0x000071b4: 73 65 2e 6c: 
             0x000071b8: 6f 63 6e 6f: 
             0x000071bc: 73 69 64 65: 
             0x000071c0: 00 5f 5f 73: 
             0x000071c4: 70 69 6e 5f: 
             0x000071c8: 6c 6f 63 6b: 
             0x000071cc: 5f 63 6c 6f: 
             0x000071d0: 73 65 2e 6c: 
             0x000071d4: 6f 63 6e 6f: 
             0x000071d8: 63 68 61 6e: 
             0x000071dc: 64 65 63 00: 
             0x000071e0: 5f 5f 73 70: 
             0x000071e4: 69 6e 5f 6c: 
             0x000071e8: 6f 63 6b 5f: 
             0x000071ec: 61 63 71 75: 
             0x000071f0: 69 72 65 2e: 
             0x000071f4: 6c 6f 63 6e: 
             0x000071f8: 6f 73 69 64: 
             0x000071fc: 65 00 5f 5f: 
             0x00007200: 73 70 69 6e: 
             0x00007204: 5f 6c 6f 63: 
             0x00007208: 6b 5f 61 63: 
             0x0000720c: 71 75 69 72: 
             0x00007210: 65 2e 6c 6f: 
             0x00007214: 63 6e 6f 63: 
             0x00007218: 68 61 6e 64: 
             0x0000721c: 65 63 00 5f: 
             0x00007220: 5f 73 70 69: 
             0x00007224: 6e 5f 6c 6f: 
             0x00007228: 63 6b 5f 74: 
             0x0000722c: 72 79 5f 61: 
             0x00007230: 63 71 75 69: 
             0x00007234: 72 65 2e 6c: 
             0x00007238: 6f 63 6e 6f: 
             0x0000723c: 73 69 64 65: 
             0x00007240: 00 5f 5f 73: 
             0x00007244: 70 69 6e 5f: 
             0x00007248: 6c 6f 63 6b: 
             0x0000724c: 5f 74 72 79: 
             0x00007250: 5f 61 63 71: 
             0x00007254: 75 69 72 65: 
             0x00007258: 2e 6c 6f 63: 
             0x0000725c: 6e 6f 63 68: 
             0x00007260: 61 6e 64 65: 
             0x00007264: 63 00 5f 5f: 
             0x00007268: 73 70 69 6e: 
             0x0000726c: 5f 6c 6f 63: 
             0x00007270: 6b 5f 72 65: 
             0x00007274: 6c 65 61 73: 
             0x00007278: 65 2e 6c 6f: 
             0x0000727c: 63 6e 6f 73: 
             0x00007280: 69 64 65 00: 
             0x00007284: 5f 5f 73 70: 
             0x00007288: 69 6e 5f 6c: 
             0x0000728c: 6f 63 6b 5f: 
             0x00007290: 72 65 6c 65: 
             0x00007294: 61 73 65 2e: 
             0x00007298: 6c 6f 63 6e: 
             0x0000729c: 6f 63 68 61: 
             0x000072a0: 6e 64 65 63: 
             0x000072a4: 00 5f 5f 73: 
             0x000072a8: 70 69 6e 5f: 
             0x000072ac: 6c 6f 63 6b: 
             0x000072b0: 5f 69 6e 69: 
             0x000072b4: 74 5f 72 65: 
             0x000072b8: 63 75 72 73: 
             0x000072bc: 69 76 65 2e: 
             0x000072c0: 6c 6f 63 6e: 
             0x000072c4: 6f 73 69 64: 
             0x000072c8: 65 00 5f 5f: 
             0x000072cc: 73 70 69 6e: 
             0x000072d0: 5f 6c 6f 63: 
             0x000072d4: 6b 5f 69 6e: 
             0x000072d8: 69 74 5f 72: 
             0x000072dc: 65 63 75 72: 
             0x000072e0: 73 69 76 65: 
             0x000072e4: 2e 6c 6f 63: 
             0x000072e8: 6e 6f 63 68: 
             0x000072ec: 61 6e 64 65: 
             0x000072f0: 63 00 5f 5f: 
             0x000072f4: 73 70 69 6e: 
             0x000072f8: 5f 6c 6f 63: 
             0x000072fc: 6b 5f 63 6c: 
             0x00007300: 6f 73 65 5f: 
             0x00007304: 72 65 63 75: 
             0x00007308: 72 73 69 76: 
             0x0000730c: 65 2e 6c 6f: 
             0x00007310: 63 6e 6f 73: 
             0x00007314: 69 64 65 00: 
             0x00007318: 5f 5f 73 70: 
             0x0000731c: 69 6e 5f 6c: 
             0x00007320: 6f 63 6b 5f: 
             0x00007324: 63 6c 6f 73: 
             0x00007328: 65 5f 72 65: 
             0x0000732c: 63 75 72 73: 
             0x00007330: 69 76 65 2e: 
             0x00007334: 6c 6f 63 6e: 
             0x00007338: 6f 63 68 61: 
             0x0000733c: 6e 64 65 63: 
             0x00007340: 00 5f 5f 73: 
             0x00007344: 70 69 6e 5f: 
             0x00007348: 6c 6f 63 6b: 
             0x0000734c: 5f 72 65 6c: 
             0x00007350: 65 61 73 65: 
             0x00007354: 5f 72 65 63: 
             0x00007358: 75 72 73 69: 
             0x0000735c: 76 65 2e 6c: 
             0x00007360: 6f 63 6e 6f: 
             0x00007364: 73 69 64 65: 
             0x00007368: 00 5f 5f 73: 
             0x0000736c: 70 69 6e 5f: 
             0x00007370: 6c 6f 63 6b: 
             0x00007374: 5f 72 65 6c: 
             0x00007378: 65 61 73 65: 
             0x0000737c: 5f 72 65 63: 
             0x00007380: 75 72 73 69: 
             0x00007384: 76 65 2e 6c: 
             0x00007388: 6f 63 6e 6f: 
             0x0000738c: 63 68 61 6e: 
             0x00007390: 64 65 63 00: 
             0x00007394: 5f 5f 73 70: 
             0x00007398: 69 6e 5f 6c: 
             0x0000739c: 6f 63 6b 5f: 
             0x000073a0: 74 72 79 5f: 
             0x000073a4: 61 63 71 75: 
             0x000073a8: 69 72 65 5f: 
             0x000073ac: 72 65 63 75: 
             0x000073b0: 72 73 69 76: 
             0x000073b4: 65 2e 6c 6f: 
             0x000073b8: 63 6e 6f 73: 
             0x000073bc: 69 64 65 00: 
             0x000073c0: 5f 5f 73 70: 
             0x000073c4: 69 6e 5f 6c: 
             0x000073c8: 6f 63 6b 5f: 
             0x000073cc: 74 72 79 5f: 
             0x000073d0: 61 63 71 75: 
             0x000073d4: 69 72 65 5f: 
             0x000073d8: 72 65 63 75: 
             0x000073dc: 72 73 69 76: 
             0x000073e0: 65 2e 6c 6f: 
             0x000073e4: 63 6e 6f 63: 
             0x000073e8: 68 61 6e 64: 
             0x000073ec: 65 63 00 5f: 
             0x000073f0: 5f 73 70 69: 
             0x000073f4: 6e 5f 6c 6f: 
             0x000073f8: 63 6b 5f 61: 
             0x000073fc: 63 71 75 69: 
             0x00007400: 72 65 5f 72: 
             0x00007404: 65 63 75 72: 
             0x00007408: 73 69 76 65: 
             0x0000740c: 2e 6c 6f 63: 
             0x00007410: 6e 6f 73 69: 
             0x00007414: 64 65 00 5f: 
             0x00007418: 5f 73 70 69: 
             0x0000741c: 6e 5f 6c 6f: 
             0x00007420: 63 6b 5f 61: 
             0x00007424: 63 71 75 69: 
             0x00007428: 72 65 5f 72: 
             0x0000742c: 65 63 75 72: 
             0x00007430: 73 69 76 65: 
             0x00007434: 2e 6c 6f 63: 
             0x00007438: 6e 6f 63 68: 
             0x0000743c: 61 6e 64 65: 
             0x00007440: 63 00 5f 5f: 
             0x00007444: 61 6c 6c 6f: 
             0x00007448: 63 5f 6c 69: 
             0x0000744c: 62 63 5f 68: 
             0x00007450: 77 6c 6f 63: 
             0x00007454: 6b 2e 6e 73: 
             0x00007458: 74 61 63 6b: 
             0x0000745c: 77 6f 72 64: 
             0x00007460: 73 00 5f 5f: 
             0x00007464: 61 6c 6c 6f: 
             0x00007468: 63 5f 6c 69: 
             0x0000746c: 62 63 5f 68: 
             0x00007470: 77 6c 6f 63: 
             0x00007474: 6b 2e 6d 61: 
             0x00007478: 78 63 6f 72: 
             0x0000747c: 65 73 00 5f: 
             0x00007480: 5f 61 6c 6c: 
             0x00007484: 6f 63 5f 6c: 
             0x00007488: 69 62 63 5f: 
             0x0000748c: 68 77 6c 6f: 
             0x00007490: 63 6b 2e 6d: 
             0x00007494: 61 78 74 69: 
             0x00007498: 6d 65 72 73: 
             0x0000749c: 00 5f 5f 61: 
             0x000074a0: 6c 6c 6f 63: 
             0x000074a4: 5f 6c 69 62: 
             0x000074a8: 63 5f 68 77: 
             0x000074ac: 6c 6f 63 6b: 
             0x000074b0: 2e 6d 61 78: 
             0x000074b4: 63 68 61 6e: 
             0x000074b8: 65 6e 64 73: 
             0x000074bc: 00 5f 5f 66: 
             0x000074c0: 72 65 65 5f: 
             0x000074c4: 6c 69 62 63: 
             0x000074c8: 5f 68 77 6c: 
             0x000074cc: 6f 63 6b 2e: 
             0x000074d0: 6e 73 74 61: 
             0x000074d4: 63 6b 77 6f: 
             0x000074d8: 72 64 73 00: 
             0x000074dc: 5f 5f 66 72: 
             0x000074e0: 65 65 5f 6c: 
             0x000074e4: 69 62 63 5f: 
             0x000074e8: 68 77 6c 6f: 
             0x000074ec: 63 6b 2e 6d: 
             0x000074f0: 61 78 63 6f: 
             0x000074f4: 72 65 73 00: 
             0x000074f8: 5f 5f 66 72: 
             0x000074fc: 65 65 5f 6c: 
             0x00007500: 69 62 63 5f: 
             0x00007504: 68 77 6c 6f: 
             0x00007508: 63 6b 2e 6d: 
             0x0000750c: 61 78 74 69: 
             0x00007510: 6d 65 72 73: 
             0x00007514: 00 5f 5f 66: 
             0x00007518: 72 65 65 5f: 
             0x0000751c: 6c 69 62 63: 
             0x00007520: 5f 68 77 6c: 
             0x00007524: 6f 63 6b 2e: 
             0x00007528: 6d 61 78 63: 
             0x0000752c: 68 61 6e 65: 
             0x00007530: 6e 64 73 00: 
             0x00007534: 5f 5f 73 70: 
             0x00007538: 69 6e 5f 6c: 
             0x0000753c: 6f 63 6b 5f: 
             0x00007540: 69 6e 69 74: 
             0x00007544: 2e 6e 73 74: 
             0x00007548: 61 63 6b 77: 
             0x0000754c: 6f 72 64 73: 
             0x00007550: 00 5f 5f 73: 
             0x00007554: 70 69 6e 5f: 
             0x00007558: 6c 6f 63 6b: 
             0x0000755c: 5f 69 6e 69: 
             0x00007560: 74 2e 6d 61: 
             0x00007564: 78 63 6f 72: 
             0x00007568: 65 73 00 5f: 
             0x0000756c: 5f 73 70 69: 
             0x00007570: 6e 5f 6c 6f: 
             0x00007574: 63 6b 5f 69: 
             0x00007578: 6e 69 74 2e: 
             0x0000757c: 6d 61 78 74: 
             0x00007580: 69 6d 65 72: 
             0x00007584: 73 00 5f 5f: 
             0x00007588: 73 70 69 6e: 
             0x0000758c: 5f 6c 6f 63: 
             0x00007590: 6b 5f 69 6e: 
             0x00007594: 69 74 2e 6d: 
             0x00007598: 61 78 63 68: 
             0x0000759c: 61 6e 65 6e: 
             0x000075a0: 64 73 00 5f: 
             0x000075a4: 5f 73 70 69: 
             0x000075a8: 6e 5f 6c 6f: 
             0x000075ac: 63 6b 5f 63: 
             0x000075b0: 6c 6f 73 65: 
             0x000075b4: 2e 6e 73 74: 
             0x000075b8: 61 63 6b 77: 
             0x000075bc: 6f 72 64 73: 
             0x000075c0: 00 5f 5f 73: 
             0x000075c4: 70 69 6e 5f: 
             0x000075c8: 6c 6f 63 6b: 
             0x000075cc: 5f 63 6c 6f: 
             0x000075d0: 73 65 2e 6d: 
             0x000075d4: 61 78 63 6f: 
             0x000075d8: 72 65 73 00: 
             0x000075dc: 5f 5f 73 70: 
             0x000075e0: 69 6e 5f 6c: 
             0x000075e4: 6f 63 6b 5f: 
             0x000075e8: 63 6c 6f 73: 
             0x000075ec: 65 2e 6d 61: 
             0x000075f0: 78 74 69 6d: 
             0x000075f4: 65 72 73 00: 
             0x000075f8: 5f 5f 73 70: 
             0x000075fc: 69 6e 5f 6c: 
             0x00007600: 6f 63 6b 5f: 
             0x00007604: 63 6c 6f 73: 
             0x00007608: 65 2e 6d 61: 
             0x0000760c: 78 63 68 61: 
             0x00007610: 6e 65 6e 64: 
             0x00007614: 73 00 5f 5f: 
             0x00007618: 73 70 69 6e: 
             0x0000761c: 5f 6c 6f 63: 
             0x00007620: 6b 5f 61 63: 
             0x00007624: 71 75 69 72: 
             0x00007628: 65 2e 6e 73: 
             0x0000762c: 74 61 63 6b: 
             0x00007630: 77 6f 72 64: 
             0x00007634: 73 00 5f 5f: 
             0x00007638: 73 70 69 6e: 
             0x0000763c: 5f 6c 6f 63: 
             0x00007640: 6b 5f 61 63: 
             0x00007644: 71 75 69 72: 
             0x00007648: 65 2e 6d 61: 
             0x0000764c: 78 63 6f 72: 
             0x00007650: 65 73 00 5f: 
             0x00007654: 5f 73 70 69: 
             0x00007658: 6e 5f 6c 6f: 
             0x0000765c: 63 6b 5f 61: 
             0x00007660: 63 71 75 69: 
             0x00007664: 72 65 2e 6d: 
             0x00007668: 61 78 74 69: 
             0x0000766c: 6d 65 72 73: 
             0x00007670: 00 5f 5f 73: 
             0x00007674: 70 69 6e 5f: 
             0x00007678: 6c 6f 63 6b: 
             0x0000767c: 5f 61 63 71: 
             0x00007680: 75 69 72 65: 
             0x00007684: 2e 6d 61 78: 
             0x00007688: 63 68 61 6e: 
             0x0000768c: 65 6e 64 73: 
             0x00007690: 00 5f 5f 73: 
             0x00007694: 70 69 6e 5f: 
             0x00007698: 6c 6f 63 6b: 
             0x0000769c: 5f 72 65 6c: 
             0x000076a0: 65 61 73 65: 
             0x000076a4: 2e 6e 73 74: 
             0x000076a8: 61 63 6b 77: 
             0x000076ac: 6f 72 64 73: 
             0x000076b0: 00 5f 5f 73: 
             0x000076b4: 70 69 6e 5f: 
             0x000076b8: 6c 6f 63 6b: 
             0x000076bc: 5f 72 65 6c: 
             0x000076c0: 65 61 73 65: 
             0x000076c4: 2e 6d 61 78: 
             0x000076c8: 63 6f 72 65: 
             0x000076cc: 73 00 5f 5f: 
             0x000076d0: 73 70 69 6e: 
             0x000076d4: 5f 6c 6f 63: 
             0x000076d8: 6b 5f 72 65: 
             0x000076dc: 6c 65 61 73: 
             0x000076e0: 65 2e 6d 61: 
             0x000076e4: 78 74 69 6d: 
             0x000076e8: 65 72 73 00: 
             0x000076ec: 5f 5f 73 70: 
             0x000076f0: 69 6e 5f 6c: 
             0x000076f4: 6f 63 6b 5f: 
             0x000076f8: 72 65 6c 65: 
             0x000076fc: 61 73 65 2e: 
             0x00007700: 6d 61 78 63: 
             0x00007704: 68 61 6e 65: 
             0x00007708: 6e 64 73 00: 
             0x0000770c: 5f 5f 73 70: 
             0x00007710: 69 6e 5f 6c: 
             0x00007714: 6f 63 6b 5f: 
             0x00007718: 69 6e 69 74: 
             0x0000771c: 5f 72 65 63: 
             0x00007720: 75 72 73 69: 
             0x00007724: 76 65 2e 6e: 
             0x00007728: 73 74 61 63: 
             0x0000772c: 6b 77 6f 72: 
             0x00007730: 64 73 00 5f: 
             0x00007734: 5f 73 70 69: 
             0x00007738: 6e 5f 6c 6f: 
             0x0000773c: 63 6b 5f 69: 
             0x00007740: 6e 69 74 5f: 
             0x00007744: 72 65 63 75: 
             0x00007748: 72 73 69 76: 
             0x0000774c: 65 2e 6d 61: 
             0x00007750: 78 63 6f 72: 
             0x00007754: 65 73 00 5f: 
             0x00007758: 5f 73 70 69: 
             0x0000775c: 6e 5f 6c 6f: 
             0x00007760: 63 6b 5f 69: 
             0x00007764: 6e 69 74 5f: 
             0x00007768: 72 65 63 75: 
             0x0000776c: 72 73 69 76: 
             0x00007770: 65 2e 6d 61: 
             0x00007774: 78 74 69 6d: 
             0x00007778: 65 72 73 00: 
             0x0000777c: 5f 5f 73 70: 
             0x00007780: 69 6e 5f 6c: 
             0x00007784: 6f 63 6b 5f: 
             0x00007788: 69 6e 69 74: 
             0x0000778c: 5f 72 65 63: 
             0x00007790: 75 72 73 69: 
             0x00007794: 76 65 2e 6d: 
             0x00007798: 61 78 63 68: 
             0x0000779c: 61 6e 65 6e: 
             0x000077a0: 64 73 00 5f: 
             0x000077a4: 5f 73 70 69: 
             0x000077a8: 6e 5f 6c 6f: 
             0x000077ac: 63 6b 5f 63: 
             0x000077b0: 6c 6f 73 65: 
             0x000077b4: 5f 72 65 63: 
             0x000077b8: 75 72 73 69: 
             0x000077bc: 76 65 2e 6e: 
             0x000077c0: 73 74 61 63: 
             0x000077c4: 6b 77 6f 72: 
             0x000077c8: 64 73 00 5f: 
             0x000077cc: 5f 73 70 69: 
             0x000077d0: 6e 5f 6c 6f: 
             0x000077d4: 63 6b 5f 63: 
             0x000077d8: 6c 6f 73 65: 
             0x000077dc: 5f 72 65 63: 
             0x000077e0: 75 72 73 69: 
             0x000077e4: 76 65 2e 6d: 
             0x000077e8: 61 78 63 6f: 
             0x000077ec: 72 65 73 00: 
             0x000077f0: 5f 5f 73 70: 
             0x000077f4: 69 6e 5f 6c: 
             0x000077f8: 6f 63 6b 5f: 
             0x000077fc: 63 6c 6f 73: 
             0x00007800: 65 5f 72 65: 
             0x00007804: 63 75 72 73: 
             0x00007808: 69 76 65 2e: 
             0x0000780c: 6d 61 78 74: 
             0x00007810: 69 6d 65 72: 
             0x00007814: 73 00 5f 5f: 
             0x00007818: 73 70 69 6e: 
             0x0000781c: 5f 6c 6f 63: 
             0x00007820: 6b 5f 63 6c: 
             0x00007824: 6f 73 65 5f: 
             0x00007828: 72 65 63 75: 
             0x0000782c: 72 73 69 76: 
             0x00007830: 65 2e 6d 61: 
             0x00007834: 78 63 68 61: 
             0x00007838: 6e 65 6e 64: 
             0x0000783c: 73 00 5f 5f: 
             0x00007840: 73 70 69 6e: 
             0x00007844: 5f 6c 6f 63: 
             0x00007848: 6b 5f 72 65: 
             0x0000784c: 6c 65 61 73: 
             0x00007850: 65 5f 72 65: 
             0x00007854: 63 75 72 73: 
             0x00007858: 69 76 65 2e: 
             0x0000785c: 6e 73 74 61: 
             0x00007860: 63 6b 77 6f: 
             0x00007864: 72 64 73 00: 
             0x00007868: 5f 5f 73 70: 
             0x0000786c: 69 6e 5f 6c: 
             0x00007870: 6f 63 6b 5f: 
             0x00007874: 72 65 6c 65: 
             0x00007878: 61 73 65 5f: 
             0x0000787c: 72 65 63 75: 
             0x00007880: 72 73 69 76: 
             0x00007884: 65 2e 6d 61: 
             0x00007888: 78 63 6f 72: 
             0x0000788c: 65 73 00 5f: 
             0x00007890: 5f 73 70 69: 
             0x00007894: 6e 5f 6c 6f: 
             0x00007898: 63 6b 5f 72: 
             0x0000789c: 65 6c 65 61: 
             0x000078a0: 73 65 5f 72: 
             0x000078a4: 65 63 75 72: 
             0x000078a8: 73 69 76 65: 
             0x000078ac: 2e 6d 61 78: 
             0x000078b0: 74 69 6d 65: 
             0x000078b4: 72 73 00 5f: 
             0x000078b8: 5f 73 70 69: 
             0x000078bc: 6e 5f 6c 6f: 
             0x000078c0: 63 6b 5f 72: 
             0x000078c4: 65 6c 65 61: 
             0x000078c8: 73 65 5f 72: 
             0x000078cc: 65 63 75 72: 
             0x000078d0: 73 69 76 65: 
             0x000078d4: 2e 6d 61 78: 
             0x000078d8: 63 68 61 6e: 
             0x000078dc: 65 6e 64 73: 
             0x000078e0: 00 5f 5f 73: 
             0x000078e4: 70 69 6e 5f: 
             0x000078e8: 6c 6f 63 6b: 
             0x000078ec: 5f 74 72 79: 
             0x000078f0: 5f 61 63 71: 
             0x000078f4: 75 69 72 65: 
             0x000078f8: 5f 72 65 63: 
             0x000078fc: 75 72 73 69: 
             0x00007900: 76 65 2e 6e: 
             0x00007904: 73 74 61 63: 
             0x00007908: 6b 77 6f 72: 
             0x0000790c: 64 73 00 5f: 
             0x00007910: 5f 73 70 69: 
             0x00007914: 6e 5f 6c 6f: 
             0x00007918: 63 6b 5f 74: 
             0x0000791c: 72 79 5f 61: 
             0x00007920: 63 71 75 69: 
             0x00007924: 72 65 5f 72: 
             0x00007928: 65 63 75 72: 
             0x0000792c: 73 69 76 65: 
             0x00007930: 2e 6d 61 78: 
             0x00007934: 63 6f 72 65: 
             0x00007938: 73 00 5f 5f: 
             0x0000793c: 73 70 69 6e: 
             0x00007940: 5f 6c 6f 63: 
             0x00007944: 6b 5f 74 72: 
             0x00007948: 79 5f 61 63: 
             0x0000794c: 71 75 69 72: 
             0x00007950: 65 5f 72 65: 
             0x00007954: 63 75 72 73: 
             0x00007958: 69 76 65 2e: 
             0x0000795c: 6d 61 78 74: 
             0x00007960: 69 6d 65 72: 
             0x00007964: 73 00 5f 5f: 
             0x00007968: 73 70 69 6e: 
             0x0000796c: 5f 6c 6f 63: 
             0x00007970: 6b 5f 74 72: 
             0x00007974: 79 5f 61 63: 
             0x00007978: 71 75 69 72: 
             0x0000797c: 65 5f 72 65: 
             0x00007980: 63 75 72 73: 
             0x00007984: 69 76 65 2e: 
             0x00007988: 6d 61 78 63: 
             0x0000798c: 68 61 6e 65: 
             0x00007990: 6e 64 73 00: 
             0x00007994: 5f 5f 73 70: 
             0x00007998: 69 6e 5f 6c: 
             0x0000799c: 6f 63 6b 5f: 
             0x000079a0: 61 63 71 75: 
             0x000079a4: 69 72 65 5f: 
             0x000079a8: 72 65 63 75: 
             0x000079ac: 72 73 69 76: 
             0x000079b0: 65 2e 6e 73: 
             0x000079b4: 74 61 63 6b: 
             0x000079b8: 77 6f 72 64: 
             0x000079bc: 73 00 5f 5f: 
             0x000079c0: 73 70 69 6e: 
             0x000079c4: 5f 6c 6f 63: 
             0x000079c8: 6b 5f 61 63: 
             0x000079cc: 71 75 69 72: 
             0x000079d0: 65 5f 72 65: 
             0x000079d4: 63 75 72 73: 
             0x000079d8: 69 76 65 2e: 
             0x000079dc: 6d 61 78 63: 
             0x000079e0: 6f 72 65 73: 
             0x000079e4: 00 5f 5f 73: 
             0x000079e8: 70 69 6e 5f: 
             0x000079ec: 6c 6f 63 6b: 
             0x000079f0: 5f 61 63 71: 
             0x000079f4: 75 69 72 65: 
             0x000079f8: 5f 72 65 63: 
             0x000079fc: 75 72 73 69: 
             0x00007a00: 76 65 2e 6d: 
             0x00007a04: 61 78 74 69: 
             0x00007a08: 6d 65 72 73: 
             0x00007a0c: 00 5f 5f 73: 
             0x00007a10: 70 69 6e 5f: 
             0x00007a14: 6c 6f 63 6b: 
             0x00007a18: 5f 61 63 71: 
             0x00007a1c: 75 69 72 65: 
             0x00007a20: 5f 72 65 63: 
             0x00007a24: 75 72 73 69: 
             0x00007a28: 76 65 2e 6d: 
             0x00007a2c: 61 78 63 68: 
             0x00007a30: 61 6e 65 6e: 
             0x00007a34: 64 73 00 5f: 
             0x00007a38: 5f 6c 69 62: 
             0x00007a3c: 63 5f 68 77: 
             0x00007a40: 6c 6f 63 6b: 
             0x00007a44: 00 2e 2e 2f: 
             0x00007a48: 2e 2e 2f 73: 
             0x00007a4c: 72 63 2f 67: 
             0x00007a50: 63 63 2f 6c: 
             0x00007a54: 69 62 67 63: 
             0x00007a58: 63 32 2e 63: 
             0x00007a5c: 00 5f 5f 75: 
             0x00007a60: 64 69 76 64: 
             0x00007a64: 69 33 2e 6c: 
             0x00007a68: 6f 63 6e 6f: 
             0x00007a6c: 73 69 64 65: 
             0x00007a70: 00 5f 5f 75: 
             0x00007a74: 64 69 76 64: 
             0x00007a78: 69 33 2e 6c: 
             0x00007a7c: 6f 63 6e 6f: 
             0x00007a80: 63 68 61 6e: 
             0x00007a84: 64 65 63 00: 
             0x00007a88: 5f 5f 75 64: 
             0x00007a8c: 69 76 64 69: 
             0x00007a90: 33 2e 6d 61: 
             0x00007a94: 78 63 6f 72: 
             0x00007a98: 65 73 00 5f: 
             0x00007a9c: 5f 75 64 69: 
             0x00007aa0: 76 64 69 33: 
             0x00007aa4: 2e 6d 61 78: 
             0x00007aa8: 74 69 6d 65: 
             0x00007aac: 72 73 00 5f: 
             0x00007ab0: 5f 75 64 69: 
             0x00007ab4: 76 64 69 33: 
             0x00007ab8: 2e 6d 61 78: 
             0x00007abc: 63 68 61 6e: 
             0x00007ac0: 65 6e 64 73: 
             0x00007ac4: 00 5f 5f 75: 
             0x00007ac8: 6d 6f 64 64: 
             0x00007acc: 69 33 2e 6c: 
             0x00007ad0: 6f 63 6e 6f: 
             0x00007ad4: 73 69 64 65: 
             0x00007ad8: 00 5f 5f 75: 
             0x00007adc: 6d 6f 64 64: 
             0x00007ae0: 69 33 2e 6c: 
             0x00007ae4: 6f 63 6e 6f: 
             0x00007ae8: 63 68 61 6e: 
             0x00007aec: 64 65 63 00: 
             0x00007af0: 5f 5f 75 6d: 
             0x00007af4: 6f 64 64 69: 
             0x00007af8: 33 2e 6d 61: 
             0x00007afc: 78 63 6f 72: 
             0x00007b00: 65 73 00 5f: 
             0x00007b04: 5f 75 6d 6f: 
             0x00007b08: 64 64 69 33: 
             0x00007b0c: 2e 6d 61 78: 
             0x00007b10: 74 69 6d 65: 
             0x00007b14: 72 73 00 5f: 
             0x00007b18: 5f 75 6d 6f: 
             0x00007b1c: 64 64 69 33: 
             0x00007b20: 2e 6d 61 78: 
             0x00007b24: 63 68 61 6e: 
             0x00007b28: 65 6e 64 73: 
             0x00007b2c: 00 2e 2e 2f: 
             0x00007b30: 2e 2e 2f 2e: 
             0x00007b34: 2e 2f 2e 2e: 
             0x00007b38: 2f 2e 2e 2f: 
             0x00007b3c: 2e 2e 2f 73: 
             0x00007b40: 72 63 2f 6e: 
             0x00007b44: 65 77 6c 69: 
             0x00007b48: 62 2f 6c 69: 
             0x00007b4c: 62 63 2f 6d: 
             0x00007b50: 61 63 68 69: 
             0x00007b54: 6e 65 2f 78: 
             0x00007b58: 63 6f 72 65: 
             0x00007b5c: 2f 63 6c 65: 
             0x00007b60: 61 6e 75 70: 
             0x00007b64: 2e 63 00 5f: 
             0x00007b68: 63 6c 65 61: 
             0x00007b6c: 6e 75 70 5f: 
             0x00007b70: 69 6d 70 6c: 
             0x00007b74: 2e 6c 6f 63: 
             0x00007b78: 6e 6f 73 69: 
             0x00007b7c: 64 65 00 5f: 
             0x00007b80: 63 6c 65 61: 
             0x00007b84: 6e 75 70 5f: 
             0x00007b88: 69 6d 70 6c: 
             0x00007b8c: 00 5f 63 6c: 
             0x00007b90: 65 61 6e 75: 
             0x00007b94: 70 5f 69 6d: 
             0x00007b98: 70 6c 2e 6c: 
             0x00007b9c: 6f 63 6e 6f: 
             0x00007ba0: 63 68 61 6e: 
             0x00007ba4: 64 65 63 00: 
             0x00007ba8: 5f 63 6c 65: 
             0x00007bac: 61 6e 75 70: 
             0x00007bb0: 2e 6c 6f 63: 
             0x00007bb4: 6e 6f 73 69: 
             0x00007bb8: 64 65 00 5f: 
             0x00007bbc: 63 6c 65 61: 
             0x00007bc0: 6e 75 70 2e: 
             0x00007bc4: 6c 6f 63 6e: 
             0x00007bc8: 6f 63 68 61: 
             0x00007bcc: 6e 64 65 63: 
             0x00007bd0: 00 5f 63 6c: 
             0x00007bd4: 65 61 6e 75: 
             0x00007bd8: 70 5f 69 6d: 
             0x00007bdc: 70 6c 2e 6e: 
             0x00007be0: 73 74 61 63: 
             0x00007be4: 6b 77 6f 72: 
             0x00007be8: 64 73 00 5f: 
             0x00007bec: 63 6c 65 61: 
             0x00007bf0: 6e 75 70 5f: 
             0x00007bf4: 69 6d 70 6c: 
             0x00007bf8: 2e 6d 61 78: 
             0x00007bfc: 63 6f 72 65: 
             0x00007c00: 73 00 5f 63: 
             0x00007c04: 6c 65 61 6e: 
             0x00007c08: 75 70 5f 69: 
             0x00007c0c: 6d 70 6c 2e: 
             0x00007c10: 6d 61 78 74: 
             0x00007c14: 69 6d 65 72: 
             0x00007c18: 73 00 5f 63: 
             0x00007c1c: 6c 65 61 6e: 
             0x00007c20: 75 70 5f 69: 
             0x00007c24: 6d 70 6c 2e: 
             0x00007c28: 6d 61 78 63: 
             0x00007c2c: 68 61 6e 65: 
             0x00007c30: 6e 64 73 00: 
             0x00007c34: 64 6f 6e 65: 
             0x00007c38: 2e 53 00 5f: 
             0x00007c3c: 64 6f 6e 65: 
             0x00007c40: 2e 6c 6f 63: 
             0x00007c44: 6e 6f 63 68: 
             0x00007c48: 61 6e 64 65: 
             0x00007c4c: 63 00 73 61: 
             0x00007c50: 66 65 73 74: 
             0x00007c54: 72 69 6e 67: 
             0x00007c58: 2e 78 63 00: 
             0x00007c5c: 73 61 66 65: 
             0x00007c60: 73 74 72 63: 
             0x00007c64: 6d 70 2e 6c: 
             0x00007c68: 6f 63 6e 6f: 
             0x00007c6c: 73 69 64 65: 
             0x00007c70: 00 73 61 66: 
             0x00007c74: 65 73 74 72: 
             0x00007c78: 6e 63 6d 70: 
             0x00007c7c: 2e 6c 6f 63: 
             0x00007c80: 6e 6f 73 69: 
             0x00007c84: 64 65 00 73: 
             0x00007c88: 61 66 65 73: 
             0x00007c8c: 74 72 6c 65: 
             0x00007c90: 6e 2e 6c 6f: 
             0x00007c94: 63 6e 6f 73: 
             0x00007c98: 69 64 65 00: 
             0x00007c9c: 73 61 66 65: 
             0x00007ca0: 73 74 72 63: 
             0x00007ca4: 68 72 2e 6c: 
             0x00007ca8: 6f 63 6e 6f: 
             0x00007cac: 73 69 64 65: 
             0x00007cb0: 00 73 61 66: 
             0x00007cb4: 65 73 74 72: 
             0x00007cb8: 72 63 68 72: 
             0x00007cbc: 2e 6c 6f 63: 
             0x00007cc0: 6e 6f 73 69: 
             0x00007cc4: 64 65 00 73: 
             0x00007cc8: 61 66 65 73: 
             0x00007ccc: 74 72 73 70: 
             0x00007cd0: 6e 2e 6c 6f: 
             0x00007cd4: 63 6e 6f 73: 
             0x00007cd8: 69 64 65 00: 
             0x00007cdc: 73 61 66 65: 
             0x00007ce0: 73 74 72 63: 
             0x00007ce4: 73 70 6e 2e: 
             0x00007ce8: 6c 6f 63 6e: 
             0x00007cec: 6f 73 69 64: 
             0x00007cf0: 65 00 73 61: 
             0x00007cf4: 66 65 73 74: 
             0x00007cf8: 72 70 62 72: 
             0x00007cfc: 6b 2e 6c 6f: 
             0x00007d00: 63 6e 6f 73: 
             0x00007d04: 69 64 65 00: 
             0x00007d08: 73 61 66 65: 
             0x00007d0c: 73 74 72 73: 
             0x00007d10: 74 72 2e 6c: 
             0x00007d14: 6f 63 6e 6f: 
             0x00007d18: 73 69 64 65: 
             0x00007d1c: 00 73 61 66: 
             0x00007d20: 65 73 74 72: 
             0x00007d24: 63 70 79 2e: 
             0x00007d28: 6c 6f 63 6e: 
             0x00007d2c: 6f 63 68 61: 
             0x00007d30: 6e 64 65 63: 
             0x00007d34: 00 73 61 66: 
             0x00007d38: 65 73 74 72: 
             0x00007d3c: 6e 63 70 79: 
             0x00007d40: 2e 6c 6f 63: 
             0x00007d44: 6e 6f 63 68: 
             0x00007d48: 61 6e 64 65: 
             0x00007d4c: 63 00 73 61: 
             0x00007d50: 66 65 73 74: 
             0x00007d54: 72 63 61 74: 
             0x00007d58: 2e 6c 6f 63: 
             0x00007d5c: 6e 6f 63 68: 
             0x00007d60: 61 6e 64 65: 
             0x00007d64: 63 00 73 61: 
             0x00007d68: 66 65 73 74: 
             0x00007d6c: 72 6e 63 61: 
             0x00007d70: 74 2e 6c 6f: 
             0x00007d74: 63 6e 6f 63: 
             0x00007d78: 68 61 6e 64: 
             0x00007d7c: 65 63 00 73: 
             0x00007d80: 61 66 65 73: 
             0x00007d84: 74 72 63 6d: 
             0x00007d88: 70 2e 6c 6f: 
             0x00007d8c: 63 6e 6f 63: 
             0x00007d90: 68 61 6e 64: 
             0x00007d94: 65 63 00 73: 
             0x00007d98: 61 66 65 73: 
             0x00007d9c: 74 72 6e 63: 
             0x00007da0: 6d 70 2e 6c: 
             0x00007da4: 6f 63 6e 6f: 
             0x00007da8: 63 68 61 6e: 
             0x00007dac: 64 65 63 00: 
             0x00007db0: 73 61 66 65: 
             0x00007db4: 73 74 72 6c: 
             0x00007db8: 65 6e 2e 6c: 
             0x00007dbc: 6f 63 6e 6f: 
             0x00007dc0: 63 68 61 6e: 
             0x00007dc4: 64 65 63 00: 
             0x00007dc8: 73 61 66 65: 
             0x00007dcc: 73 74 72 63: 
             0x00007dd0: 68 72 2e 6c: 
             0x00007dd4: 6f 63 6e 6f: 
             0x00007dd8: 63 68 61 6e: 
             0x00007ddc: 64 65 63 00: 
             0x00007de0: 73 61 66 65: 
             0x00007de4: 73 74 72 72: 
             0x00007de8: 63 68 72 2e: 
             0x00007dec: 6c 6f 63 6e: 
             0x00007df0: 6f 63 68 61: 
             0x00007df4: 6e 64 65 63: 
             0x00007df8: 00 73 61 66: 
             0x00007dfc: 65 73 74 72: 
             0x00007e00: 73 70 6e 2e: 
             0x00007e04: 6c 6f 63 6e: 
             0x00007e08: 6f 63 68 61: 
             0x00007e0c: 6e 64 65 63: 
             0x00007e10: 00 73 61 66: 
             0x00007e14: 65 73 74 72: 
             0x00007e18: 63 73 70 6e: 
             0x00007e1c: 2e 6c 6f 63: 
             0x00007e20: 6e 6f 63 68: 
             0x00007e24: 61 6e 64 65: 
             0x00007e28: 63 00 73 61: 
             0x00007e2c: 66 65 73 74: 
             0x00007e30: 72 70 62 72: 
             0x00007e34: 6b 2e 6c 6f: 
             0x00007e38: 63 6e 6f 63: 
             0x00007e3c: 68 61 6e 64: 
             0x00007e40: 65 63 00 73: 
             0x00007e44: 61 66 65 73: 
             0x00007e48: 74 72 73 74: 
             0x00007e4c: 72 2e 6c 6f: 
             0x00007e50: 63 6e 6f 63: 
             0x00007e54: 68 61 6e 64: 
             0x00007e58: 65 63 00 73: 
             0x00007e5c: 61 66 65 73: 
             0x00007e60: 74 72 63 70: 
             0x00007e64: 79 2e 6e 73: 
             0x00007e68: 74 61 63 6b: 
             0x00007e6c: 77 6f 72 64: 
             0x00007e70: 73 00 73 61: 
             0x00007e74: 66 65 73 74: 
             0x00007e78: 72 63 70 79: 
             0x00007e7c: 2e 6d 61 78: 
             0x00007e80: 63 6f 72 65: 
             0x00007e84: 73 00 73 61: 
             0x00007e88: 66 65 73 74: 
             0x00007e8c: 72 63 70 79: 
             0x00007e90: 2e 6d 61 78: 
             0x00007e94: 74 69 6d 65: 
             0x00007e98: 72 73 00 73: 
             0x00007e9c: 61 66 65 73: 
             0x00007ea0: 74 72 63 70: 
             0x00007ea4: 79 2e 6d 61: 
             0x00007ea8: 78 63 68 61: 
             0x00007eac: 6e 65 6e 64: 
             0x00007eb0: 73 00 73 61: 
             0x00007eb4: 66 65 73 74: 
             0x00007eb8: 72 6e 63 70: 
             0x00007ebc: 79 2e 6e 73: 
             0x00007ec0: 74 61 63 6b: 
             0x00007ec4: 77 6f 72 64: 
             0x00007ec8: 73 00 73 61: 
             0x00007ecc: 66 65 73 74: 
             0x00007ed0: 72 6e 63 70: 
             0x00007ed4: 79 2e 6d 61: 
             0x00007ed8: 78 63 6f 72: 
             0x00007edc: 65 73 00 73: 
             0x00007ee0: 61 66 65 73: 
             0x00007ee4: 74 72 6e 63: 
             0x00007ee8: 70 79 2e 6d: 
             0x00007eec: 61 78 74 69: 
             0x00007ef0: 6d 65 72 73: 
             0x00007ef4: 00 73 61 66: 
             0x00007ef8: 65 73 74 72: 
             0x00007efc: 6e 63 70 79: 
             0x00007f00: 2e 6d 61 78: 
             0x00007f04: 63 68 61 6e: 
             0x00007f08: 65 6e 64 73: 
             0x00007f0c: 00 73 61 66: 
             0x00007f10: 65 73 74 72: 
             0x00007f14: 63 61 74 2e: 
             0x00007f18: 6e 73 74 61: 
             0x00007f1c: 63 6b 77 6f: 
             0x00007f20: 72 64 73 00: 
             0x00007f24: 73 61 66 65: 
             0x00007f28: 73 74 72 63: 
             0x00007f2c: 61 74 2e 6d: 
             0x00007f30: 61 78 63 6f: 
             0x00007f34: 72 65 73 00: 
             0x00007f38: 73 61 66 65: 
             0x00007f3c: 73 74 72 63: 
             0x00007f40: 61 74 2e 6d: 
             0x00007f44: 61 78 74 69: 
             0x00007f48: 6d 65 72 73: 
             0x00007f4c: 00 73 61 66: 
             0x00007f50: 65 73 74 72: 
             0x00007f54: 63 61 74 2e: 
             0x00007f58: 6d 61 78 63: 
             0x00007f5c: 68 61 6e 65: 
             0x00007f60: 6e 64 73 00: 
             0x00007f64: 73 61 66 65: 
             0x00007f68: 73 74 72 6e: 
             0x00007f6c: 63 61 74 2e: 
             0x00007f70: 6e 73 74 61: 
             0x00007f74: 63 6b 77 6f: 
             0x00007f78: 72 64 73 00: 
             0x00007f7c: 73 61 66 65: 
             0x00007f80: 73 74 72 6e: 
             0x00007f84: 63 61 74 2e: 
             0x00007f88: 6d 61 78 63: 
             0x00007f8c: 6f 72 65 73: 
             0x00007f90: 00 73 61 66: 
             0x00007f94: 65 73 74 72: 
             0x00007f98: 6e 63 61 74: 
             0x00007f9c: 2e 6d 61 78: 
             0x00007fa0: 74 69 6d 65: 
             0x00007fa4: 72 73 00 73: 
             0x00007fa8: 61 66 65 73: 
             0x00007fac: 74 72 6e 63: 
             0x00007fb0: 61 74 2e 6d: 
             0x00007fb4: 61 78 63 68: 
             0x00007fb8: 61 6e 65 6e: 
             0x00007fbc: 64 73 00 73: 
             0x00007fc0: 61 66 65 73: 
             0x00007fc4: 74 72 63 6d: 
             0x00007fc8: 70 2e 6e 73: 
             0x00007fcc: 74 61 63 6b: 
             0x00007fd0: 77 6f 72 64: 
             0x00007fd4: 73 00 73 61: 
             0x00007fd8: 66 65 73 74: 
             0x00007fdc: 72 63 6d 70: 
             0x00007fe0: 2e 6d 61 78: 
             0x00007fe4: 63 6f 72 65: 
             0x00007fe8: 73 00 73 61: 
             0x00007fec: 66 65 73 74: 
             0x00007ff0: 72 63 6d 70: 
             0x00007ff4: 2e 6d 61 78: 
             0x00007ff8: 74 69 6d 65: 
             0x00007ffc: 72 73 00 73: 
             0x00008000: 61 66 65 73: 
             0x00008004: 74 72 63 6d: 
             0x00008008: 70 2e 6d 61: 
             0x0000800c: 78 63 68 61: 
             0x00008010: 6e 65 6e 64: 
             0x00008014: 73 00 73 61: 
             0x00008018: 66 65 73 74: 
             0x0000801c: 72 6e 63 6d: 
             0x00008020: 70 2e 6e 73: 
             0x00008024: 74 61 63 6b: 
             0x00008028: 77 6f 72 64: 
             0x0000802c: 73 00 73 61: 
             0x00008030: 66 65 73 74: 
             0x00008034: 72 6e 63 6d: 
             0x00008038: 70 2e 6d 61: 
             0x0000803c: 78 63 6f 72: 
             0x00008040: 65 73 00 73: 
             0x00008044: 61 66 65 73: 
             0x00008048: 74 72 6e 63: 
             0x0000804c: 6d 70 2e 6d: 
             0x00008050: 61 78 74 69: 
             0x00008054: 6d 65 72 73: 
             0x00008058: 00 73 61 66: 
             0x0000805c: 65 73 74 72: 
             0x00008060: 6e 63 6d 70: 
             0x00008064: 2e 6d 61 78: 
             0x00008068: 63 68 61 6e: 
             0x0000806c: 65 6e 64 73: 
             0x00008070: 00 73 61 66: 
             0x00008074: 65 73 74 72: 
             0x00008078: 63 68 72 2e: 
             0x0000807c: 6e 73 74 61: 
             0x00008080: 63 6b 77 6f: 
             0x00008084: 72 64 73 00: 
             0x00008088: 73 61 66 65: 
             0x0000808c: 73 74 72 63: 
             0x00008090: 68 72 2e 6d: 
             0x00008094: 61 78 63 6f: 
             0x00008098: 72 65 73 00: 
             0x0000809c: 73 61 66 65: 
             0x000080a0: 73 74 72 63: 
             0x000080a4: 68 72 2e 6d: 
             0x000080a8: 61 78 74 69: 
             0x000080ac: 6d 65 72 73: 
             0x000080b0: 00 73 61 66: 
             0x000080b4: 65 73 74 72: 
             0x000080b8: 63 68 72 2e: 
             0x000080bc: 6d 61 78 63: 
             0x000080c0: 68 61 6e 65: 
             0x000080c4: 6e 64 73 00: 
             0x000080c8: 73 61 66 65: 
             0x000080cc: 73 74 72 72: 
             0x000080d0: 63 68 72 2e: 
             0x000080d4: 6e 73 74 61: 
             0x000080d8: 63 6b 77 6f: 
             0x000080dc: 72 64 73 00: 
             0x000080e0: 73 61 66 65: 
             0x000080e4: 73 74 72 72: 
             0x000080e8: 63 68 72 2e: 
             0x000080ec: 6d 61 78 63: 
             0x000080f0: 6f 72 65 73: 
             0x000080f4: 00 73 61 66: 
             0x000080f8: 65 73 74 72: 
             0x000080fc: 72 63 68 72: 
             0x00008100: 2e 6d 61 78: 
             0x00008104: 74 69 6d 65: 
             0x00008108: 72 73 00 73: 
             0x0000810c: 61 66 65 73: 
             0x00008110: 74 72 72 63: 
             0x00008114: 68 72 2e 6d: 
             0x00008118: 61 78 63 68: 
             0x0000811c: 61 6e 65 6e: 
             0x00008120: 64 73 00 73: 
             0x00008124: 61 66 65 73: 
             0x00008128: 74 72 73 70: 
             0x0000812c: 6e 2e 6e 73: 
             0x00008130: 74 61 63 6b: 
             0x00008134: 77 6f 72 64: 
             0x00008138: 73 00 73 61: 
             0x0000813c: 66 65 73 74: 
             0x00008140: 72 73 70 6e: 
             0x00008144: 2e 6d 61 78: 
             0x00008148: 63 6f 72 65: 
             0x0000814c: 73 00 73 61: 
             0x00008150: 66 65 73 74: 
             0x00008154: 72 73 70 6e: 
             0x00008158: 2e 6d 61 78: 
             0x0000815c: 74 69 6d 65: 
             0x00008160: 72 73 00 73: 
             0x00008164: 61 66 65 73: 
             0x00008168: 74 72 73 70: 
             0x0000816c: 6e 2e 6d 61: 
             0x00008170: 78 63 68 61: 
             0x00008174: 6e 65 6e 64: 
             0x00008178: 73 00 73 61: 
             0x0000817c: 66 65 73 74: 
             0x00008180: 72 63 73 70: 
             0x00008184: 6e 2e 6e 73: 
             0x00008188: 74 61 63 6b: 
             0x0000818c: 77 6f 72 64: 
             0x00008190: 73 00 73 61: 
             0x00008194: 66 65 73 74: 
             0x00008198: 72 63 73 70: 
             0x0000819c: 6e 2e 6d 61: 
             0x000081a0: 78 63 6f 72: 
             0x000081a4: 65 73 00 73: 
             0x000081a8: 61 66 65 73: 
             0x000081ac: 74 72 63 73: 
             0x000081b0: 70 6e 2e 6d: 
             0x000081b4: 61 78 74 69: 
             0x000081b8: 6d 65 72 73: 
             0x000081bc: 00 73 61 66: 
             0x000081c0: 65 73 74 72: 
             0x000081c4: 63 73 70 6e: 
             0x000081c8: 2e 6d 61 78: 
             0x000081cc: 63 68 61 6e: 
             0x000081d0: 65 6e 64 73: 
             0x000081d4: 00 73 61 66: 
             0x000081d8: 65 73 74 72: 
             0x000081dc: 70 62 72 6b: 
             0x000081e0: 2e 6e 73 74: 
             0x000081e4: 61 63 6b 77: 
             0x000081e8: 6f 72 64 73: 
             0x000081ec: 00 73 61 66: 
             0x000081f0: 65 73 74 72: 
             0x000081f4: 70 62 72 6b: 
             0x000081f8: 2e 6d 61 78: 
             0x000081fc: 63 6f 72 65: 
             0x00008200: 73 00 73 61: 
             0x00008204: 66 65 73 74: 
             0x00008208: 72 70 62 72: 
             0x0000820c: 6b 2e 6d 61: 
             0x00008210: 78 74 69 6d: 
             0x00008214: 65 72 73 00: 
             0x00008218: 73 61 66 65: 
             0x0000821c: 73 74 72 70: 
             0x00008220: 62 72 6b 2e: 
             0x00008224: 6d 61 78 63: 
             0x00008228: 68 61 6e 65: 
             0x0000822c: 6e 64 73 00: 
             0x00008230: 73 61 66 65: 
             0x00008234: 73 74 72 73: 
             0x00008238: 74 72 2e 6e: 
             0x0000823c: 73 74 61 63: 
             0x00008240: 6b 77 6f 72: 
             0x00008244: 64 73 00 73: 
             0x00008248: 61 66 65 73: 
             0x0000824c: 74 72 73 74: 
             0x00008250: 72 2e 6d 61: 
             0x00008254: 78 63 6f 72: 
             0x00008258: 65 73 00 73: 
             0x0000825c: 61 66 65 73: 
             0x00008260: 74 72 73 74: 
             0x00008264: 72 2e 6d 61: 
             0x00008268: 78 74 69 6d: 
             0x0000826c: 65 72 73 00: 
             0x00008270: 73 61 66 65: 
             0x00008274: 73 74 72 73: 
             0x00008278: 74 72 2e 6d: 
             0x0000827c: 61 78 63 68: 
             0x00008280: 61 6e 65 6e: 
             0x00008284: 64 73 00 2e: 
             0x00008288: 2e 2f 2e 2e: 
             0x0000828c: 2f 2e 2e 2f: 
             0x00008290: 2e 2e 2f 2e: 
             0x00008294: 2e 2f 73 72: 
             0x00008298: 63 2f 6e 65: 
             0x0000829c: 77 6c 69 62: 
             0x000082a0: 2f 6c 69 62: 
             0x000082a4: 63 2f 73 74: 
             0x000082a8: 72 69 6e 67: 
             0x000082ac: 2f 73 74 72: 
             0x000082b0: 6c 65 6e 2e: 
             0x000082b4: 63 00 73 74: 
             0x000082b8: 72 6c 65 6e: 
             0x000082bc: 2e 6c 6f 63: 
             0x000082c0: 6e 6f 73 69: 
             0x000082c4: 64 65 00 73: 
             0x000082c8: 74 72 6c 65: 
             0x000082cc: 6e 2e 6c 6f: 
             0x000082d0: 63 6e 6f 63: 
             0x000082d4: 68 61 6e 64: 
             0x000082d8: 65 63 00 74: 
             0x000082dc: 69 6d 65 2e: 
             0x000082e0: 78 63 00 78: 
             0x000082e4: 73 63 6f 70: 
             0x000082e8: 65 5f 74 6d: 
             0x000082ec: 72 00 78 73: 
             0x000082f0: 63 6f 70 65: 
             0x000082f4: 5f 67 65 74: 
             0x000082f8: 74 69 6d 65: 
             0x000082fc: 2e 6c 6f 63: 
             0x00008300: 6e 6f 63 68: 
             0x00008304: 61 6e 64 65: 
             0x00008308: 63 00 78 73: 
             0x0000830c: 63 6f 70 65: 
             0x00008310: 5f 74 6d 72: 
             0x00008314: 2e 63 74 6f: 
             0x00008318: 72 00 78 73: 
             0x0000831c: 63 6f 70 65: 
             0x00008320: 5f 74 6d 72: 
             0x00008324: 2e 63 74 6f: 
             0x00008328: 72 2e 6e 73: 
             0x0000832c: 74 61 63 6b: 
             0x00008330: 77 6f 72 64: 
             0x00008334: 73 00 78 73: 
             0x00008338: 63 6f 70 65: 
             0x0000833c: 5f 74 6d 72: 
             0x00008340: 2e 63 74 6f: 
             0x00008344: 72 2e 6d 61: 
             0x00008348: 78 63 6f 72: 
             0x0000834c: 65 73 00 78: 
             0x00008350: 73 63 6f 70: 
             0x00008354: 65 5f 74 6d: 
             0x00008358: 72 2e 63 74: 
             0x0000835c: 6f 72 2e 6d: 
             0x00008360: 61 78 63 68: 
             0x00008364: 61 6e 65 6e: 
             0x00008368: 64 73 00 78: 
             0x0000836c: 73 63 6f 70: 
             0x00008370: 65 5f 74 6d: 
             0x00008374: 72 2e 64 74: 
             0x00008378: 6f 72 00 78: 
             0x0000837c: 73 63 6f 70: 
             0x00008380: 65 5f 74 6d: 
             0x00008384: 72 2e 64 74: 
             0x00008388: 6f 72 2e 6e: 
             0x0000838c: 73 74 61 63: 
             0x00008390: 6b 77 6f 72: 
             0x00008394: 64 73 00 78: 
             0x00008398: 73 63 6f 70: 
             0x0000839c: 65 5f 74 6d: 
             0x000083a0: 72 2e 64 74: 
             0x000083a4: 6f 72 2e 6d: 
             0x000083a8: 61 78 63 6f: 
             0x000083ac: 72 65 73 00: 
             0x000083b0: 78 73 63 6f: 
             0x000083b4: 70 65 5f 74: 
             0x000083b8: 6d 72 2e 64: 
             0x000083bc: 74 6f 72 2e: 
             0x000083c0: 6d 61 78 63: 
             0x000083c4: 68 61 6e 65: 
             0x000083c8: 6e 64 73 00: 
             0x000083cc: 78 73 63 6f: 
             0x000083d0: 70 65 5f 73: 
             0x000083d4: 79 73 63 61: 
             0x000083d8: 6c 6c 5f 77: 
             0x000083dc: 72 69 74 65: 
             0x000083e0: 2e 53 00 78: 
             0x000083e4: 73 63 6f 70: 
             0x000083e8: 65 5f 73 79: 
             0x000083ec: 73 63 61 6c: 
             0x000083f0: 6c 5f 77 72: 
             0x000083f4: 69 74 65 2e: 
             0x000083f8: 6c 6f 63 6e: 
             0x000083fc: 6f 63 68 61: 
             0x00008400: 6e 64 65 63: 
             0x00008404: 00 5f 44 6f: 
             0x00008408: 53 79 73 63: 
             0x0000840c: 61 6c 6c 45: 
             0x00008410: 72 72 6e 6f: 
             0x00008414: 2e 6e 73 74: 
             0x00008418: 61 63 6b 77: 
             0x0000841c: 6f 72 64 73: 
             0x00008420: 00 5f 44 6f: 
             0x00008424: 53 79 73 63: 
             0x00008428: 61 6c 6c 45: 
             0x0000842c: 72 72 6e 6f: 
             0x00008430: 2e 6d 61 78: 
             0x00008434: 63 68 61 6e: 
             0x00008438: 65 6e 64 73: 
             0x0000843c: 00 5f 44 6f: 
             0x00008440: 53 79 73 63: 
             0x00008444: 61 6c 6c 45: 
             0x00008448: 72 72 6e 6f: 
             0x0000844c: 2e 6d 61 78: 
             0x00008450: 74 69 6d 65: 
             0x00008454: 72 73 00 5f: 
             0x00008458: 44 6f 53 79: 
             0x0000845c: 73 63 61 6c: 
             0x00008460: 6c 45 72 72: 
             0x00008464: 6e 6f 2e 6d: 
             0x00008468: 61 78 63 6f: 
             0x0000846c: 72 65 73 00: 
             0x00008470: 5f 44 6f 53: 
             0x00008474: 79 73 63 61: 
             0x00008478: 6c 6c 45 72: 
             0x0000847c: 72 6e 6f 00: 
             0x00008480: 78 73 63 6f: 
             0x00008484: 70 65 5f 78: 
             0x00008488: 6c 69 6e 6b: 
             0x0000848c: 5f 74 78 2e: 
             0x00008490: 53 00 5f 5f: 
             0x00008494: 73 6f 64 45: 
             0x00008498: 6e 64 00 78: 
             0x0000849c: 73 63 6f 70: 
             0x000084a0: 65 5f 78 6c: 
             0x000084a4: 69 6e 6b 5f: 
             0x000084a8: 6f 75 74 74: 
             0x000084ac: 00 78 73 63: 
             0x000084b0: 6f 70 65 5f: 
             0x000084b4: 78 6c 69 6e: 
             0x000084b8: 6b 5f 70 75: 
             0x000084bc: 74 5f 63 68: 
             0x000084c0: 5f 72 65 74: 
             0x000084c4: 00 78 73 63: 
             0x000084c8: 6f 70 65 5f: 
             0x000084cc: 78 6c 69 6e: 
             0x000084d0: 6b 5f 70 75: 
             0x000084d4: 74 5f 63 74: 
             0x000084d8: 5f 72 65 74: 
             0x000084dc: 00 73 79 73: 
             0x000084e0: 63 61 6c 6c: 
             0x000084e4: 65 72 72 6e: 
             0x000084e8: 6f 2e 53 00: 
             0x000084ec: 5f 5f 65 72: 
             0x000084f0: 72 6e 6f 2e: 
             0x000084f4: 6e 73 74 61: 
             0x000084f8: 63 6b 77 6f: 
             0x000084fc: 72 64 73 00: 
             0x00008500: 5f 5f 65 72: 
             0x00008504: 72 6e 6f 2e: 
             0x00008508: 6d 61 78 63: 
             0x0000850c: 68 61 6e 65: 
             0x00008510: 6e 64 73 00: 
             0x00008514: 5f 5f 65 72: 
             0x00008518: 72 6e 6f 2e: 
             0x0000851c: 6d 61 78 74: 
             0x00008520: 69 6d 65 72: 
             0x00008524: 73 00 5f 5f: 
             0x00008528: 65 72 72 6e: 
             0x0000852c: 6f 2e 6d 61: 
             0x00008530: 78 63 6f 72: 
             0x00008534: 65 73 00 5f: 
             0x00008538: 5f 65 72 72: 
             0x0000853c: 6e 6f 00 2e: 
             0x00008540: 2e 2f 2e 2e: 
             0x00008544: 2f 2e 2e 2f: 
             0x00008548: 2e 2e 2f 2e: 
             0x0000854c: 2e 2f 73 72: 
             0x00008550: 63 2f 6e 65: 
             0x00008554: 77 6c 69 62: 
             0x00008558: 2f 6c 69 62: 
             0x0000855c: 63 2f 65 72: 
             0x00008560: 72 6e 6f 2f: 
             0x00008564: 65 72 72 6e: 
             0x00008568: 6f 2e 63 00: 
             0x0000856c: 5f 5f 65 72: 
             0x00008570: 72 6e 6f 2e: 
             0x00008574: 6c 6f 63 6e: 
             0x00008578: 6f 73 69 64: 
             0x0000857c: 65 00 5f 5f: 
             0x00008580: 65 72 72 6e: 
             0x00008584: 6f 2e 6c 6f: 
             0x00008588: 63 6e 6f 63: 
             0x0000858c: 68 61 6e 64: 
             0x00008590: 65 63 00 5f: 
             0x00008594: 65 72 72 6e: 
             0x00008598: 6f 00 63 72: 
             0x0000859c: 74 65 6e 64: 
             0x000085a0: 2e 73 00 63: 
             0x000085a4: 74 6f 72 5f: 
             0x000085a8: 6c 69 73 74: 
             0x000085ac: 5f 70 74 72: 
             0x000085b0: 00 63 74 6f: 
             0x000085b4: 72 73 5f 73: 
             0x000085b8: 69 7a 65 00: 
             0x000085bc: 5f 43 54 4f: 
             0x000085c0: 52 5f 45 4e: 
             0x000085c4: 44 5f 00 64: 
             0x000085c8: 6f 5f 63 74: 
             0x000085cc: 6f 72 73 5f: 
             0x000085d0: 6c 6f 6f 70: 
             0x000085d4: 00 64 6f 5f: 
             0x000085d8: 63 74 6f 72: 
             0x000085dc: 73 5f 65 6e: 
             0x000085e0: 64 00 5f 5f: 
             0x000085e4: 65 68 5f 6f: 
             0x000085e8: 62 6a 65 63: 
             0x000085ec: 74 00 5f 5f: 
             0x000085f0: 45 48 5f 46: 
             0x000085f4: 52 41 4d 45: 
             0x000085f8: 5f 45 4e 44: 
             0x000085fc: 5f 5f 00 63: 
             0x00008600: 72 74 6e 2e: 
             0x00008604: 73 00 74 68: 
             0x00008608: 6e 73 5f 78: 
             0x0000860c: 53 31 33 79: 
             0x00008610: 57 00 69 72: 
             0x00008614: 78 63 5f 44: 
             0x00008618: 35 57 53 67: 
             0x0000861c: 66 00 73 6f: 
             0x00008620: 64 5f 4a 73: 
             0x00008624: 75 35 36 78: 
             0x00008628: 00 2e 72 61: 
             0x0000862c: 6d 5f 62 61: 
             0x00008630: 73 65 00 2e: 
             0x00008634: 43 50 4d 30: 
             0x00008638: 00 2e 43 50: 
             0x0000863c: 4d 31 00 2e: 
             0x00008640: 43 50 4d 32: 
             0x00008644: 00 2e 43 50: 
             0x00008648: 4d 33 00 2e: 
             0x0000864c: 43 50 4d 34: 
             0x00008650: 00 2e 43 50: 
             0x00008654: 4d 35 00 2e: 
             0x00008658: 43 50 4d 36: 
             0x0000865c: 00 2e 43 50: 
             0x00008660: 4d 37 00 2e: 
             0x00008664: 43 50 4d 38: 
             0x00008668: 00 2e 43 50: 
             0x0000866c: 4d 39 00 2e: 
             0x00008670: 43 50 4d 31: 
             0x00008674: 30 00 2e 78: 
             0x00008678: 6d 6f 73 6e: 
             0x0000867c: 6f 74 65 00: 
             0x00008680: 66 7b 30 7d: 
             0x00008684: 28 30 29 00: 
             0x00008688: 73 63 6d 61: 
             0x0000868c: 69 6e 5f 33: 
             0x00008690: 2e 78 63 3a: 
             0x00008694: 36 33 3a 20: 
             0x00008698: 65 72 72 6f: 
             0x0000869c: 72 3a 20 70: 
             0x000086a0: 72 65 76 69: 
             0x000086a4: 6f 75 73 6c: 
             0x000086a8: 79 20 75 73: 
             0x000086ac: 65 64 20 68: 
             0x000086b0: 65 72 65 00: 
             0x000086b4: 66 7b 73 69: 
             0x000086b8: 7d 28 29 00: 
             0x000086bc: 66 7b 30 7d: 
             0x000086c0: 28 73 69 29: 
             0x000086c4: 00 75 69 00: 
             0x000086c8: 73 63 6d 61: 
             0x000086cc: 69 6e 5f 33: 
             0x000086d0: 2e 78 63 3a: 
             0x000086d4: 32 39 3a 20: 
             0x000086d8: 65 72 72 6f: 
             0x000086dc: 72 3a 20 70: 
             0x000086e0: 72 65 76 69: 
             0x000086e4: 6f 75 73 6c: 
             0x000086e8: 79 20 75 73: 
             0x000086ec: 65 64 20 68: 
             0x000086f0: 65 72 65 00: 
             0x000086f4: 73 63 6d 61: 
             0x000086f8: 69 6e 5f 33: 
             0x000086fc: 2e 78 63 3a: 
             0x00008700: 32 38 3a 20: 
             0x00008704: 65 72 72 6f: 
             0x00008708: 72 3a 20 70: 
             0x0000870c: 72 65 76 69: 
             0x00008710: 6f 75 73 6c: 
             0x00008714: 79 20 75 73: 
             0x00008718: 65 64 20 68: 
             0x0000871c: 65 72 65 00: 
             0x00008720: 66 7b 30 7d: 
             0x00008724: 28 29 00 66: 
             0x00008728: 7b 30 7d 28: 
             0x0000872c: 63 68 64 2c: 
             0x00008730: 63 68 64 29: 
             0x00008734: 00 66 7b 30: 
             0x00008738: 7d 28 75 69: 
             0x0000873c: 2c 75 69 29: 
             0x00008740: 00 66 7b 75: 
             0x00008744: 69 7d 28 75: 
             0x00008748: 69 29 00 66: 
             0x0000874c: 7b 75 69 7d: 
             0x00008750: 28 30 29 00: 
             0x00008754: 66 7b 75 69: 
             0x00008758: 7d 28 29 00: 
             0x0000875c: 66 7b 73 69: 
             0x00008760: 7d 28 73 69: 
             0x00008764: 2c 70 28 63: 
             0x00008768: 3a 75 63 29: 
             0x0000876c: 2c 75 69 29: 
             0x00008770: 00 70 72 69: 
             0x00008774: 6e 74 2e 78: 
             0x00008778: 63 3a 31 36: 
             0x0000877c: 32 3a 20 65: 
             0x00008780: 72 72 6f 72: 
             0x00008784: 3a 20 63 61: 
             0x00008788: 6c 6c 20 74: 
             0x0000878c: 6f 20 60 5f: 
             0x00008790: 77 72 69 74: 
             0x00008794: 65 27 20 69: 
             0x00008798: 6e 20 60 70: 
             0x0000879c: 72 69 6e 74: 
             0x000087a0: 73 74 72 6c: 
             0x000087a4: 6e 27 20 6d: 
             0x000087a8: 61 6b 65 73: 
             0x000087ac: 20 61 6c 69: 
             0x000087b0: 61 73 20 6f: 
             0x000087b4: 66 20 67 6c: 
             0x000087b8: 6f 62 61 6c: 
             0x000087bc: 20 27 6e 65: 
             0x000087c0: 77 6c 69 6e: 
             0x000087c4: 65 27 00 70: 
             0x000087c8: 72 69 6e 74: 
             0x000087cc: 2e 78 63 3a: 
             0x000087d0: 31 35 31 3a: 
             0x000087d4: 20 65 72 72: 
             0x000087d8: 6f 72 3a 20: 
             0x000087dc: 63 61 6c 6c: 
             0x000087e0: 20 74 6f 20: 
             0x000087e4: 60 5f 77 72: 
             0x000087e8: 69 74 65 27: 
             0x000087ec: 20 69 6e 20: 
             0x000087f0: 60 70 72 69: 
             0x000087f4: 6e 74 6c 6c: 
             0x000087f8: 6f 6e 67 68: 
             0x000087fc: 65 78 6c 6e: 
             0x00008800: 27 20 6d 61: 
             0x00008804: 6b 65 73 20: 
             0x00008808: 61 6c 69 61: 
             0x0000880c: 73 20 6f 66: 
             0x00008810: 20 67 6c 6f: 
             0x00008814: 62 61 6c 20: 
             0x00008818: 27 6e 65 77: 
             0x0000881c: 6c 69 6e 65: 
             0x00008820: 27 00 70 72: 
             0x00008824: 69 6e 74 2e: 
             0x00008828: 78 63 3a 31: 
             0x0000882c: 34 31 3a 20: 
             0x00008830: 65 72 72 6f: 
             0x00008834: 72 3a 20 63: 
             0x00008838: 61 6c 6c 20: 
             0x0000883c: 74 6f 20 60: 
             0x00008840: 5f 77 72 69: 
             0x00008844: 74 65 27 20: 
             0x00008848: 69 6e 20 60: 
             0x0000884c: 70 72 69 6e: 
             0x00008850: 74 68 65 78: 
             0x00008854: 6c 6e 27 20: 
             0x00008858: 6d 61 6b 65: 
             0x0000885c: 73 20 61 6c: 
             0x00008860: 69 61 73 20: 
             0x00008864: 6f 66 20 67: 
             0x00008868: 6c 6f 62 61: 
             0x0000886c: 6c 20 27 6e: 
             0x00008870: 65 77 6c 69: 
             0x00008874: 6e 65 27 00: 
             0x00008878: 70 72 69 6e: 
             0x0000887c: 74 2e 78 63: 
             0x00008880: 3a 31 33 32: 
             0x00008884: 3a 20 65 72: 
             0x00008888: 72 6f 72 3a: 
             0x0000888c: 20 63 61 6c: 
             0x00008890: 6c 20 74 6f: 
             0x00008894: 20 60 5f 77: 
             0x00008898: 72 69 74 65: 
             0x0000889c: 27 20 69 6e: 
             0x000088a0: 20 60 70 72: 
             0x000088a4: 69 6e 74 6c: 
             0x000088a8: 6c 6f 6e 67: 
             0x000088ac: 6c 6e 27 20: 
             0x000088b0: 6d 61 6b 65: 
             0x000088b4: 73 20 61 6c: 
             0x000088b8: 69 61 73 20: 
             0x000088bc: 6f 66 20 67: 
             0x000088c0: 6c 6f 62 61: 
             0x000088c4: 6c 20 27 6e: 
             0x000088c8: 65 77 6c 69: 
             0x000088cc: 6e 65 27 00: 
             0x000088d0: 70 72 69 6e: 
             0x000088d4: 74 2e 78 63: 
             0x000088d8: 3a 31 33 32: 
             0x000088dc: 3a 20 65 72: 
             0x000088e0: 72 6f 72 3a: 
             0x000088e4: 20 63 61 6c: 
             0x000088e8: 6c 20 74 6f: 
             0x000088ec: 20 60 5f 77: 
             0x000088f0: 72 69 74 65: 
             0x000088f4: 27 20 69 6e: 
             0x000088f8: 20 60 70 72: 
             0x000088fc: 69 6e 74 75: 
             0x00008900: 6c 6c 6f 6e: 
             0x00008904: 67 6c 6e 27: 
             0x00008908: 20 6d 61 6b: 
             0x0000890c: 65 73 20 61: 
             0x00008910: 6c 69 61 73: 
             0x00008914: 20 6f 66 20: 
             0x00008918: 67 6c 6f 62: 
             0x0000891c: 61 6c 20 27: 
             0x00008920: 6e 65 77 6c: 
             0x00008924: 69 6e 65 27: 
             0x00008928: 00 70 72 69: 
             0x0000892c: 6e 74 2e 78: 
             0x00008930: 63 3a 31 33: 
             0x00008934: 31 3a 20 65: 
             0x00008938: 72 72 6f 72: 
             0x0000893c: 3a 20 63 61: 
             0x00008940: 6c 6c 20 74: 
             0x00008944: 6f 20 60 5f: 
             0x00008948: 77 72 69 74: 
             0x0000894c: 65 27 20 69: 
             0x00008950: 6e 20 60 70: 
             0x00008954: 72 69 6e 74: 
             0x00008958: 69 6e 74 6c: 
             0x0000895c: 6e 27 20 6d: 
             0x00008960: 61 6b 65 73: 
             0x00008964: 20 61 6c 69: 
             0x00008968: 61 73 20 6f: 
             0x0000896c: 66 20 67 6c: 
             0x00008970: 6f 62 61 6c: 
             0x00008974: 20 27 6e 65: 
             0x00008978: 77 6c 69 6e: 
             0x0000897c: 65 27 00 70: 
             0x00008980: 72 69 6e 74: 
             0x00008984: 2e 78 63 3a: 
             0x00008988: 31 33 31 3a: 
             0x0000898c: 20 65 72 72: 
             0x00008990: 6f 72 3a 20: 
             0x00008994: 63 61 6c 6c: 
             0x00008998: 20 74 6f 20: 
             0x0000899c: 60 5f 77 72: 
             0x000089a0: 69 74 65 27: 
             0x000089a4: 20 69 6e 20: 
             0x000089a8: 60 70 72 69: 
             0x000089ac: 6e 74 75 69: 
             0x000089b0: 6e 74 6c 6e: 
             0x000089b4: 27 20 6d 61: 
             0x000089b8: 6b 65 73 20: 
             0x000089bc: 61 6c 69 61: 
             0x000089c0: 73 20 6f 66: 
             0x000089c4: 20 67 6c 6f: 
             0x000089c8: 62 61 6c 20: 
             0x000089cc: 27 6e 65 77: 
             0x000089d0: 6c 69 6e 65: 
             0x000089d4: 27 00 66 7b: 
             0x000089d8: 73 69 7d 28: 
             0x000089dc: 73 69 2c 26: 
             0x000089e0: 28 61 28 3a: 
             0x000089e4: 63 3a 75 63: 
             0x000089e8: 29 29 2c 75: 
             0x000089ec: 69 29 00 66: 
             0x000089f0: 7b 30 7d 28: 
             0x000089f4: 75 69 2c 26: 
             0x000089f8: 28 61 28 3a: 
             0x000089fc: 75 69 29 29: 
             0x00008a00: 29 00 66 7b: 
             0x00008a04: 30 7d 28 75: 
             0x00008a08: 69 2c 70 28: 
             0x00008a0c: 75 69 29 29: 
             0x00008a10: 00 66 7b 30: 
             0x00008a14: 7d 28 75 69: 
             0x00008a18: 29 00 53 77: 
             0x00008a1c: 61 6c 6c 6f: 
             0x00008a20: 77 2d 68 65: 
             0x00008a24: 6c 70 65 72: 
             0x00008a28: 73 2e 78 63: 
             0x00008a2c: 3a 34 32 3a: 
             0x00008a30: 20 65 72 72: 
             0x00008a34: 6f 72 3a 20: 
             0x00008a38: 70 72 65 76: 
             0x00008a3c: 69 6f 75 73: 
             0x00008a40: 6c 79 20 75: 
             0x00008a44: 73 65 64 20: 
             0x00008a48: 68 65 72 65: 
             0x00008a4c: 00 66 7b 75: 
             0x00008a50: 69 7d 28 75: 
             0x00008a54: 69 2c 75 69: 
             0x00008a58: 2c 75 69 2c: 
             0x00008a5c: 75 69 2c 75: 
             0x00008a60: 69 29 00 66: 
             0x00008a64: 7b 30 7d 28: 
             0x00008a68: 75 69 2c 26: 
             0x00008a6c: 28 61 28 36: 
             0x00008a70: 3a 61 28 32: 
             0x00008a74: 30 34 38 3a: 
             0x00008a78: 75 69 29 29: 
             0x00008a7c: 29 2c 26 28: 
             0x00008a80: 61 28 36 3a: 
             0x00008a84: 61 28 32 34: 
             0x00008a88: 3a 73 28 63: 
             0x00008a8c: 68 61 6e 4d: 
             0x00008a90: 61 70 70 69: 
             0x00008a94: 6e 67 29 7b: 
             0x00008a98: 6d 28 63 68: 
             0x00008a9c: 61 6e 49 44: 
             0x00008aa0: 29 7b 75 69: 
             0x00008aa4: 7d 7d 29 29: 
             0x00008aa8: 29 29 00 66: 
             0x00008aac: 7b 75 69 7d: 
             0x00008ab0: 28 75 69 2c: 
             0x00008ab4: 75 69 2c 75: 
             0x00008ab8: 69 2c 26 28: 
             0x00008abc: 61 28 36 3a: 
             0x00008ac0: 61 28 32 30: 
             0x00008ac4: 34 38 3a 75: 
             0x00008ac8: 69 29 29 29: 
             0x00008acc: 29 00 70 72: 
             0x00008ad0: 69 6e 74 2e: 
             0x00008ad4: 78 63 3a 31: 
             0x00008ad8: 34 31 3a 20: 
             0x00008adc: 65 72 72 6f: 
             0x00008ae0: 72 3a 20 70: 
             0x00008ae4: 72 65 76 69: 
             0x00008ae8: 6f 75 73 6c: 
             0x00008aec: 79 20 75 73: 
             0x00008af0: 65 64 20 68: 
             0x00008af4: 65 72 65 00: 
             0x00008af8: 66 7b 73 69: 
             0x00008afc: 7d 28 75 69: 
             0x00008b00: 29 00 66 7b: 
             0x00008b04: 75 69 7d 28: 
             0x00008b08: 75 69 2c 75: 
             0x00008b0c: 69 2c 75 69: 
             0x00008b10: 2c 75 69 2c: 
             0x00008b14: 26 28 61 28: 
             0x00008b18: 36 3a 61 28: 
             0x00008b1c: 32 30 34 38: 
             0x00008b20: 3a 75 69 29: 
             0x00008b24: 29 29 2c 26: 
             0x00008b28: 28 61 28 36: 
             0x00008b2c: 3a 61 28 32: 
             0x00008b30: 34 3a 73 28: 
             0x00008b34: 63 68 61 6e: 
             0x00008b38: 4d 61 70 70: 
             0x00008b3c: 69 6e 67 29: 
             0x00008b40: 7b 6d 28 63: 
             0x00008b44: 68 61 6e 49: 
             0x00008b48: 44 29 7b 75: 
             0x00008b4c: 69 7d 7d 29: 
             0x00008b50: 29 29 29 00: 
             0x00008b54: 66 7b 75 69: 
             0x00008b58: 7d 28 75 69: 
             0x00008b5c: 2c 75 69 2c: 
             0x00008b60: 75 69 29 00: 
             0x00008b64: 66 7b 75 69: 
             0x00008b68: 7d 28 75 69: 
             0x00008b6c: 2c 75 69 29: 
             0x00008b70: 00 66 7b 75: 
             0x00008b74: 69 7d 28 75: 
             0x00008b78: 69 2c 70 28: 
             0x00008b7c: 61 28 31 30: 
             0x00008b80: 3a 75 69 29: 
             0x00008b84: 29 2c 75 69: 
             0x00008b88: 2c 75 69 2c: 
             0x00008b8c: 75 69 2c 75: 
             0x00008b90: 69 2c 75 69: 
             0x00008b94: 29 00 66 7b: 
             0x00008b98: 75 69 7d 28: 
             0x00008b9c: 75 69 2c 26: 
             0x00008ba0: 28 61 28 3a: 
             0x00008ba4: 61 28 31 30: 
             0x00008ba8: 3a 75 69 29: 
             0x00008bac: 29 29 2c 75: 
             0x00008bb0: 69 2c 75 69: 
             0x00008bb4: 2c 75 69 2c: 
             0x00008bb8: 75 69 2c 75: 
             0x00008bbc: 69 29 00 66: 
             0x00008bc0: 7b 30 7d 28: 
             0x00008bc4: 75 69 2c 26: 
             0x00008bc8: 28 61 28 3a: 
             0x00008bcc: 61 28 31 30: 
             0x00008bd0: 3a 75 69 29: 
             0x00008bd4: 29 29 2c 26: 
             0x00008bd8: 28 61 28 3a: 
             0x00008bdc: 75 69 29 29: 
             0x00008be0: 2c 63 68 64: 
             0x00008be4: 2c 63 68 64: 
             0x00008be8: 2c 63 68 64: 
             0x00008bec: 2c 63 68 64: 
             0x00008bf0: 29 00 66 7b: 
             0x00008bf4: 30 7d 28 75: 
             0x00008bf8: 69 2c 70 28: 
             0x00008bfc: 61 28 31 30: 
             0x00008c00: 3a 75 69 29: 
             0x00008c04: 29 2c 70 28: 
             0x00008c08: 75 69 29 2c: 
             0x00008c0c: 75 69 2c 75: 
             0x00008c10: 69 2c 75 69: 
             0x00008c14: 2c 75 69 29: 
             0x00008c18: 00 66 7b 75: 
             0x00008c1c: 69 7d 28 26: 
             0x00008c20: 28 61 28 36: 
             0x00008c24: 3a 61 28 32: 
             0x00008c28: 34 3a 73 28: 
             0x00008c2c: 63 68 61 6e: 
             0x00008c30: 4d 61 70 70: 
             0x00008c34: 69 6e 67 29: 
             0x00008c38: 7b 6d 28 63: 
             0x00008c3c: 68 61 6e 49: 
             0x00008c40: 44 29 7b 75: 
             0x00008c44: 69 7d 7d 29: 
             0x00008c48: 29 29 2c 75: 
             0x00008c4c: 69 2c 75 69: 
             0x00008c50: 29 00 66 7b: 
             0x00008c54: 30 7d 28 26: 
             0x00008c58: 28 61 28 36: 
             0x00008c5c: 3a 61 28 32: 
             0x00008c60: 34 3a 73 28: 
             0x00008c64: 63 68 61 6e: 
             0x00008c68: 4d 61 70 70: 
             0x00008c6c: 69 6e 67 29: 
             0x00008c70: 7b 6d 28 63: 
             0x00008c74: 68 61 6e 49: 
             0x00008c78: 44 29 7b 75: 
             0x00008c7c: 69 7d 7d 29: 
             0x00008c80: 29 29 2c 75: 
             0x00008c84: 69 2c 75 69: 
             0x00008c88: 2c 75 69 29: 
             0x00008c8c: 00 53 77 61: 
             0x00008c90: 6c 6c 6f 77: 
             0x00008c94: 2d 70 72 69: 
             0x00008c98: 6d 2e 78 63: 
             0x00008c9c: 3a 38 31 3a: 
             0x00008ca0: 20 65 72 72: 
             0x00008ca4: 6f 72 3a 20: 
             0x00008ca8: 75 73 65 20: 
             0x00008cac: 6f 66 20 60: 
             0x00008cb0: 25 73 27 20: 
             0x00008cb4: 76 69 6f 6c: 
             0x00008cb8: 61 74 65 73: 
             0x00008cbc: 20 70 61 72: 
             0x00008cc0: 61 6c 6c 65: 
             0x00008cc4: 6c 20 75 73: 
             0x00008cc8: 61 67 65 20: 
             0x00008ccc: 72 75 6c 65: 
             0x00008cd0: 73 00 66 7b: 
             0x00008cd4: 30 7d 28 75: 
             0x00008cd8: 69 2c 75 69: 
             0x00008cdc: 2c 26 28 61: 
             0x00008ce0: 28 3a 61 28: 
             0x00008ce4: 31 30 3a 75: 
             0x00008ce8: 69 29 29 29: 
             0x00008cec: 2c 26 28 61: 
             0x00008cf0: 28 3a 75 69: 
             0x00008cf4: 29 29 29 00: 
             0x00008cf8: 66 7b 73 69: 
             0x00008cfc: 7d 28 30 29: 
             0x00008d00: 00 66 7b 30: 
             0x00008d04: 7d 28 73 69: 
             0x00008d08: 2c 70 28 30: 
             0x00008d0c: 29 29 00 66: 
             0x00008d10: 7b 73 69 7d: 
             0x00008d14: 28 70 28 76: 
             0x00008d18: 3a 73 69 29: 
             0x00008d1c: 29 00 66 7b: 
             0x00008d20: 30 7d 28 70: 
             0x00008d24: 28 63 3a 75: 
             0x00008d28: 63 29 2c 75: 
             0x00008d2c: 69 29 00 66: 
             0x00008d30: 7b 30 7d 28: 
             0x00008d34: 75 63 29 00: 
             0x00008d38: 74 69 6d 65: 
             0x00008d3c: 2e 78 63 3a: 
             0x00008d40: 37 3a 20 65: 
             0x00008d44: 72 72 6f 72: 
             0x00008d48: 3a 20 70 72: 
             0x00008d4c: 65 76 69 6f: 
             0x00008d50: 75 73 6c 79: 
             0x00008d54: 20 75 73 65: 
             0x00008d58: 64 20 68 65: 
             0x00008d5c: 72 65 00 66: 
             0x00008d60: 7b 73 69 7d: 
             0x00008d64: 28 75 69 2c: 
             0x00008d68: 75 69 2c 75: 
             0x00008d6c: 69 29 00 73: 
             0x00008d70: 69 00 70 72: 
             0x00008d74: 69 6e 74 2e: 
             0x00008d78: 78 63 3a 31: 
             0x00008d7c: 33 31 3a 20: 
             0x00008d80: 65 72 72 6f: 
             0x00008d84: 72 3a 20 70: 
             0x00008d88: 72 65 76 69: 
             0x00008d8c: 6f 75 73 6c: 
             0x00008d90: 79 20 75 73: 
             0x00008d94: 65 64 20 68: 
             0x00008d98: 65 72 65 00: 
             0x00008d9c: 70 72 69 6e: 
             0x00008da0: 74 2e 78 63: 
             0x00008da4: 3a 31 33 32: 
             0x00008da8: 3a 20 65 72: 
             0x00008dac: 72 6f 72 3a: 
             0x00008db0: 20 70 72 65: 
             0x00008db4: 76 69 6f 75: 
             0x00008db8: 73 6c 79 20: 
             0x00008dbc: 75 73 65 64: 
             0x00008dc0: 20 68 65 72: 
             0x00008dc4: 65 00 66 7b: 
             0x00008dc8: 73 69 7d 28: 
             0x00008dcc: 75 63 29 00: 
             0x00008dd0: 74 00 66 7b: 
             0x00008dd4: 70 28 73 69: 
             0x00008dd8: 29 7d 28 30: 
             0x00008ddc: 29 00 2e 65: 
             0x00008de0: 78 70 72 00: 
             0x00008de4: 2e 73 79 6d: 
             0x00008de8: 74 61 62 00: 
             0x00008dec: 2e 73 74 72: 
             0x00008df0: 74 61 62 00: 


